	.section .mdebug.abi32
	.previous
	.gnu_attribute 4, 3
	.text
$Ltext0:
	.cfi_sections	.debug_frame
	.align	2
	.globl	rtl_tcp_ctl_init
$LFB3380 = .
	.file 1 "/home/extra_home/marklee/rtk_OpenWRT_BB/BB_v1407_branch_v25/v25_relase_source_test_0830/rtk_OpenWRT_v2.5_Branch_20160603/build_dir/target-mipsel_24kec_uClibc-0.9.33.2/linux-rtkmipsel_rtl8197f/rtl_sendfile-0.1/reverse_sendfile.c"
	.loc 1 120 0
	.cfi_startproc
	.set	nomips16
	.ent	rtl_tcp_ctl_init
	.type	rtl_tcp_ctl_init, @function
rtl_tcp_ctl_init:
	.frame	$sp,0,$31		# vars= 0, regs= 0/0, args= 0, gp= 0
	.mask	0x00000000,0
	.fmask	0x00000000,0
	.set	noreorder
	.set	nomacro
	.loc 1 121 0
	lui	$4,%hi(g2_tcp_ctl)
	li	$3,1			# 0x1
	.loc 1 122 0
	addiu	$2,$4,%lo(g2_tcp_ctl)
	.loc 1 121 0
	sw	$3,%lo(g2_tcp_ctl)($4)
	.loc 1 123 0
	li	$4,16			# 0x10
	sw	$4,8($2)
	.loc 1 124 0
	li	$4,8192			# 0x2000
	sw	$4,12($2)
	.loc 1 125 0
	li	$4,4096			# 0x1000
	sw	$4,16($2)
	.loc 1 126 0
	li	$4,2			# 0x2
	.loc 1 122 0
	sw	$3,4($2)
	.loc 1 126 0
	sw	$4,20($2)
	.loc 1 127 0
	sw	$3,24($2)
	.loc 1 128 0
	j	$31
	sw	$0,28($2)

	.set	macro
	.set	reorder
	.end	rtl_tcp_ctl_init
	.cfi_endproc
$LFE3380:
	.size	rtl_tcp_ctl_init, .-rtl_tcp_ctl_init
	.align	2
	.globl	rtl_splice_from_pipe_feed
$LFB3391 = .
	.loc 1 743 0
	.cfi_startproc
	.set	nomips16
	.ent	rtl_splice_from_pipe_feed
	.type	rtl_splice_from_pipe_feed, @function
rtl_splice_from_pipe_feed:
	.frame	$sp,48,$31		# vars= 0, regs= 7/0, args= 16, gp= 0
	.mask	0x803f0000,-4
	.fmask	0x00000000,0
	.set	noreorder
	.set	nomacro
	.loc 1 746 0
	lui	$2,%hi(rtl_pipe_to_sendpages)
	.loc 1 743 0
	addiu	$sp,$sp,-48
	.cfi_def_cfa_offset 48
	.loc 1 746 0
	addiu	$2,$2,%lo(rtl_pipe_to_sendpages)
	.loc 1 743 0
	sw	$19,32($sp)
	sw	$18,28($sp)
	sw	$16,20($sp)
	sw	$31,44($sp)
	sw	$21,40($sp)
	sw	$20,36($sp)
	sw	$17,24($sp)
	.cfi_offset 19, -16
	.cfi_offset 18, -20
	.cfi_offset 16, -28
	.cfi_offset 31, -4
	.cfi_offset 21, -8
	.cfi_offset 20, -12
	.cfi_offset 17, -24
	.loc 1 743 0
	move	$19,$6
	move	$18,$4
	.loc 1 746 0
	beq	$6,$2,$L3
	move	$16,$5

$LBB80 = .
	.loc 1 820 0
	li	$20,1			# 0x1
$L20:
$LBE80 = .
	.loc 1 788 0
	lw	$2,20($18)
$LBB81 = .
	.loc 1 796 0
	move	$4,$18
$LBE81 = .
	.loc 1 788 0
	bne	$2,$0,$L4
	move	$6,$16

	.loc 1 826 0
	j	$L7
	li	$2,1			# 0x1

$L3:
$LBB82 = .
	.loc 1 750 0
	lw	$2,4($5)
	.loc 1 747 0
	lw	$3,24($4)
	.loc 1 750 0
	bne	$2,$0,$L6
	lw	$5,68($4)

$LBE82 = .
	.loc 1 826 0
	j	$L7
	li	$2,1			# 0x1

$L6:
$LBB83 = .
	.loc 1 747 0
	sll	$2,$3,3
	sll	$3,$3,5
	subu	$17,$3,$2
	addu	$17,$5,$17
	.loc 1 751 0
	move	$5,$17
	jal	rtl_pipe_to_sendpages
	move	$6,$16

	.loc 1 752 0
	bgtz	$2,$L9
	move	$19,$2

$L32:
	.loc 1 753 0
	li	$3,-61			# 0xffffffffffffffc3
	bne	$2,$3,$L34
	lw	$31,44($sp)

$LBE83 = .
	.loc 1 754 0
	j	$L34
	move	$2,$0

$L12:
$LBB84 = .
	.loc 1 760 0
	lw	$3,12($17)
	.loc 1 761 0
	sw	$0,12($17)
	.loc 1 759 0
	subu	$19,$19,$2
	.loc 1 762 0
	lw	$2,16($3)
	jalr	$2
	nop

	.loc 1 764 0
	lw	$4,24($18)
	lw	$2,28($18)
	.loc 1 765 0
	lw	$3,20($18)
	.loc 1 764 0
	addiu	$4,$4,1
	addiu	$2,$2,-1
	and	$2,$2,$4
	.loc 1 769 0
	sll	$4,$2,3
	sll	$17,$2,5
	.loc 1 765 0
	addiu	$3,$3,-1
	.loc 1 769 0
	subu	$4,$17,$4
	.loc 1 764 0
	sw	$2,24($18)
	.loc 1 766 0
	beq	$19,$0,$L11
	sw	$3,20($18)

	.loc 1 769 0
	lw	$17,68($18)
	addu	$17,$17,$4
$L9:
	.loc 1 758 0 discriminator 1
	lw	$2,8($17)
	.loc 1 762 0 discriminator 1
	move	$5,$17
	.loc 1 758 0 discriminator 1
	sltu	$3,$19,$2
	beq	$3,$0,$L12
	move	$4,$18

	.loc 1 771 0
	beq	$19,$0,$L11
	subu	$2,$2,$19

	.loc 1 772 0
	lw	$3,4($17)
	.loc 1 773 0
	sw	$2,8($17)
	.loc 1 772 0
	addu	$19,$3,$19
	sw	$19,4($17)
$L11:
	.loc 1 777 0
	lw	$2,40($18)
	beq	$2,$0,$L14
	nop

	.loc 1 781 0
	li	$2,1			# 0x1
	sb	$2,32($16)
$L14:
	.loc 1 783 0
	lw	$2,4($16)
	j	$L7
	sltu	$2,$0,$2

$L4:
$LBE84 = .
$LBB85 = .
	.loc 1 789 0
	lw	$2,24($18)
	lw	$17,68($18)
	.loc 1 793 0
	lw	$3,4($16)
	.loc 1 789 0
	sll	$5,$2,3
	sll	$2,$2,5
	subu	$2,$2,$5
	addu	$17,$17,$2
	.loc 1 792 0
	lw	$2,8($17)
	.loc 1 790 0
	lw	$21,12($17)
	.loc 1 796 0
	move	$5,$17
	.loc 1 793 0
	sltu	$7,$3,$2
	beq	$7,$0,$L15
	sw	$2,0($16)

	.loc 1 794 0
	sw	$3,0($16)
$L15:
	.loc 1 796 0
	jalr	$19
	nop

	.loc 1 797 0
	blez	$2,$L32
	sra	$6,$2,31

	.loc 1 802 0
	lw	$3,4($17)
	.loc 1 803 0
	lw	$4,8($17)
	.loc 1 802 0
	addu	$3,$3,$2
	.loc 1 803 0
	subu	$4,$4,$2
	sw	$4,8($17)
	.loc 1 802 0
	sw	$3,4($17)
	.loc 1 807 0
	lw	$5,16($16)
	lw	$9,20($16)
	.loc 1 805 0
	lw	$7,28($16)
	.loc 1 806 0
	lw	$8,0($16)
	.loc 1 808 0
	lw	$3,4($16)
	.loc 1 807 0
	addu	$4,$5,$2
	sltu	$5,$4,$5
	addu	$6,$9,$6
	.loc 1 808 0
	subu	$3,$3,$2
	.loc 1 805 0
	addu	$7,$7,$2
	.loc 1 807 0
	addu	$6,$5,$6
	.loc 1 806 0
	subu	$2,$8,$2
	.loc 1 808 0
	sw	$3,4($16)
	.loc 1 805 0
	sw	$7,28($16)
	.loc 1 806 0
	sw	$2,0($16)
	.loc 1 807 0
	sw	$4,16($16)
	sw	$6,20($16)
	.loc 1 810 0
	lw	$2,8($17)
	bne	$2,$0,$L18
	move	$4,$18

	.loc 1 811 0
	sw	$0,12($17)
	.loc 1 812 0
	lw	$2,16($21)
	jalr	$2
	move	$5,$17

	.loc 1 813 0
	lw	$4,24($18)
	lw	$5,28($18)
	.loc 1 814 0
	lw	$3,20($18)
	.loc 1 813 0
	addiu	$4,$4,1
	addiu	$5,$5,-1
	.loc 1 816 0
	lw	$2,40($18)
	.loc 1 814 0
	addiu	$3,$3,-1
	.loc 1 813 0
	and	$4,$5,$4
	sw	$4,24($18)
	.loc 1 814 0
	sw	$3,20($18)
	.loc 1 816 0
	beq	$2,$0,$L18
	lw	$3,4($16)

	.loc 1 820 0
	sb	$20,32($16)
$L18:
	.loc 1 822 0
	bne	$3,$0,$L20
	move	$2,$0

$L7:
$LBE85 = .
	.loc 1 827 0
	lw	$31,44($sp)
$L34:
	lw	$21,40($sp)
	lw	$20,36($sp)
	lw	$19,32($sp)
	lw	$18,28($sp)
	lw	$17,24($sp)
	lw	$16,20($sp)
	j	$31
	addiu	$sp,$sp,48

	.cfi_def_cfa_offset 0
	.cfi_restore 16
	.cfi_restore 17
	.cfi_restore 18
	.cfi_restore 19
	.cfi_restore 20
	.cfi_restore 21
	.cfi_restore 31
	.set	macro
	.set	reorder
	.end	rtl_splice_from_pipe_feed
	.cfi_endproc
$LFE3391:
	.size	rtl_splice_from_pipe_feed, .-rtl_splice_from_pipe_feed
	.section	.rodata.str1.4,"aMS",@progbits,1
	.align	2
$LC0:
	.ascii	"%s: err=-EPIPE!!!\015\012\000"
	.align	2
$LC1:
	.ascii	"*** psize=%d poffset=%d mss_now=%d size_goal=%d ***\012\000"
	.align	2
$LC2:
	.ascii	"%s: goto wait_for_memory\015\012\000"
	.align	2
$LC3:
	.ascii	"%s: skb->len=%d, page_count=%d\015\012\000"
	.align	2
$LC4:
	.ascii	"%s: sk_stream_wait_memory(), err=%d\015\012\000"
	.align	2
$LC5:
	.ascii	"%s: wait_for_memory(), mss_now=%d, size_goal=%d\015\012\000"
	.text
	.align	2
	.globl	tcp_sendpages
$LFB3382 = .
	.loc 1 363 0
	.cfi_startproc
	.set	nomips16
	.ent	tcp_sendpages
	.type	tcp_sendpages, @function
tcp_sendpages:
	.frame	$sp,160,$31		# vars= 96, regs= 10/0, args= 24, gp= 0
	.mask	0xc0ff0000,-4
	.fmask	0x00000000,0
	addiu	$sp,$sp,-160
	.cfi_def_cfa_offset 160
	sw	$fp,152($sp)
	sw	$21,140($sp)
	.cfi_offset 30, -8
	.cfi_offset 21, -20
	move	$fp,$5
	sw	$20,136($sp)
	move	$21,$4
	.loc 1 368 0
	move	$5,$0
	addiu	$4,$sp,24
	.cfi_offset 20, -24
	.loc 1 363 0
	move	$20,$6
	.loc 1 368 0
	li	$6,64			# 0x40
	.loc 1 363 0
	sw	$31,156($sp)
	sw	$22,144($sp)
	sw	$19,132($sp)
	sw	$23,148($sp)
	.cfi_offset 31, -4
	.cfi_offset 22, -16
	.cfi_offset 19, -28
	.cfi_offset 23, -12
	move	$19,$7
	sw	$18,128($sp)
	sw	$17,124($sp)
	sw	$16,120($sp)
	.cfi_offset 18, -32
	.cfi_offset 17, -36
	.cfi_offset 16, -40
	.loc 1 368 0
	.set	noreorder
	.set	nomacro
	jal	memset
	lw	$22,176($sp)
	.set	macro
	.set	reorder

	.loc 1 369 0
	lw	$2,24($fp)
	lw	$3,68($fp)
	.loc 1 374 0
	move	$4,$21
	.loc 1 369 0
	sll	$5,$2,3
	sll	$2,$2,5
	subu	$2,$2,$5
	addu	$3,$3,$2
	.loc 1 374 0
	.set	noreorder
	.set	nomacro
	jal	rtl_get_sk_route_caps
	sw	$3,96($sp)
	.set	macro
	.set	reorder

	andi	$2,$2,0x1
	.set	noreorder
	.set	nomacro
	bne	$2,$0,$L36
	lw	$17,96($sp)
	.set	macro
	.set	reorder

$L105:
	.loc 1 363 0
	move	$16,$0
	.loc 1 386 0
	.set	noreorder
	.set	nomacro
	j	$L37
	li	$23,4096			# 0x1000
	.set	macro
	.set	reorder

$L36:
	.loc 1 376 0 discriminator 1
	.set	noreorder
	.set	nomacro
	jal	rtl_get_sk_route_caps
	move	$4,$21
	.set	macro
	.set	reorder

	andi	$2,$2,0x1a
	.loc 1 374 0 discriminator 1
	.set	noreorder
	.set	nomacro
	beq	$2,$0,$L105
	lw	$17,96($sp)
	.set	macro
	.set	reorder

	lw	$4,20($fp)
	lw	$2,96($sp)
	addiu	$3,$sp,24
	sll	$5,$4,3
	sll	$4,$4,5
	subu	$5,$4,$5
	.set	noreorder
	.set	nomacro
	j	$L40
	addu	$5,$2,$5
	.set	macro
	.set	reorder

$L37:
	.loc 1 385 0
	addu	$3,$16,$20
	andi	$3,$3,0xfff
$LBB98 = .
	.loc 1 386 0
	subu	$3,$23,$3
	subu	$2,$19,$16
	sltu	$18,$2,$3
	movz	$2,$3,$18
	move	$18,$2
$LBE98 = .
	.loc 1 379 0
	lw	$2,0($17)
	.set	noreorder
	.set	nomacro
	beq	$2,$0,$L99
	move	$4,$21
	.set	macro
	.set	reorder

	.loc 1 379 0 is_stmt 0 discriminator 1
	.set	noreorder
	.set	nomacro
	beq	$16,$19,$L104
	lw	$31,156($sp)
	.set	macro
	.set	reorder

	.loc 1 388 0 is_stmt 1
	jal	rtl_get_sk_socket
	lw	$5,0($17)
	move	$4,$2
	sw	$22,16($sp)
	move	$6,$20
	.set	noreorder
	.set	nomacro
	jal	sock_no_sendpage
	move	$7,$18
	.set	macro
	.set	reorder

	.loc 1 390 0
	bgez	$2,$L44
	.set	noreorder
	.set	nomacro
	j	$L99
	movz	$16,$2,$16
	.set	macro
	.set	reorder

$L44:
	.loc 1 396 0
	.set	noreorder
	.set	nomacro
	bne	$18,$2,$L37
	addu	$16,$16,$2
	.set	macro
	.set	reorder

	.loc 1 396 0 is_stmt 0 discriminator 1
	lw	$2,20($fp)
	.loc 1 397 0 is_stmt 1 discriminator 1
	addiu	$3,$17,24
	.loc 1 396 0 discriminator 1
	sll	$4,$2,3
	sll	$2,$2,5
	subu	$2,$2,$4
	lw	$4,96($sp)
	addu	$2,$4,$2
	sltu	$2,$17,$2
	.set	noreorder
	.set	nomacro
	j	$L37
	movn	$17,$3,$2
	.set	macro
	.set	reorder

$L46:
	.loc 1 404 0 discriminator 2
	lw	$4,0($2)
	addiu	$2,$2,24
	sw	$4,-4($3)
$L40:
	.loc 1 403 0 discriminator 1
	.set	noreorder
	.set	nomacro
	bne	$2,$5,$L46
	addiu	$3,$3,4
	.set	macro
	.set	reorder

$LBB99 = .
$LBB100 = .
	.file 2 "include/net/sock.h"
	.loc 2 1468 0
	move	$4,$21
	.set	noreorder
	.set	nomacro
	jal	lock_sock_nested
	move	$5,$0
	.set	macro
	.set	reorder

$LBE100 = .
$LBE99 = .
$LBB101 = .
$LBB102 = .
	.loc 1 140 0
	move	$4,$21
	.set	noreorder
	.set	nomacro
	jal	rtl_sk_sndtimeo
	move	$5,$22
	.set	macro
	.set	reorder

	.loc 1 145 0
	lbu	$3,18($21)
	.loc 1 140 0
	sw	$2,88($sp)
	.loc 1 145 0
	li	$2,-259			# 0xfffffffffffffefd
	sra	$2,$2,$3
	andi	$2,$2,0x1
	.set	noreorder
	.set	nomacro
	bne	$2,$0,$L47
	move	$4,$21
	.set	macro
	.set	reorder

$L50:
	.loc 1 152 0
	.set	noreorder
	.set	nomacro
	jal	rtl_get_sk_socket
	move	$4,$21
	.set	macro
	.set	reorder

$LBE102 = .
$LBE101 = .
	.file 3 "/home/extra_home/marklee/rtk_OpenWRT_BB/BB_v1407_branch_v25/v25_relase_source_test_0830/rtk_OpenWRT_v2.5_Branch_20160603/build_dir/target-mipsel_24kec_uClibc-0.9.33.2/linux-rtkmipsel_rtl8197f/linux-3.10.49/arch/mips/include/asm/bitops.h"
	.loc 3 128 0
	.set	noreorder
	.set	nomacro
	j	$L48
	addiu	$2,$2,8
	.set	macro
	.set	reorder

$L47:
$LBB130 = .
$LBB119 = .
	.loc 1 146 0
	.set	noreorder
	.set	nomacro
	jal	sk_stream_wait_connect
	addiu	$5,$sp,88
	.set	macro
	.set	reorder

	.set	noreorder
	.set	nomacro
	bne	$2,$0,$L49
	move	$16,$2
	.set	macro
	.set	reorder

	j	$L50
$L48:
$LBB103 = .
$LBB104 = .
	.loc 3 145 0
#APP
 # 145 "/home/extra_home/marklee/rtk_OpenWRT_BB/BB_v1407_branch_v25/v25_relase_source_test_0830/rtk_OpenWRT_v2.5_Branch_20160603/build_dir/target-mipsel_24kec_uClibc-0.9.33.2/linux-rtkmipsel_rtl8197f/linux-3.10.49/arch/mips/include/asm/bitops.h" 1
		ll	$3, 0($2)		# clear_bit	
	ins	$3, $0, 0, 1			
	sc	$3, 0($2)				

 # 0 "" 2
	.loc 3 151 0
#NO_APP
	.set	noreorder
	.set	nomacro
	beq	$3,$0,$L48
	move	$4,$21
	.set	macro
	.set	reorder

$LBE104 = .
$LBE103 = .
	.loc 1 153 0
	addiu	$5,$sp,92
	.set	noreorder
	.set	nomacro
	jal	tcp_send_mss
	move	$6,$22
	.set	macro
	.set	reorder

	sw	$2,108($sp)
	.loc 1 162 0
	lui	$2,%hi(g2_tcp_ctl)
	addiu	$fp,$2,%lo(g2_tcp_ctl)
	lw	$2,8($fp)
	sltu	$3,$2,2
	.set	noreorder
	.set	nomacro
	bne	$3,$0,$L53
	sll	$2,$2,12
	.set	macro
	.set	reorder

	.loc 1 163 0
	addiu	$2,$2,-4096
$L53:
	.loc 1 166 0
	lw	$3,92($sp)
	slt	$3,$2,$3
	beq	$3,$0,$L54
	.loc 1 167 0
	sw	$2,92($sp)
$L54:
	.loc 1 173 0
	.set	noreorder
	.set	nomacro
	jal	rtl_get_sk_err
	move	$4,$21
	.set	macro
	.set	reorder

	beq	$2,$0,$L55
$L56:
	.loc 1 175 0
	lui	$4,%hi($LC0)
	lui	$5,%hi(__func__.41332)
	addiu	$4,$4,%lo($LC0)
	.set	noreorder
	.set	nomacro
	jal	printk
	addiu	$5,$5,%lo(__func__.41332)
	.set	macro
	.set	reorder

$LBE119 = .
$LBE130 = .
	.loc 1 171 0
	.set	noreorder
	.set	nomacro
	j	$L49
	li	$16,-32			# 0xffffffffffffffe0
	.set	macro
	.set	reorder

$L55:
$LBB131 = .
$LBB120 = .
	.loc 1 173 0
	.set	noreorder
	.set	nomacro
	jal	rtl_get_sk_shutdown
	move	$4,$21
	.set	macro
	.set	reorder

	andi	$2,$2,0x2
	.set	noreorder
	.set	nomacro
	bne	$2,$0,$L56
	li	$2,3			# 0x3
	.set	macro
	.set	reorder

	.loc 1 179 0
	lw	$3,4($fp)
	.set	noreorder
	.set	nomacro
	bne	$3,$2,$L106
	li	$2,2			# 0x2
	.set	macro
	.set	reorder

	.loc 1 181 0
	lw	$16,92($sp)
	.set	noreorder
	.set	nomacro
	jal	rtl_get_tp_snd_wnd
	move	$4,$21
	.set	macro
	.set	reorder

	sltu	$2,$16,$2
	beq	$2,$0,$L58
	.set	noreorder
	.set	nomacro
	j	$L57
	lw	$3,4($fp)
	.set	macro
	.set	reorder

$L58:
	.loc 1 182 0
	.set	noreorder
	.set	nomacro
	jal	rtl_get_tp_snd_wnd
	move	$4,$21
	.set	macro
	.set	reorder

	lw	$3,4($fp)
	sw	$2,92($sp)
$L57:
	.loc 1 185 0
	li	$2,2			# 0x2
$L106:
	.set	noreorder
	.set	nomacro
	bne	$3,$2,$L107
	li	$2,-65536			# 0xffffffffffff0000
	.set	macro
	.set	reorder

	.loc 1 187 0
	lw	$2,92($sp)
	lw	$7,108($sp)
	lui	$4,%hi($LC1)
	addiu	$4,$4,%lo($LC1)
	sw	$2,16($sp)
	move	$5,$19
	.set	noreorder
	.set	nomacro
	jal	printk
	move	$6,$20
	.set	macro
	.set	reorder

$LBB105 = .
	.loc 1 319 0
	li	$2,-65536			# 0xffffffffffff0000
$L107:
	addiu	$2,$2,32767
	and	$2,$22,$2
	.loc 1 306 0
	sw	$0,100($sp)
	sw	$0,104($sp)
	sw	$0,112($sp)
$LBE105 = .
$LBE120 = .
$LBE131 = .
	.loc 1 319 0
	.set	noreorder
	.set	nomacro
	j	$L60
	sw	$2,116($sp)
	.set	macro
	.set	reorder

$L82:
$LBB132 = .
$LBB121 = .
$LBB111 = .
	.loc 1 193 0
	.set	noreorder
	.set	nomacro
	jal	rtl_tcp_write_queue_tail
	move	$4,$21
	.set	macro
	.set	reorder

	.loc 1 194 0
	srl	$3,$20,12
	addiu	$4,$sp,24
	sll	$3,$3,2
	addu	$3,$4,$3
	.loc 1 193 0
	move	$16,$2
	.loc 1 196 0
	andi	$18,$20,0xfff
$LBB106 = .
	.loc 1 197 0
	li	$2,4096			# 0x1000
	subu	$2,$2,$18
$LBE106 = .
	.loc 1 194 0
	lw	$3,0($3)
$LBB107 = .
	.loc 1 197 0
	sltu	$17,$19,$2
	movn	$2,$19,$17
$LBE107 = .
	.loc 1 201 0
	move	$4,$21
	.loc 1 194 0
	sw	$3,96($sp)
	.loc 1 201 0
	.set	noreorder
	.set	nomacro
	jal	rtl_get_tcp_send_head
	move	$17,$2
	.set	macro
	.set	reorder

	.set	noreorder
	.set	nomacro
	beq	$2,$0,$L61
	lw	$23,92($sp)
	.set	macro
	.set	reorder

	.set	noreorder
	.set	nomacro
	jal	rtl_get_skb_len_common
	move	$4,$16
	.set	macro
	.set	reorder

	subu	$2,$23,$2
	bgtz	$2,$L62
$L61:
	.loc 1 204 0
	.set	noreorder
	.set	nomacro
	jal	rtl_sk_stream_memory_free
	move	$4,$21
	.set	macro
	.set	reorder

	.set	noreorder
	.set	nomacro
	beq	$2,$0,$L63
	move	$4,$21
	.set	macro
	.set	reorder

	.loc 1 210 0
	jal	rtl_get_sk_allocation
	move	$6,$2
	move	$4,$21
	.set	noreorder
	.set	nomacro
	jal	sk_stream_alloc_skb
	move	$5,$0
	.set	macro
	.set	reorder

	.loc 1 211 0
	.set	noreorder
	.set	nomacro
	bne	$2,$0,$L64
	move	$16,$2
	.set	macro
	.set	reorder

	.loc 1 213 0
	lui	$2,%hi($LC2)
	lui	$5,%hi(__func__.41332)
	addiu	$4,$2,%lo($LC2)
	.set	noreorder
	.set	nomacro
	jal	printk
	addiu	$5,$5,%lo(__func__.41332)
	.set	macro
	.set	reorder

$LBE111 = .
$LBE121 = .
$LBE132 = .
	.loc 1 316 0
	.set	noreorder
	.set	nomacro
	j	$L101
	lw	$2,100($sp)
	.set	macro
	.set	reorder

$L64:
$LBB133 = .
$LBB122 = .
$LBB112 = .
	.loc 1 219 0
	move	$4,$21
	.set	noreorder
	.set	nomacro
	jal	rtl_skb_entail
	move	$5,$2
	.set	macro
	.set	reorder

	.loc 1 217 0
	li	$3,1			# 0x1
	sw	$3,112($sp)
$L62:
	.loc 1 226 0
	.set	noreorder
	.set	nomacro
	jal	rtl_skb_shared_info
	move	$4,$16
	.set	macro
	.set	reorder

	lbu	$23,0($2)
	.loc 1 228 0
	lw	$6,96($sp)
	move	$4,$16
	move	$5,$23
	.set	noreorder
	.set	nomacro
	jal	rtl_skb_can_coalesce
	move	$7,$18
	.set	macro
	.set	reorder

	.loc 1 229 0
	.set	noreorder
	.set	nomacro
	bne	$2,$0,$L66
	move	$4,$21
	.set	macro
	.set	reorder

	sltu	$2,$23,17
	bne	$2,$0,$L67
	.loc 1 232 0
	.set	noreorder
	.set	nomacro
	jal	rtl_tcp_mark_push
	move	$5,$16
	.set	macro
	.set	reorder

	j	$L61
$L84:
	.loc 1 242 0
	.set	noreorder
	.set	nomacro
	jal	rtl_skb_shared_info
	move	$4,$16
	.set	macro
	.set	reorder

	addiu	$3,$23,-1
	sll	$3,$3,3
	addu	$2,$2,$3
	lhu	$3,50($2)
	addu	$3,$17,$3
$LBE112 = .
$LBE122 = .
$LBE133 = .
	.set	noreorder
	.set	nomacro
	j	$L68
	sh	$3,50($2)
	.set	macro
	.set	reorder

$L85:
$LBB134 = .
$LBB123 = .
$LBB113 = .
	.loc 1 246 0
	.set	noreorder
	.set	nomacro
	jal	rtl_get_page
	lw	$4,96($sp)
	.set	macro
	.set	reorder

	.loc 1 248 0
	lw	$6,96($sp)
	sw	$17,16($sp)
	move	$4,$16
	move	$5,$23
	.set	noreorder
	.set	nomacro
	jal	rtl_skb_fill_page_desc
	move	$7,$18
	.set	macro
	.set	reorder

$L68:
	.loc 1 252 0
	move	$4,$16
	.set	noreorder
	.set	nomacro
	jal	rtl_add_skb_len_common
	move	$5,$17
	.set	macro
	.set	reorder

	.loc 1 254 0
	move	$4,$16
	.set	noreorder
	.set	nomacro
	jal	rtl_add_skb_data_len_common
	move	$5,$17
	.set	macro
	.set	reorder

	.loc 1 256 0
	move	$4,$16
	.set	noreorder
	.set	nomacro
	jal	rtl_add_skb_truesize_common
	move	$5,$17
	.set	macro
	.set	reorder

	.loc 1 258 0
	move	$5,$17
	.set	noreorder
	.set	nomacro
	jal	rtl_add_skb_sk_wmem_queued
	move	$4,$21
	.set	macro
	.set	reorder

	.loc 1 259 0
	lw	$2,96($21)
	.loc 1 261 0
	move	$4,$16
	.loc 1 259 0
	subu	$2,$2,$17
	.loc 1 261 0
	.set	noreorder
	.set	nomacro
	jal	rtl_set_tcp_skb_ip_summed
	sw	$2,96($21)
	.set	macro
	.set	reorder

	.loc 1 263 0
	move	$5,$17
	.set	noreorder
	.set	nomacro
	jal	rtl_add_tp_write_seq
	move	$4,$21
	.set	macro
	.set	reorder

	.loc 1 265 0
	.set	noreorder
	.set	nomacro
	jal	rtl_TCP_SKB_CB
	move	$4,$16
	.set	macro
	.set	reorder

	move	$4,$2
	.set	noreorder
	.set	nomacro
	jal	rtl_add_skb_cb_end_seq
	move	$5,$17
	.set	macro
	.set	reorder

	.loc 1 267 0
	.set	noreorder
	.set	nomacro
	jal	rtl_skb_shared_info
	move	$4,$16
	.set	macro
	.set	reorder

	.loc 1 269 0
	lw	$4,100($sp)
	.set	noreorder
	.set	nomacro
	bne	$4,$0,$L69
	sh	$0,4($2)
	.set	macro
	.set	reorder

	.loc 1 272 0
	.set	noreorder
	.set	nomacro
	jal	rtl_TCP_SKB_CB
	move	$4,$16
	.set	macro
	.set	reorder

	move	$4,$2
	.set	noreorder
	.set	nomacro
	jal	rtl_and_skb_cb_tcp_flags
	li	$5,-9			# 0xfffffffffffffff7
	.set	macro
	.set	reorder

$L69:
	.loc 1 274 0
	lw	$2,100($sp)
	.loc 1 276 0
	lw	$3,104($sp)
	.loc 1 277 0
	subu	$19,$19,$17
	.loc 1 274 0
	addu	$2,$2,$17
	.loc 1 276 0
	addiu	$3,$3,1
	.loc 1 274 0
	sw	$2,100($sp)
	.loc 1 275 0
	addu	$20,$20,$17
	.loc 1 277 0
	.set	noreorder
	.set	nomacro
	bne	$19,$0,$L70
	sw	$3,104($sp)
	.set	macro
	.set	reorder

	.loc 1 279 0
	lw	$3,4($fp)
	li	$2,2			# 0x2
	bne	$3,$2,$L71
	.loc 1 282 0
	.set	noreorder
	.set	nomacro
	jal	rtl_get_skb_len_common
	move	$4,$16
	.set	macro
	.set	reorder

	lw	$7,104($sp)
	lui	$4,%hi($LC3)
	lui	$5,%hi(__func__.41332)
	addiu	$4,$4,%lo($LC3)
	addiu	$5,$5,%lo(__func__.41332)
	.set	noreorder
	.set	nomacro
	jal	printk
	move	$6,$2
	.set	macro
	.set	reorder

$LBE113 = .
$LBE123 = .
$LBE134 = .
	.loc 1 349 0
	.set	noreorder
	.set	nomacro
	j	$L102
	lw	$3,100($sp)
	.set	macro
	.set	reorder

$L70:
$LBB135 = .
$LBB124 = .
$LBB114 = .
	.loc 1 288 0
	.set	noreorder
	.set	nomacro
	jal	rtl_get_skb_len_common
	move	$4,$16
	.set	macro
	.set	reorder

	lw	$3,92($sp)
	sltu	$2,$2,$3
	.set	noreorder
	.set	nomacro
	bne	$2,$0,$L60
	andi	$2,$22,0x1
	.set	macro
	.set	reorder

	.set	noreorder
	.set	nomacro
	bne	$2,$0,$L60
	lw	$4,112($sp)
	.set	macro
	.set	reorder

	.loc 1 294 0
	.set	noreorder
	.set	nomacro
	bne	$4,$0,$L73
	lw	$3,104($sp)
	.set	macro
	.set	reorder

	lw	$2,8($fp)
	sltu	$2,$3,$2
	bne	$2,$0,$L60
$L73:
	.loc 1 296 0
	.set	noreorder
	.set	nomacro
	jal	forced_push
	move	$4,$21
	.set	macro
	.set	reorder

	.set	noreorder
	.set	nomacro
	beq	$2,$0,$L74
	move	$4,$21
	.set	macro
	.set	reorder

	.loc 1 299 0
	.set	noreorder
	.set	nomacro
	jal	rtl_tcp_mark_push
	move	$5,$16
	.set	macro
	.set	reorder

	.loc 1 300 0
	lw	$5,108($sp)
	move	$4,$21
	.set	noreorder
	.set	nomacro
	jal	__tcp_push_pending_frames
	li	$6,4			# 0x4
	.set	macro
	.set	reorder

	.loc 1 307 0
	sw	$0,104($sp)
$LBE114 = .
$LBE124 = .
$LBE135 = .
	.loc 1 306 0
	.set	noreorder
	.set	nomacro
	j	$L60
	sw	$0,112($sp)
	.set	macro
	.set	reorder

$L74:
$LBB136 = .
$LBB125 = .
$LBB115 = .
	.loc 1 302 0
	jal	rtl_tcp_send_head
	.loc 1 307 0
	sw	$0,104($sp)
	.loc 1 302 0
	.set	noreorder
	.set	nomacro
	bne	$16,$2,$L60
	sw	$0,112($sp)
	.set	macro
	.set	reorder

	.loc 1 304 0
	lw	$5,108($sp)
	.set	noreorder
	.set	nomacro
	jal	tcp_push_one
	move	$4,$21
	.set	macro
	.set	reorder

	.loc 1 306 0
	lw	$4,104($sp)
$LBE115 = .
$LBE125 = .
$LBE136 = .
	.set	noreorder
	.set	nomacro
	j	$L60
	sw	$4,112($sp)
	.set	macro
	.set	reorder

$L63:
$LBB137 = .
$LBB126 = .
$LBB116 = .
	.loc 1 314 0
	jal	rtl_get_sk_socket
$LBB108 = .
$LBB109 = .
	.loc 3 76 0
	addiu	$2,$2,8
	.loc 3 93 0
	li	$3,-1			# 0xffffffffffffffff
$L75:
#APP
 # 93 "/home/extra_home/marklee/rtk_OpenWRT_BB/BB_v1407_branch_v25/v25_relase_source_test_0830/rtk_OpenWRT_v2.5_Branch_20160603/build_dir/target-mipsel_24kec_uClibc-0.9.33.2/linux-rtkmipsel_rtl8197f/linux-3.10.49/arch/mips/include/asm/bitops.h" 1
		ll	$4, 0($2)		# set_bit	
	ins	$4, $3, 2, 1			
	sc	$4, 0($2)				

 # 0 "" 2
	.loc 3 99 0
#NO_APP
	beq	$4,$0,$L75
$L65 = .
$LBE109 = .
$LBE108 = .
	.loc 1 316 0
	lw	$2,100($sp)
$L101:
	.set	noreorder
	.set	nomacro
	beq	$2,$0,$L108
	move	$4,$21
	.set	macro
	.set	reorder

	.loc 1 319 0
	lw	$5,116($sp)
	lw	$6,108($sp)
	.set	noreorder
	.set	nomacro
	jal	rtl_tcp_push
	li	$7,4			# 0x4
	.set	macro
	.set	reorder

	.loc 1 322 0
	move	$4,$21
$L108:
	.set	noreorder
	.set	nomacro
	jal	sk_stream_wait_memory
	addiu	$5,$sp,88
	.set	macro
	.set	reorder

	.set	noreorder
	.set	nomacro
	beq	$2,$0,$L77
	move	$16,$2
	.set	macro
	.set	reorder

	.loc 1 324 0
	lw	$3,4($fp)
	li	$2,2			# 0x2
	.set	noreorder
	.set	nomacro
	bne	$3,$2,$L78
	lui	$4,%hi($LC4)
	.set	macro
	.set	reorder

	.loc 1 325 0
	lui	$5,%hi(__func__.41332)
	addiu	$4,$4,%lo($LC4)
	addiu	$5,$5,%lo(__func__.41332)
	.set	noreorder
	.set	nomacro
	jal	printk
	move	$6,$16
	.set	macro
	.set	reorder

$LBE116 = .
$LBE126 = .
$LBE137 = .
	.loc 1 355 0
	.set	noreorder
	.set	nomacro
	j	$L103
	lw	$4,100($sp)
	.set	macro
	.set	reorder

$L77:
$LBB138 = .
$LBB127 = .
$LBB117 = .
	.loc 1 330 0
	move	$4,$21
	addiu	$5,$sp,92
	.set	noreorder
	.set	nomacro
	jal	tcp_send_mss
	move	$6,$22
	.set	macro
	.set	reorder

	sw	$2,108($sp)
	.loc 1 331 0
	lw	$2,8($fp)
	sltu	$3,$2,2
	.set	noreorder
	.set	nomacro
	bne	$3,$0,$L80
	sll	$2,$2,12
	.set	macro
	.set	reorder

	.loc 1 332 0
	addiu	$2,$2,-4096
$L80:
	.loc 1 336 0
	lw	$3,92($sp)
	slt	$3,$2,$3
	beq	$3,$0,$L81
	.loc 1 337 0
	sw	$2,92($sp)
$L81:
$LBB110 = .
	.loc 1 339 0
	jal	_cond_resched
$LBE110 = .
	.loc 1 341 0
	lw	$3,4($fp)
	li	$2,2			# 0x2
	.set	noreorder
	.set	nomacro
	bne	$3,$2,$L60
	lw	$7,92($sp)
	.set	macro
	.set	reorder

	.loc 1 343 0
	lw	$6,108($sp)
	lui	$4,%hi($LC5)
	lui	$5,%hi(__func__.41332)
	addiu	$4,$4,%lo($LC5)
	.set	noreorder
	.set	nomacro
	jal	printk
	addiu	$5,$5,%lo(__func__.41332)
	.set	macro
	.set	reorder

$L60:
$LBE117 = .
	.loc 1 190 0
	bne	$19,$0,$L82
$L71:
	.loc 1 349 0
	lw	$3,100($sp)
$L102:
$L109:
	.set	noreorder
	.set	nomacro
	beq	$3,$0,$L83
	move	$16,$0
	.set	macro
	.set	reorder

	.loc 1 351 0
	.set	noreorder
	.set	nomacro
	jal	rtl_get_tcp_sock_nonagle
	move	$4,$21
	.set	macro
	.set	reorder

	lw	$6,108($sp)
	move	$4,$21
	move	$5,$22
	.set	noreorder
	.set	nomacro
	jal	rtl_tcp_push
	move	$7,$2
	.set	macro
	.set	reorder

$LBE127 = .
$LBE138 = .
	.set	noreorder
	.set	nomacro
	j	$L83
	lw	$16,100($sp)
	.set	macro
	.set	reorder

$L78:
$LBB139 = .
$LBB128 = .
	.loc 1 355 0
	lw	$4,100($sp)
$L103:
	.set	noreorder
	.set	nomacro
	bne	$4,$0,$L109
	lw	$3,100($sp)
	.set	macro
	.set	reorder

$L49:
	.loc 1 358 0
	move	$6,$16
	move	$4,$21
	.set	noreorder
	.set	nomacro
	jal	sk_stream_error
	move	$5,$22
	.set	macro
	.set	reorder

	move	$16,$2
$L83:
$LBE128 = .
$LBE139 = .
	.loc 1 412 0
	.set	noreorder
	.set	nomacro
	jal	release_sock
	move	$4,$21
	.set	macro
	.set	reorder

	.loc 1 413 0
	.set	noreorder
	.set	nomacro
	j	$L104
	lw	$31,156($sp)
	.set	macro
	.set	reorder

$L66:
$LBB140 = .
$LBB129 = .
$LBB118 = .
	.loc 1 236 0
	.set	noreorder
	.set	nomacro
	jal	rtl_sk_wmem_schedule
	move	$5,$17
	.set	macro
	.set	reorder

	.set	noreorder
	.set	nomacro
	bne	$2,$0,$L84
	lw	$2,100($sp)
	.set	macro
	.set	reorder

	j	$L101
$L67:
	.set	noreorder
	.set	nomacro
	jal	rtl_sk_wmem_schedule
	move	$5,$17
	.set	macro
	.set	reorder

	.set	noreorder
	.set	nomacro
	bne	$2,$0,$L85
	lw	$2,100($sp)
	.set	macro
	.set	reorder

	j	$L101
$L99:
$LBE118 = .
$LBE129 = .
$LBE140 = .
	.loc 1 414 0
	lw	$31,156($sp)
$L104:
	move	$2,$16
	lw	$fp,152($sp)
	lw	$23,148($sp)
	lw	$22,144($sp)
	lw	$21,140($sp)
	lw	$20,136($sp)
	lw	$19,132($sp)
	lw	$18,128($sp)
	lw	$17,124($sp)
	lw	$16,120($sp)
	.set	noreorder
	.set	nomacro
	j	$31
	addiu	$sp,$sp,160
	.set	macro
	.set	reorder

	.cfi_def_cfa_offset 0
	.cfi_restore 16
	.cfi_restore 17
	.cfi_restore 18
	.cfi_restore 19
	.cfi_restore 20
	.cfi_restore 21
	.cfi_restore 22
	.cfi_restore 23
	.cfi_restore 30
	.cfi_restore 31
	.end	tcp_sendpages
	.cfi_endproc
$LFE3382:
	.size	tcp_sendpages, .-tcp_sendpages
	.align	2
	.globl	inet_sendpages
$LFB3383 = .
	.loc 1 418 0
	.cfi_startproc
	.set	nomips16
	.ent	inet_sendpages
	.type	inet_sendpages, @function
inet_sendpages:
	.frame	$sp,40,$31		# vars= 0, regs= 6/0, args= 16, gp= 0
	.mask	0x801f0000,-4
	.fmask	0x00000000,0
	.set	noreorder
	.set	nomacro
	addiu	$sp,$sp,-40
	.cfi_def_cfa_offset 40
	sw	$20,32($sp)
	sw	$19,28($sp)
	sw	$18,24($sp)
	sw	$17,20($sp)
	sw	$31,36($sp)
	sw	$16,16($sp)
	.cfi_offset 20, -8
	.cfi_offset 19, -12
	.cfi_offset 18, -16
	.cfi_offset 17, -20
	.cfi_offset 31, -4
	.cfi_offset 16, -24
	.loc 1 419 0
	lw	$16,20($4)
	.loc 1 418 0
	move	$17,$5
	move	$18,$6
	.loc 1 422 0
	move	$4,$16
	.loc 1 418 0
	move	$19,$7
	.loc 1 422 0
	jal	rtl_sock_rps_record_flow
	lw	$20,56($sp)

	.loc 1 426 0
	jal	rtl_get_sk_inet_num
	move	$4,$16

	beq	$2,$0,$L111
	nop

$L112:
	.loc 1 430 0
	sw	$20,56($sp)
	.loc 1 431 0
	lw	$31,36($sp)
	lw	$20,32($sp)
	.loc 1 430 0
	move	$4,$16
	move	$5,$17
	.loc 1 431 0
	lw	$16,16($sp)
	lw	$17,20($sp)
	.loc 1 430 0
	move	$6,$18
	move	$7,$19
	.loc 1 431 0
	lw	$18,24($sp)
	lw	$19,28($sp)
	.cfi_remember_state
	.cfi_restore 16
	.cfi_restore 17
	.cfi_restore 18
	.cfi_restore 19
	.cfi_restore 20
	.cfi_restore 31
	.loc 1 430 0
	j	tcp_sendpages
	addiu	$sp,$sp,40

	.cfi_def_cfa_offset 0
$L111:
	.cfi_restore_state
	.loc 1 426 0 discriminator 1
	jal	rtl_get_sk_no_autobind
	move	$4,$16

	bne	$2,$0,$L112
	nop

	.loc 1 427 0 discriminator 1
	jal	inet_autobind
	move	$4,$16

	.loc 1 426 0 discriminator 1
	beq	$2,$0,$L112
	lw	$31,36($sp)

	.loc 1 431 0
	lw	$20,32($sp)
	lw	$19,28($sp)
	lw	$18,24($sp)
	lw	$17,20($sp)
	lw	$16,16($sp)
	li	$2,-11			# 0xfffffffffffffff5
	j	$31
	addiu	$sp,$sp,40

	.cfi_def_cfa_offset 0
	.cfi_restore 16
	.cfi_restore 17
	.cfi_restore 18
	.cfi_restore 19
	.cfi_restore 20
	.cfi_restore 31
	.set	macro
	.set	reorder
	.end	inet_sendpages
	.cfi_endproc
$LFE3383:
	.size	inet_sendpages, .-inet_sendpages
	.align	2
	.globl	sock_sendpages
$LFB3385 = .
	.loc 1 443 0
	.cfi_startproc
	.set	nomips16
	.ent	sock_sendpages
	.type	sock_sendpages, @function
sock_sendpages:
	.frame	$sp,48,$31		# vars= 0, regs= 7/0, args= 16, gp= 0
	.mask	0x803f0000,-4
	.fmask	0x00000000,0
	.set	noreorder
	.set	nomacro
	addiu	$sp,$sp,-48
	.cfi_def_cfa_offset 48
	sw	$21,40($sp)
	.cfi_offset 21, -8
	move	$21,$4
	sw	$31,44($sp)
	sw	$20,36($sp)
	sw	$19,32($sp)
	.cfi_offset 31, -4
	.cfi_offset 20, -12
	.cfi_offset 19, -16
	lw	$20,68($sp)
	sw	$18,28($sp)
	sw	$17,24($sp)
	.cfi_offset 18, -20
	.cfi_offset 17, -24
	move	$18,$5
	move	$17,$6
	sw	$16,20($sp)
	.cfi_offset 16, -28
	.loc 1 448 0
	jal	rtl_get_file_private_data
	move	$16,$7

	.loc 1 450 0
	move	$4,$21
	jal	rtl_get_file_flags
	move	$19,$2

	andi	$2,$2,0x80
	li	$3,64			# 0x40
	movz	$3,$0,$2
	.loc 1 452 0
	ori	$2,$3,0x8000
	movn	$3,$2,$20
	.loc 1 455 0
	lw	$31,44($sp)
	lw	$21,40($sp)
	lw	$20,36($sp)
$LBB141 = .
$LBB142 = .
	.loc 1 437 0
	move	$4,$19
	move	$5,$18
$LBE142 = .
$LBE141 = .
	.loc 1 455 0
	lw	$19,32($sp)
	lw	$18,28($sp)
$LBB145 = .
$LBB143 = .
	.loc 1 437 0
	move	$6,$17
	move	$7,$16
$LBE143 = .
$LBE145 = .
	.loc 1 455 0
	lw	$17,24($sp)
	lw	$16,20($sp)
$LBB146 = .
$LBB144 = .
	.loc 1 437 0
	sw	$3,64($sp)
	.cfi_restore 16
	.cfi_restore 17
	.cfi_restore 18
	.cfi_restore 19
	.cfi_restore 20
	.cfi_restore 21
	.cfi_restore 31
	j	inet_sendpages
	addiu	$sp,$sp,48

	.cfi_def_cfa_offset 0
$LBE144 = .
$LBE146 = .
	.set	macro
	.set	reorder
	.end	sock_sendpages
	.cfi_endproc
$LFE3385:
	.size	sock_sendpages, .-sock_sendpages
	.section	.rodata.str1.4
	.align	2
$LC6:
	.ascii	"\0013%s confirm err=%d\012\000"
	.text
	.align	2
	.globl	rtl_pipe_to_sendpages
$LFB3386 = .
	.loc 1 459 0
	.cfi_startproc
	.set	nomips16
	.ent	rtl_pipe_to_sendpages
	.type	rtl_pipe_to_sendpages, @function
rtl_pipe_to_sendpages:
	.frame	$sp,64,$31		# vars= 8, regs= 8/0, args= 24, gp= 0
	.mask	0x807f0000,-4
	.fmask	0x00000000,0
	.set	noreorder
	.set	nomacro
	addiu	$sp,$sp,-64
	.cfi_def_cfa_offset 64
	sw	$20,48($sp)
	sw	$19,44($sp)
	sw	$18,40($sp)
	sw	$17,36($sp)
	sw	$16,32($sp)
	sw	$31,60($sp)
	sw	$22,56($sp)
	sw	$21,52($sp)
	.cfi_offset 20, -16
	.cfi_offset 19, -20
	.cfi_offset 18, -24
	.cfi_offset 17, -28
	.cfi_offset 16, -32
	.cfi_offset 31, -4
	.cfi_offset 22, -8
	.cfi_offset 21, -12
	.loc 1 462 0
	lw	$2,16($6)
	lw	$3,20($6)
	.loc 1 459 0
	move	$19,$6
	move	$20,$5
	move	$18,$4
	.loc 1 461 0
	lw	$21,12($6)
	.loc 1 462 0
	sw	$2,24($sp)
	sw	$3,28($sp)
	.loc 1 460 0
	move	$16,$5
	.loc 1 466 0
	j	$L125
	move	$17,$0

$L128:
	.loc 1 467 0
	lw	$2,12($16)
	.loc 1 466 0
	addiu	$17,$17,1
	.loc 1 467 0
	lw	$2,12($2)
	jalr	$2
	addiu	$16,$16,24

	.loc 1 468 0
	beq	$2,$0,$L125
	move	$22,$2

	.loc 1 469 0
	lui	$4,%hi($LC6)
	lui	$5,%hi(__func__.41410)
	addiu	$4,$4,%lo($LC6)
	addiu	$5,$5,%lo(__func__.41410)
	jal	printk
	move	$6,$2

	.loc 1 470 0
	j	$L127
	move	$2,$22

$L125:
	.loc 1 466 0 discriminator 1
	lw	$2,20($18)
	.loc 1 467 0 discriminator 1
	move	$5,$16
	.loc 1 466 0 discriminator 1
	sltu	$2,$17,$2
	bne	$2,$0,$L128
	move	$4,$18

	.loc 1 476 0
	lw	$7,4($19)
	.loc 1 477 0
	lw	$2,8($19)
	.loc 1 478 0
	addiu	$3,$sp,24
	.loc 1 476 0
	sw	$7,0($19)
	.loc 1 478 0
	lw	$6,4($20)
	.loc 1 477 0
	ext	$2,$2,2,1
	.loc 1 478 0
	sw	$3,16($sp)
	sw	$2,20($sp)
	move	$4,$21
	jal	sock_sendpages
	move	$5,$18

	.loc 1 480 0
	bltz	$2,$L127
	sra	$8,$2,31

	.loc 1 484 0
	lw	$4,16($19)
	lw	$9,20($19)
	.loc 1 482 0
	lw	$7,28($19)
	.loc 1 483 0
	lw	$6,0($19)
	.loc 1 485 0
	lw	$5,4($19)
	.loc 1 484 0
	addu	$3,$4,$2
	sltu	$4,$3,$4
	addu	$8,$9,$8
	.loc 1 482 0
	addu	$7,$7,$2
	.loc 1 483 0
	subu	$6,$6,$2
	.loc 1 484 0
	addu	$4,$4,$8
	.loc 1 485 0
	subu	$5,$5,$2
	.loc 1 482 0
	sw	$7,28($19)
	.loc 1 483 0
	sw	$6,0($19)
	.loc 1 484 0
	sw	$3,16($19)
	sw	$4,20($19)
	.loc 1 485 0
	sw	$5,4($19)
$L127:
	.loc 1 488 0
	lw	$31,60($sp)
	lw	$22,56($sp)
	lw	$21,52($sp)
	lw	$20,48($sp)
	lw	$19,44($sp)
	lw	$18,40($sp)
	lw	$17,36($sp)
	lw	$16,32($sp)
	j	$31
	addiu	$sp,$sp,64

	.cfi_def_cfa_offset 0
	.cfi_restore 16
	.cfi_restore 17
	.cfi_restore 18
	.cfi_restore 19
	.cfi_restore 20
	.cfi_restore 21
	.cfi_restore 22
	.cfi_restore 31
	.set	macro
	.set	reorder
	.end	rtl_pipe_to_sendpages
	.cfi_endproc
$LFE3386:
	.size	rtl_pipe_to_sendpages, .-rtl_pipe_to_sendpages
	.align	2
	.globl	balance_dirty_pages_ratelimited_nr
$LFB3388 = .
	.loc 1 526 0
	.cfi_startproc
	.set	nomips16
	.ent	balance_dirty_pages_ratelimited_nr
	.type	balance_dirty_pages_ratelimited_nr, @function
balance_dirty_pages_ratelimited_nr:
	.frame	$sp,0,$31		# vars= 0, regs= 0/0, args= 0, gp= 0
	.mask	0x00000000,0
	.fmask	0x00000000,0
	.loc 1 531 0
	lw	$2,60($4)
	.loc 1 530 0
	lui	$6,%hi(ratelimit_pages)
	lw	$3,%lo(ratelimit_pages)($6)
	.loc 1 531 0
	lw	$7,112($2)
	.loc 1 530 0
	li	$2,8			# 0x8
	movz	$2,$3,$7
	.loc 1 538 0
	.loc 1 540 0
	lui	$3,%hi(bdp_ratelimits)
	lw	$7,%lo(bdp_ratelimits)($3)
	addu	$5,$5,$7
	.loc 1 541 0
	sltu	$2,$5,$2
	.set	noreorder
	.set	nomacro
	bne	$2,$0,$L133
	sw	$5,%lo(bdp_ratelimits)($3)
	.set	macro
	.set	reorder

$LBB147 = .
$LBB148 = .
	.loc 1 502 0
	lw	$2,%lo(ratelimit_pages)($6)
$LBE148 = .
$LBE147 = .
	.loc 1 543 0
	sw	$0,%lo(bdp_ratelimits)($3)
	sltu	$3,$5,$2
	movn	$5,$2,$3
	.loc 1 544 0
$LBB150 = .
$LBB149 = .
	.loc 1 505 0
	srl	$2,$5,1
$LBE149 = .
$LBE150 = .
	.loc 1 545 0
	.set	noreorder
	.set	nomacro
	j	balance_dirty_pages
	addu	$5,$2,$5
	.set	macro
	.set	reorder

$L133:
	.loc 1 548 0
	j	$31
	.end	balance_dirty_pages_ratelimited_nr
	.cfi_endproc
$LFE3388:
	.size	balance_dirty_pages_ratelimited_nr, .-balance_dirty_pages_ratelimited_nr
	.section	.rodata.str1.4
	.align	2
$LC7:
	.ascii	"%s: %d: %s:count(%d) exceed maxinum\012\000"
	.align	2
$LC8:
	.ascii	"/home/extra_home/marklee/rtk_OpenWRT_BB/BB_v1407_branch_"
	.ascii	"v25/v25_relase_source_test_0830/rtk_OpenWRT_v2.5_Branch_"
	.ascii	"20160603/build_dir/target-mipsel_24kec_uClibc-0.9.33.2/l"
	.ascii	"inux-rtkmipsel_rtl8197f/rtl_sendfile-0.1/reverse_sendfil"
	.ascii	"e.c\000"
	.align	2
$LC9:
	.ascii	"%s: %d: %s: write_end fail,ret = %d\012\000"
	.text
	.align	2
	.globl	do_splice_from_socket
$LFB3389 = .
	.loc 1 556 0
	.cfi_startproc
	.set	nomips16
	.ent	do_splice_from_socket
	.type	do_splice_from_socket, @function
do_splice_from_socket:
	.frame	$sp,672,$31		# vars= 600, regs= 10/0, args= 32, gp= 0
	.mask	0xc0ff0000,-4
	.fmask	0x00000000,0
	addiu	$sp,$sp,-672
	.cfi_def_cfa_offset 672
	sw	$fp,664($sp)
	sw	$19,644($sp)
	sw	$6,680($sp)
	sw	$7,684($sp)
	sw	$31,668($sp)
	sw	$23,660($sp)
	sw	$22,656($sp)
	sw	$21,652($sp)
	sw	$20,648($sp)
	sw	$18,640($sp)
	sw	$17,636($sp)
	sw	$16,632($sp)
	.cfi_offset 30, -8
	.cfi_offset 19, -28
	.cfi_offset 31, -4
	.cfi_offset 23, -12
	.cfi_offset 22, -16
	.cfi_offset 21, -20
	.cfi_offset 20, -24
	.cfi_offset 18, -32
	.cfi_offset 17, -36
	.cfi_offset 16, -40
	.loc 1 556 0
	move	$fp,$4
	.loc 1 558 0
	.set	noreorder
	.set	nomacro
	jal	rtl_get_file_mapping
	sw	$5,676($sp)
	.set	macro
	.set	reorder

$LBB151 = .
$LBB152 = .
	.loc 1 571 0
	lw	$3,680($sp)
$LBE152 = .
$LBE151 = .
	.loc 1 558 0
	move	$19,$2
	.loc 1 559 0
	lw	$7,0($19)
$LBB155 = .
$LBB153 = .
	.loc 1 571 0
	addiu	$2,$3,8
	or	$2,$2,$3
	sw	$2,628($sp)
	lw	$6,628($sp)
	lw	$2,24($28)
	and	$2,$6,$2
$LBE153 = .
	.set	noreorder
	.set	nomacro
	bne	$2,$0,$L136
	sw	$7,624($sp)
	.set	macro
	.set	reorder

$LBB154 = .
	.loc 1 571 0 is_stmt 0 discriminator 1
	addiu	$4,$sp,608
	move	$5,$3
	li	$6,8			# 0x8
#APP
 # 571 "/home/extra_home/marklee/rtk_OpenWRT_BB/BB_v1407_branch_v25/v25_relase_source_test_0830/rtk_OpenWRT_v2.5_Branch_20160603/build_dir/target-mipsel_24kec_uClibc-0.9.33.2/linux-rtkmipsel_rtl8197f/rtl_sendfile-0.1/reverse_sendfile.c" 1
	.set	noreorder
	.set	noat
	la	$1, __copy_user
	jalr	$1
	.set	at
	.set	noat
	addu	$1, $5, $6
	.set	at
	.set	reorder
 # 0 "" 2
#NO_APP
$LBE154 = .
$LBE155 = .
	.set	noreorder
	.set	nomacro
	bne	$6,$0,$L136
	li	$3,65536			# 0x10000
	.set	macro
	.set	reorder

	.loc 1 574 0 is_stmt 1
	lw	$2,684($sp)
	addiu	$3,$3,1
	sltu	$3,$2,$3
	.set	noreorder
	.set	nomacro
	bne	$3,$0,$L137
	lui	$4,%hi($LC7)
	.set	macro
	.set	reorder

	.loc 1 575 0
	lui	$5,%hi($LC8)
	lui	$7,%hi(__func__.41460)
	sw	$2,16($sp)
	addiu	$4,$4,%lo($LC7)
	addiu	$5,$5,%lo($LC8)
	li	$6,575			# 0x23f
	.set	noreorder
	.set	nomacro
	jal	printk
	addiu	$7,$7,%lo(__func__.41460)
	.set	macro
	.set	reorder

	.loc 1 576 0
	.set	noreorder
	.set	nomacro
	j	$L156
	li	$2,-22			# 0xffffffffffffffea
	.set	macro
	.set	reorder

$L137:
	.loc 1 579 0
	.set	noreorder
	.set	nomacro
	jal	rtl_inode_mutex_lock
	lw	$4,624($sp)
	.set	macro
	.set	reorder

	.loc 1 582 0
	.set	noreorder
	.set	nomacro
	jal	rtl_get_inode_sb
	lw	$4,624($sp)
	.set	macro
	.set	reorder

	move	$4,$2
	.set	noreorder
	.set	nomacro
	jal	rtl_vfs_check_frozen
	li	$5,1			# 0x1
	.set	macro
	.set	reorder

	.loc 1 585 0
	lw	$3,60($19)
	lw	$2,0($28)
	.loc 1 588 0
	lw	$7,624($sp)
	move	$4,$fp
	addiu	$5,$sp,608
	.loc 1 585 0
	sw	$3,996($2)
	.loc 1 588 0
	.set	noreorder
	.set	nomacro
	jal	rtl_generic_write_checks
	addiu	$6,$sp,684
	.set	macro
	.set	reorder

	.loc 1 589 0
	.set	noreorder
	.set	nomacro
	bne	$2,$0,$L139
	move	$21,$2
	.set	macro
	.set	reorder

	.loc 1 589 0 is_stmt 0 discriminator 1
	lw	$2,684($sp)
	beq	$2,$0,$L152
	.loc 1 592 0 is_stmt 1
	.set	noreorder
	.set	nomacro
	jal	file_remove_suid
	move	$4,$fp
	.set	macro
	.set	reorder

	.loc 1 593 0
	.set	noreorder
	.set	nomacro
	jal	file_update_time
	move	$4,$fp
	.set	macro
	.set	reorder

	.loc 1 595 0
	lw	$18,684($sp)
	lw	$6,608($sp)
	lw	$7,612($sp)
	addiu	$20,$sp,440
	addiu	$16,$sp,48
	.loc 1 564 0
	move	$23,$0
$L146:
$LBB156 = .
	.loc 1 602 0
	andi	$22,$6,0xfff
	.loc 1 603 0
	li	$3,4096			# 0x1000
	subu	$2,$3,$22
	sltu	$17,$18,$2
	movn	$2,$18,$17
	.loc 1 607 0
	lw	$3,52($19)
	move	$17,$2
	sw	$2,16($sp)
	li	$2,1			# 0x1
	sw	$2,20($sp)
	addiu	$2,$sp,616
	sw	$2,24($sp)
	addiu	$2,$sp,576
	sw	$2,28($sp)
	lw	$2,20($3)
	move	$4,$fp
	.set	noreorder
	.set	nomacro
	jalr	$2
	move	$5,$19
	.set	macro
	.set	reorder

	move	$21,$2
	.loc 1 609 0
	.set	noreorder
	.set	nomacro
	beq	$2,$0,$L141
	subu	$18,$18,$17
	.set	macro
	.set	reorder

	addiu	$16,$sp,48
$LBE156 = .
	.set	noreorder
	.set	nomacro
	j	$L142
	move	$17,$0
	.set	macro
	.set	reorder

$L143:
$LBB169 = .
	.loc 1 615 0 discriminator 2
	lw	$2,0($16)
	lw	$9,-16($16)
	lw	$8,4($16)
	lw	$3,52($19)
	lw	$6,-8($16)
	lw	$7,-4($16)
	sw	$2,16($sp)
	sw	$2,20($sp)
	sw	$9,24($sp)
	sw	$8,28($sp)
	lw	$2,24($3)
	.loc 1 613 0 discriminator 2
	addiu	$17,$17,1
	.loc 1 615 0 discriminator 2
	.set	noreorder
	.set	nomacro
	jalr	$2
	addiu	$16,$16,24
	.set	macro
	.set	reorder

$L142:
	.loc 1 613 0 discriminator 1
	slt	$2,$17,$23
	.loc 1 615 0 discriminator 1
	move	$4,$fp
	.loc 1 613 0 discriminator 1
	.set	noreorder
	.set	nomacro
	bne	$2,$0,$L143
	move	$5,$19
	.set	macro
	.set	reorder

$LBE169 = .
	.loc 1 680 0
	.set	noreorder
	.set	nomacro
	j	$L158
	lw	$2,0($28)
	.set	macro
	.set	reorder

$L141:
$LBB170 = .
$LBB157 = .
$LBB158 = .
$LBB159 = .
	.file 4 "include/linux/mm.h"
	.loc 4 771 0
	lui	$6,%hi(mem_map)
$LBE159 = .
$LBE158 = .
$LBE157 = .
	.loc 1 620 0
	lw	$4,616($sp)
$LBB166 = .
$LBB163 = .
$LBB160 = .
	.loc 4 771 0
	lw	$5,%lo(mem_map)($6)
$LBE160 = .
$LBE163 = .
$LBE166 = .
	.loc 1 621 0
	lw	$2,608($sp)
	lw	$3,612($sp)
$LBB167 = .
$LBB164 = .
$LBB161 = .
	.loc 4 771 0
	subu	$5,$4,$5
	sra	$5,$5,5
$LBE161 = .
$LBE164 = .
$LBE167 = .
	.loc 1 628 0
	addu	$6,$2,$17
$LBB168 = .
$LBB165 = .
$LBB162 = .
	.loc 4 771 0
	li	$7,-2147483648			# 0xffffffff80000000
	sll	$5,$5,12
	addu	$5,$5,$7
$LBE162 = .
$LBE165 = .
$LBE168 = .
	.loc 1 621 0
	sw	$2,-8($16)
	.loc 1 628 0
	sltu	$7,$6,$2
	.loc 1 623 0
	lw	$2,576($sp)
	.loc 1 628 0
	addu	$7,$7,$3
	.loc 1 624 0
	addu	$22,$5,$22
	.loc 1 620 0
	sw	$4,-16($16)
	.loc 1 621 0
	sw	$3,-4($16)
	.loc 1 622 0
	sw	$17,0($16)
	.loc 1 623 0
	sw	$2,4($16)
	.loc 1 624 0
	sw	$22,0($20)
	.loc 1 625 0
	sw	$17,4($20)
	.loc 1 626 0
	addiu	$23,$23,1
	.loc 1 628 0
	sw	$6,608($sp)
	sw	$7,612($sp)
	addiu	$16,$16,24
$LBE170 = .
	.loc 1 629 0
	.set	noreorder
	.set	nomacro
	bne	$18,$0,$L146
	addiu	$20,$20,8
	.set	macro
	.set	reorder

	.loc 1 640 0
	lw	$4,676($sp)
	.loc 1 634 0
	addiu	$2,$sp,440
	sw	$2,584($sp)
	.loc 1 638 0
	li	$2,65536			# 0x10000
	.loc 1 635 0
	sw	$23,588($sp)
	.loc 1 638 0
	sw	$2,600($sp)
	.loc 1 632 0
	sw	$0,576($sp)
	.loc 1 633 0
	sw	$0,580($sp)
	.loc 1 636 0
	sw	$0,592($sp)
	.loc 1 640 0
	.set	noreorder
	.set	nomacro
	jal	rtl_get_sk_rcvtimeo
	sw	$0,596($sp)
	.set	macro
	.set	reorder

	.loc 1 642 0
	lw	$4,676($sp)
	li	$5,300			# 0x12c
	.set	noreorder
	.set	nomacro
	jal	rtl_set_sk_rcvtimeo
	move	$16,$2
	.set	macro
	.set	reorder

	.loc 1 644 0
	lw	$2,684($sp)
	lw	$4,676($sp)
	addiu	$5,$sp,576
	sw	$2,16($sp)
	li	$2,131072			# 0x20000
	addiu	$2,$2,256
	sw	$2,20($sp)
	addiu	$6,$sp,440
	.set	noreorder
	.set	nomacro
	jal	kernel_recvmsg
	move	$7,$23
	.set	macro
	.set	reorder

	.loc 1 647 0
	lw	$4,676($sp)
	.loc 1 644 0
	move	$21,$2
	.loc 1 647 0
	.set	noreorder
	.set	nomacro
	jal	rtl_set_sk_rcvtimeo
	move	$5,$16
	.set	macro
	.set	reorder

	.loc 1 648 0
	.set	noreorder
	.set	nomacro
	bgez	$21,$L147
	lw	$3,608($sp)
	.set	macro
	.set	reorder

	addiu	$16,$sp,48
	move	$17,$0
$L148:
	.loc 1 653 0 discriminator 2
	lw	$2,0($16)
	lw	$5,-16($16)
	lw	$4,4($16)
	lw	$3,52($19)
	lw	$6,-8($16)
	lw	$7,-4($16)
	sw	$5,24($sp)
	sw	$4,28($sp)
	sw	$2,16($sp)
	sw	$2,20($sp)
	lw	$2,24($3)
	move	$4,$fp
	move	$5,$19
	.set	noreorder
	.set	nomacro
	jalr	$2
	addiu	$17,$17,1
	.set	macro
	.set	reorder

	.loc 1 651 0 discriminator 2
	slt	$2,$17,$23
	.set	noreorder
	.set	nomacro
	bne	$2,$0,$L148
	addiu	$16,$16,24
	.set	macro
	.set	reorder

	.loc 1 680 0
	.set	noreorder
	.set	nomacro
	j	$L158
	lw	$2,0($28)
	.set	macro
	.set	reorder

$L147:
	.loc 1 662 0
	lw	$2,684($sp)
	lw	$6,612($sp)
	sra	$5,$21,31
	subu	$2,$3,$2
	sltu	$4,$3,$2
	subu	$4,$6,$4
	addu	$3,$2,$21
	sltu	$2,$3,$2
	addu	$4,$4,$5
	addu	$2,$2,$4
	.loc 1 673 0
	lui	$18,%hi($LC9)
	lui	$20,%hi($LC8)
	.loc 1 663 0
	sw	$21,684($sp)
	.loc 1 662 0
	sw	$3,608($sp)
	sw	$2,612($sp)
	.loc 1 663 0
	addiu	$16,$sp,48
	.loc 1 666 0
	move	$17,$0
	.loc 1 673 0
	addiu	$18,$18,%lo($LC9)
	addiu	$20,$20,%lo($LC8)
	lui	$21,%hi(__func__.41460)
$L151:
	.loc 1 669 0
	lw	$2,0($16)
	lw	$5,-16($16)
	lw	$4,4($16)
	lw	$3,52($19)
	lw	$6,-8($16)
	lw	$7,-4($16)
	sw	$5,24($sp)
	sw	$4,28($sp)
	sw	$2,16($sp)
	sw	$2,20($sp)
	lw	$2,24($3)
	move	$4,$fp
	move	$5,$19
	.set	noreorder
	.set	nomacro
	jalr	$2
	addiu	$17,$17,1
	.set	macro
	.set	reorder

	.loc 1 672 0
	.set	noreorder
	.set	nomacro
	bgez	$2,$L149
	move	$4,$18
	.set	macro
	.set	reorder

	.loc 1 673 0
	sw	$2,16($sp)
	move	$5,$20
	li	$6,673			# 0x2a1
	.set	noreorder
	.set	nomacro
	jal	printk
	addiu	$7,$21,%lo(__func__.41460)
	.set	macro
	.set	reorder

$L149:
	.loc 1 666 0
	slt	$2,$17,$23
	.set	noreorder
	.set	nomacro
	bne	$2,$0,$L151
	addiu	$16,$16,24
	.set	macro
	.set	reorder

	.loc 1 676 0
	move	$4,$19
	.set	noreorder
	.set	nomacro
	jal	balance_dirty_pages_ratelimited_nr
	move	$5,$23
	.set	macro
	.set	reorder

$LBB171 = .
$LBB172 = .
	.loc 1 677 0
	lw	$2,24($28)
	lw	$3,628($sp)
	and	$2,$3,$2
$LBE172 = .
	.set	noreorder
	.set	nomacro
	bne	$2,$0,$L152
	lw	$4,680($sp)
	.set	macro
	.set	reorder

$LBB173 = .
	.loc 1 677 0 is_stmt 0 discriminator 1
	addiu	$5,$sp,608
	li	$6,8			# 0x8
#APP
 # 677 "/home/extra_home/marklee/rtk_OpenWRT_BB/BB_v1407_branch_v25/v25_relase_source_test_0830/rtk_OpenWRT_v2.5_Branch_20160603/build_dir/target-mipsel_24kec_uClibc-0.9.33.2/linux-rtkmipsel_rtl8197f/rtl_sendfile-0.1/reverse_sendfile.c" 1
	.set	noat
	la	$1, __copy_user
	jalr	$1
	.set	at
	
 # 0 "" 2
#NO_APP
$LBE173 = .
$LBE171 = .
	.loc 1 680 0 is_stmt 1 discriminator 1
	.set	noreorder
	.set	nomacro
	j	$L159
	lw	$2,0($28)
	.set	macro
	.set	reorder

$L136:
	.loc 1 572 0
	.set	noreorder
	.set	nomacro
	j	$L156
	li	$2,-14			# 0xfffffffffffffff2
	.set	macro
	.set	reorder

$L152:
	.loc 1 680 0
	lw	$2,0($28)
$L159:
	.loc 1 682 0
	lw	$4,624($sp)
	.set	noreorder
	.set	nomacro
	jal	rtl_inode_mutex_unlock
	sw	$0,996($2)
	.set	macro
	.set	reorder

	.loc 1 688 0
	.set	noreorder
	.set	nomacro
	j	$L156
	lw	$2,684($sp)
	.set	macro
	.set	reorder

$L139:
	.loc 1 680 0
	lw	$2,0($28)
$L158:
	.loc 1 682 0
	lw	$4,624($sp)
	.set	noreorder
	.set	nomacro
	jal	rtl_inode_mutex_unlock
	sw	$0,996($2)
	.set	macro
	.set	reorder

	move	$2,$21
$L156:
	.loc 1 689 0
	lw	$31,668($sp)
	lw	$fp,664($sp)
	lw	$23,660($sp)
	lw	$22,656($sp)
	lw	$21,652($sp)
	lw	$20,648($sp)
	lw	$19,644($sp)
	lw	$18,640($sp)
	lw	$17,636($sp)
	lw	$16,632($sp)
	.set	noreorder
	.set	nomacro
	j	$31
	addiu	$sp,$sp,672
	.set	macro
	.set	reorder

	.cfi_def_cfa_offset 0
	.cfi_restore 16
	.cfi_restore 17
	.cfi_restore 18
	.cfi_restore 19
	.cfi_restore 20
	.cfi_restore 21
	.cfi_restore 22
	.cfi_restore 23
	.cfi_restore 30
	.cfi_restore 31
	.end	do_splice_from_socket
	.cfi_endproc
$LFE3389:
	.size	do_splice_from_socket, .-do_splice_from_socket
	.section	.rodata.str1.4
	.align	2
$LC10:
	.ascii	"ufsd\000"
	.align	2
$LC11:
	.ascii	"fuseblk\000"
	.align	2
$LC12:
	.ascii	"[%s][%d]: Trap %s filesystem\012\000"
	.text
	.align	2
	.globl	rtl_splice
$LFB3390 = .
	.loc 1 692 0
	.cfi_startproc
	.set	nomips16
	.ent	rtl_splice
	.type	rtl_splice, @function
rtl_splice:
	.frame	$sp,48,$31		# vars= 8, regs= 6/0, args= 16, gp= 0
	.mask	0x801f0000,-4
	.fmask	0x00000000,0
	addiu	$sp,$sp,-48
	.cfi_def_cfa_offset 48
	.loc 1 701 0
	li	$2,-9			# 0xfffffffffffffff7
	.loc 1 692 0
	sw	$19,36($sp)
	.cfi_offset 19, -12
	move	$19,$5
	.loc 1 702 0
	addiu	$5,$sp,16
	.loc 1 692 0
	sw	$18,32($sp)
	sw	$17,28($sp)
	sw	$16,24($sp)
	sw	$31,44($sp)
	sw	$20,40($sp)
	.cfi_offset 18, -16
	.cfi_offset 17, -20
	.cfi_offset 16, -24
	.cfi_offset 31, -4
	.cfi_offset 20, -8
	.loc 1 692 0
	move	$17,$6
	move	$18,$7
	.loc 1 702 0
	.set	noreorder
	.set	nomacro
	jal	sockfd_lookup
	sw	$2,16($sp)
	.set	macro
	.set	reorder

	.loc 1 703 0
	.set	noreorder
	.set	nomacro
	beq	$2,$0,$L161
	move	$16,$2
	.set	macro
	.set	reorder

	.loc 1 705 0
	lw	$2,20($2)
	.set	noreorder
	.set	nomacro
	beq	$2,$0,$L167
	move	$4,$17
	.set	macro
	.set	reorder

	.loc 1 708 0
	.set	noreorder
	.set	nomacro
	jal	fget_light
	addiu	$5,$sp,20
	.set	macro
	.set	reorder

	.loc 1 709 0
	.set	noreorder
	.set	nomacro
	beq	$2,$0,$L167
	move	$17,$2
	.set	macro
	.set	reorder

	.loc 1 712 0
	.set	noreorder
	.set	nomacro
	jal	rtl_get_file_mode
	move	$4,$2
	.set	macro
	.set	reorder

	andi	$2,$2,0x2
	.set	noreorder
	.set	nomacro
	beq	$2,$0,$L187
	lw	$2,20($sp)
	.set	macro
	.set	reorder

	.loc 1 716 0
	.set	noreorder
	.set	nomacro
	jal	rtl_get_file_mapping
	move	$4,$17
	.set	macro
	.set	reorder

	.loc 1 719 0
	lw	$4,0($2)
	.set	noreorder
	.set	nomacro
	jal	rtl_get_inode_sb
	move	$20,$2
	.set	macro
	.set	reorder

	lw	$2,32($2)
$LBB174 = .
$LBB175 = .
	.file 5 "/home/extra_home/marklee/rtk_OpenWRT_BB/BB_v1407_branch_v25/v25_relase_source_test_0830/rtk_OpenWRT_v2.5_Branch_20160603/build_dir/target-mipsel_24kec_uClibc-0.9.33.2/linux-rtkmipsel_rtl8197f/linux-3.10.49/arch/mips/include/asm/string.h"
	.loc 5 77 0
	lui	$4,%hi($LC10)
	addiu	$4,$4,%lo($LC10)
$LBE175 = .
$LBE174 = .
	.loc 1 719 0
	lw	$7,0($2)
$LBB177 = .
$LBB176 = .
	.loc 5 77 0
	move	$3,$7
#APP
 # 77 "/home/extra_home/marklee/rtk_OpenWRT_BB/BB_v1407_branch_v25/v25_relase_source_test_0830/rtk_OpenWRT_v2.5_Branch_20160603/build_dir/target-mipsel_24kec_uClibc-0.9.33.2/linux-rtkmipsel_rtl8197f/linux-3.10.49/arch/mips/include/asm/string.h" 1
	.set	noreorder
	.set	noat
	lbu	$2,($3)
1:	lbu	$1,($4)
	addiu	$3,1
	bne	$1,$2,2f
	addiu	$4,1
	bnez	$2,1b
	lbu	$2,($3)
	move	$2,$1
2:	subu	$2,$1
3:	.set	at
	.set	reorder
 # 0 "" 2
#NO_APP
$LBE176 = .
$LBE177 = .
	.loc 1 720 0
	.set	noreorder
	.set	nomacro
	beq	$2,$0,$L164
	lui	$4,%hi($LC11)
	.set	macro
	.set	reorder

$LBB178 = .
$LBB179 = .
	.loc 5 77 0
	move	$3,$7
	addiu	$4,$4,%lo($LC11)
#APP
 # 77 "/home/extra_home/marklee/rtk_OpenWRT_BB/BB_v1407_branch_v25/v25_relase_source_test_0830/rtk_OpenWRT_v2.5_Branch_20160603/build_dir/target-mipsel_24kec_uClibc-0.9.33.2/linux-rtkmipsel_rtl8197f/linux-3.10.49/arch/mips/include/asm/string.h" 1
	.set	noreorder
	.set	noat
	lbu	$2,($3)
1:	lbu	$1,($4)
	addiu	$3,1
	bne	$1,$2,2f
	addiu	$4,1
	bnez	$2,1b
	lbu	$2,($3)
	move	$2,$1
2:	subu	$2,$1
3:	.set	at
	.set	reorder
 # 0 "" 2
#NO_APP
$LBE179 = .
$LBE178 = .
	.loc 1 720 0
	bne	$2,$0,$L165
$L164:
	.loc 1 721 0
	lui	$4,%hi($LC12)
	lui	$5,%hi(__func__.41504)
	addiu	$4,$4,%lo($LC12)
	addiu	$5,$5,%lo(__func__.41504)
	.set	noreorder
	.set	nomacro
	jal	printk
	li	$6,721			# 0x2d1
	.set	macro
	.set	reorder

	.loc 1 722 0
	.set	noreorder
	.set	nomacro
	j	$L187
	lw	$2,20($sp)
	.set	macro
	.set	reorder

$L165:
	.loc 1 726 0
	lw	$3,52($20)
	lui	$2,%hi(jffs2_file_address_operations)
	addiu	$2,$2,%lo(jffs2_file_address_operations)
	.set	noreorder
	.set	nomacro
	bne	$3,$2,$L166
	move	$4,$17
	.set	macro
	.set	reorder

	.loc 1 727 0
	lw	$2,64($sp)
	li	$3,1			# 0x1
	.loc 1 728 0
	.set	noreorder
	.set	nomacro
	j	$L163
	sw	$3,0($2)
	.set	macro
	.set	reorder

$L166:
	.loc 1 731 0
	move	$5,$16
	move	$6,$19
	.set	noreorder
	.set	nomacro
	jal	do_splice_from_socket
	move	$7,$18
	.set	macro
	.set	reorder

	.set	noreorder
	.set	nomacro
	j	$L163
	sw	$2,16($sp)
	.set	macro
	.set	reorder

$L186:
$LBB180 = .
$LBB181 = .
	.file 6 "include/linux/file.h"
	.loc 6 26 0
	.set	noreorder
	.set	nomacro
	jal	fput
	move	$4,$17
	.set	macro
	.set	reorder

$L167:
$LBE181 = .
$LBE180 = .
	.loc 1 736 0
	.set	noreorder
	.set	nomacro
	jal	fput
	lw	$4,16($16)
	.set	macro
	.set	reorder

$L161:
	.loc 1 738 0
	lw	$2,16($sp)
	.loc 1 739 0
	lw	$31,44($sp)
	lw	$20,40($sp)
	lw	$19,36($sp)
	lw	$18,32($sp)
	lw	$17,28($sp)
	lw	$16,24($sp)
	.set	noreorder
	.set	nomacro
	j	$31
	addiu	$sp,$sp,48
	.set	macro
	.set	reorder

	.cfi_remember_state
	.cfi_def_cfa_offset 0
	.cfi_restore 16
	.cfi_restore 17
	.cfi_restore 18
	.cfi_restore 19
	.cfi_restore 20
	.cfi_restore 31
$L163:
	.cfi_restore_state
$LBB183 = .
$LBB182 = .
	.loc 6 25 0
	lw	$2,20($sp)
$L187:
	beq	$2,$0,$L167
	j	$L186
$LBE182 = .
$LBE183 = .
	.end	rtl_splice
	.cfi_endproc
$LFE3390:
	.size	rtl_splice, .-rtl_splice
	.align	2
	.globl	memcpy_tokerneliovec
$LFB3392 = .
	.loc 1 839 0
	.cfi_startproc
	.set	nomips16
	.ent	memcpy_tokerneliovec
	.type	memcpy_tokerneliovec, @function
memcpy_tokerneliovec:
	.frame	$sp,40,$31		# vars= 0, regs= 5/0, args= 16, gp= 0
	.mask	0x800f0000,-4
	.fmask	0x00000000,0
	.set	noreorder
	.set	nomacro
	addiu	$sp,$sp,-40
	.cfi_def_cfa_offset 40
	sw	$19,32($sp)
	sw	$17,24($sp)
	sw	$16,20($sp)
	sw	$31,36($sp)
	sw	$18,28($sp)
	.cfi_offset 19, -8
	.cfi_offset 17, -16
	.cfi_offset 16, -20
	.cfi_offset 31, -4
	.cfi_offset 18, -12
	.loc 1 839 0
	move	$16,$4
	move	$19,$5
	.loc 1 840 0
	j	$L189
	move	$17,$6

$L191:
	.loc 1 842 0
	lw	$2,4($16)
$LBB184 = .
$LBB185 = .
	.loc 1 844 0
	sltu	$18,$2,$17
	move	$3,$2
	movz	$3,$17,$18
	move	$18,$3
$LBE185 = .
$LBE184 = .
	.loc 1 842 0
	beq	$2,$0,$L190
	move	$6,$3

$LBB188 = .
$LBB186 = .
	.loc 1 845 0
	lw	$4,0($16)
$LBE186 = .
	.loc 1 846 0
	addu	$19,$19,$3
$LBB187 = .
	.loc 1 845 0
	jal	memcpy
	subu	$17,$17,$3

$LBE187 = .
	.loc 1 848 0
	lw	$2,4($16)
	.loc 1 849 0
	lw	$3,0($16)
	.loc 1 848 0
	subu	$2,$2,$18
	.loc 1 849 0
	addu	$18,$3,$18
	.loc 1 848 0
	sw	$2,4($16)
	.loc 1 849 0
	sw	$18,0($16)
$L190:
$LBE188 = .
	.loc 1 851 0
	addiu	$16,$16,8
$L189:
	.loc 1 840 0 discriminator 1
	bgtz	$17,$L191
	move	$5,$19

	.loc 1 854 0
	lw	$31,36($sp)
	lw	$19,32($sp)
	lw	$18,28($sp)
	lw	$17,24($sp)
	lw	$16,20($sp)
	move	$2,$0
	j	$31
	addiu	$sp,$sp,40

	.cfi_def_cfa_offset 0
	.cfi_restore 16
	.cfi_restore 17
	.cfi_restore 18
	.cfi_restore 19
	.cfi_restore 31
	.set	macro
	.set	reorder
	.end	memcpy_tokerneliovec
	.cfi_endproc
$LFE3392:
	.size	memcpy_tokerneliovec, .-memcpy_tokerneliovec
	.align	2
	.globl	rtl_skb_copy_datagram_to_kernel_iovec
$LFB3393 = .
	.loc 1 868 0
	.cfi_startproc
	.set	nomips16
	.ent	rtl_skb_copy_datagram_to_kernel_iovec
	.type	rtl_skb_copy_datagram_to_kernel_iovec, @function
rtl_skb_copy_datagram_to_kernel_iovec:
	.frame	$sp,64,$31		# vars= 8, regs= 10/0, args= 16, gp= 0
	.mask	0xc0ff0000,-4
	.fmask	0x00000000,0
	addiu	$sp,$sp,-64
	.cfi_def_cfa_offset 64
	sw	$20,40($sp)
	sw	$19,36($sp)
	sw	$17,28($sp)
	sw	$31,60($sp)
	sw	$fp,56($sp)
	sw	$23,52($sp)
	sw	$22,48($sp)
	sw	$21,44($sp)
	sw	$18,32($sp)
	sw	$16,24($sp)
	.cfi_offset 20, -24
	.cfi_offset 19, -28
	.cfi_offset 17, -36
	.cfi_offset 31, -4
	.cfi_offset 30, -8
	.cfi_offset 23, -12
	.cfi_offset 22, -16
	.cfi_offset 21, -20
	.cfi_offset 18, -32
	.cfi_offset 16, -40
	.loc 1 868 0
	move	$20,$4
	move	$17,$5
	sw	$6,72($sp)
	.loc 1 872 0
	.set	noreorder
	.set	nomacro
	jal	rtl_skb_shared_info
	move	$19,$7
	.set	macro
	.set	reorder

	lw	$2,8($2)
	.loc 1 874 0
	.set	noreorder
	.set	nomacro
	beq	$19,$0,$L197
	sw	$2,16($sp)
	.set	macro
	.set	reorder

	move	$22,$0
$LBB189 = .
$LBB190 = .
$LBB191 = .
$LBB192 = .
$LBB193 = .
$LBB194 = .
	.loc 4 771 0
	lui	$fp,%hi(mem_map)
$L198:
$LBE194 = .
$LBE193 = .
$LBE192 = .
$LBE191 = .
$LBE190 = .
$LBE189 = .
	.loc 1 879 0
	.set	noreorder
	.set	nomacro
	jal	rtl_skb_headlen
	move	$4,$20
	.set	macro
	.set	reorder

	.loc 1 880 0
	li	$16,-1			# 0xffffffffffffffff
$L203:
$LBB206 = .
	.loc 1 885 0
	addu	$18,$22,$2
$LBB203 = .
	.loc 1 886 0
	subu	$2,$18,$17
$LBE203 = .
	.loc 1 885 0
	slt	$3,$17,$18
$LBB204 = .
$LBB201 = .
	.loc 1 895 0
	move	$4,$20
$LBE201 = .
$LBE204 = .
	.loc 1 885 0
	.set	noreorder
	.set	nomacro
	beq	$3,$0,$L199
	slt	$21,$19,$2
	.set	macro
	.set	reorder

	movn	$2,$19,$21
	move	$21,$2
$LBB205 = .
	.loc 1 890 0
	li	$2,-1			# 0xffffffffffffffff
	.set	noreorder
	.set	nomacro
	bne	$16,$2,$L200
	subu	$22,$17,$22
	.set	macro
	.set	reorder

	.loc 1 892 0
	.set	noreorder
	.set	nomacro
	jal	rtl_get_skb_data_common
	subu	$19,$19,$21
	.set	macro
	.set	reorder

	lw	$4,72($sp)
	addu	$5,$2,$22
	.set	noreorder
	.set	nomacro
	jal	memcpy_tokerneliovec
	move	$6,$21
	.set	macro
	.set	reorder

	j	$L213
$L200:
$LBB202 = .
	.loc 1 895 0
	.set	noreorder
	.set	nomacro
	jal	rtl_skb_shared_info
	subu	$19,$19,$21
	.set	macro
	.set	reorder

	addiu	$3,$16,5
	sll	$3,$3,3
	addu	$2,$2,$3
$LBB199 = .
$LBB197 = .
$LBB195 = .
	.loc 4 771 0
	lw	$23,4($2)
$LBE195 = .
$LBE197 = .
$LBE199 = .
	.loc 1 903 0
	addiu	$4,$2,4
$LBB200 = .
$LBB198 = .
$LBB196 = .
	.loc 4 771 0
	lw	$2,%lo(mem_map)($fp)
	subu	$23,$23,$2
	sra	$23,$23,5
	li	$2,-2147483648			# 0xffffffff80000000
	sll	$23,$23,12
$LBE196 = .
$LBE198 = .
$LBE200 = .
	.loc 1 903 0
	.set	noreorder
	.set	nomacro
	jal	rtl_get_frag_offset
	addu	$23,$23,$2
	.set	macro
	.set	reorder

	.loc 1 904 0
	lw	$4,72($sp)
	.loc 1 903 0
	addu	$2,$2,$22
	.loc 1 904 0
	addu	$5,$23,$2
	.set	noreorder
	.set	nomacro
	jal	memcpy_tokerneliovec
	move	$6,$21
	.set	macro
	.set	reorder

$L213:
$LBE202 = .
	.loc 1 908 0
	.set	noreorder
	.set	nomacro
	beq	$19,$0,$L197
	addu	$17,$17,$21
	.set	macro
	.set	reorder

$L199:
$LBE205 = .
	.loc 1 913 0
	.set	noreorder
	.set	nomacro
	jal	rtl_skb_shared_info
	move	$4,$20
	.set	macro
	.set	reorder

	lbu	$2,0($2)
	addiu	$16,$16,1
	slt	$2,$16,$2
	.set	noreorder
	.set	nomacro
	beq	$2,$0,$L202
	move	$4,$20
	.set	macro
	.set	reorder

	.loc 1 916 0
	.set	noreorder
	.set	nomacro
	jal	rtl_skb_shared_info
	move	$22,$18
	.set	macro
	.set	reorder

	addiu	$3,$16,5
	sll	$3,$3,3
	addu	$2,$2,$3
$LBE206 = .
	.loc 1 917 0
	.set	noreorder
	.set	nomacro
	j	$L203
	lhu	$2,10($2)
	.set	macro
	.set	reorder

$L202:
	.loc 1 918 0
	lw	$2,16($sp)
	beq	$2,$0,$L205
	.loc 1 921 0
	.set	noreorder
	.set	nomacro
	jal	rtl_skb_shared_info
	move	$4,$2
	.set	macro
	.set	reorder

$LBB207 = .
$LBB208 = .
	.file 7 "/home/extra_home/marklee/rtk_OpenWRT_BB/BB_v1407_branch_v25/v25_relase_source_test_0830/rtk_OpenWRT_v2.5_Branch_20160603/build_dir/target-mipsel_24kec_uClibc-0.9.33.2/linux-rtkmipsel_rtl8197f/linux-3.10.49/arch/mips/include/asm/bug.h"
	.loc 7 29 0
	lw	$2,8($2)
#APP
 # 29 "/home/extra_home/marklee/rtk_OpenWRT_BB/BB_v1407_branch_v25/v25_relase_source_test_0830/rtk_OpenWRT_v2.5_Branch_20160603/build_dir/target-mipsel_24kec_uClibc-0.9.33.2/linux-rtkmipsel_rtl8197f/linux-3.10.49/arch/mips/include/asm/bug.h" 1
	tne $0, $2, 12
 # 0 "" 2
#NO_APP
$LBE208 = .
$LBE207 = .
	.loc 1 922 0
	lw	$20,16($sp)
$LBB209 = .
	.loc 1 885 0
	move	$22,$18
$LBE209 = .
	.loc 1 922 0
	lw	$2,0($20)
	.loc 1 923 0
	.set	noreorder
	.set	nomacro
	j	$L198
	sw	$2,16($sp)
	.set	macro
	.set	reorder

$L197:
	.loc 1 875 0
	.set	noreorder
	.set	nomacro
	j	$L204
	move	$2,$0
	.set	macro
	.set	reorder

$L205:
	.loc 1 925 0
	li	$2,-14			# 0xfffffffffffffff2
$L204:
	.loc 1 1028 0
	lw	$31,60($sp)
	lw	$fp,56($sp)
	lw	$23,52($sp)
	lw	$22,48($sp)
	lw	$21,44($sp)
	lw	$20,40($sp)
	lw	$19,36($sp)
	lw	$18,32($sp)
	lw	$17,28($sp)
	lw	$16,24($sp)
	.set	noreorder
	.set	nomacro
	j	$31
	addiu	$sp,$sp,64
	.set	macro
	.set	reorder

	.cfi_def_cfa_offset 0
	.cfi_restore 16
	.cfi_restore 17
	.cfi_restore 18
	.cfi_restore 19
	.cfi_restore 20
	.cfi_restore 21
	.cfi_restore 22
	.cfi_restore 23
	.cfi_restore 30
	.cfi_restore 31
	.end	rtl_skb_copy_datagram_to_kernel_iovec
	.cfi_endproc
$LFE3393:
	.size	rtl_skb_copy_datagram_to_kernel_iovec, .-rtl_skb_copy_datagram_to_kernel_iovec
	.section	.rodata.str1.4
	.align	2
$LC13:
	.ascii	"rtl_sendfile installed\012\000"
	.section	.init.text,"ax",@progbits
	.align	2
$LFB3394 = .
	.loc 1 1039 0
	.cfi_startproc
	.set	nomips16
	.ent	rtl_sendfile_init
	.type	rtl_sendfile_init, @function
rtl_sendfile_init:
	.frame	$sp,24,$31		# vars= 0, regs= 1/0, args= 16, gp= 0
	.mask	0x80000000,-4
	.fmask	0x00000000,0
	.set	noreorder
	.set	nomacro
	.loc 1 1040 0
	lui	$4,%hi($LC13)
	.loc 1 1039 0
	addiu	$sp,$sp,-24
	.cfi_def_cfa_offset 24
	sw	$31,20($sp)
	.cfi_offset 31, -4
	.loc 1 1040 0
	jal	printk
	addiu	$4,$4,%lo($LC13)

	.loc 1 1044 0
	lw	$31,20($sp)
	.loc 1 1041 0
	lui	$3,%hi(_rtl_sendfile_hook)
	lui	$2,%hi(rtl_sendfile_hook)
	addiu	$3,$3,%lo(_rtl_sendfile_hook)
	sw	$3,%lo(rtl_sendfile_hook)($2)
	.loc 1 1044 0
	move	$2,$0
	j	$31
	addiu	$sp,$sp,24

	.cfi_def_cfa_offset 0
	.cfi_restore 31
	.set	macro
	.set	reorder
	.end	rtl_sendfile_init
	.cfi_endproc
$LFE3394:
	.size	rtl_sendfile_init, .-rtl_sendfile_init
	.globl	init_module
	init_module = rtl_sendfile_init
	.section	.rodata.str1.4
	.align	2
$LC14:
	.ascii	"rtl_sendfile removed\012\000"
	.section	.exit.text,"ax",@progbits
	.align	2
$LFB3395 = .
	.loc 1 1047 0
	.cfi_startproc
	.set	nomips16
	.ent	rtl_sendfile_cleanup
	.type	rtl_sendfile_cleanup, @function
rtl_sendfile_cleanup:
	.frame	$sp,24,$31		# vars= 0, regs= 1/0, args= 16, gp= 0
	.mask	0x80000000,-4
	.fmask	0x00000000,0
	.set	noreorder
	.set	nomacro
	.loc 1 1048 0
	lui	$4,%hi($LC14)
	.loc 1 1047 0
	addiu	$sp,$sp,-24
	.cfi_def_cfa_offset 24
	sw	$31,20($sp)
	.cfi_offset 31, -4
	.loc 1 1048 0
	jal	printk
	addiu	$4,$4,%lo($LC14)

	.loc 1 1050 0
	lw	$31,20($sp)
	.loc 1 1049 0
	lui	$2,%hi(rtl_sendfile_hook)
	sw	$0,%lo(rtl_sendfile_hook)($2)
	.loc 1 1050 0
	j	$31
	addiu	$sp,$sp,24

	.cfi_def_cfa_offset 0
	.cfi_restore 31
	.set	macro
	.set	reorder
	.end	rtl_sendfile_cleanup
	.cfi_endproc
$LFE3395:
	.size	rtl_sendfile_cleanup, .-rtl_sendfile_cleanup
	.globl	cleanup_module
	cleanup_module = rtl_sendfile_cleanup
	.rdata
	.align	2
	.type	__func__.41504, @object
	.size	__func__.41504, 11
__func__.41504:
	.ascii	"rtl_splice\000"
	.align	2
	.type	__func__.41460, @object
	.size	__func__.41460, 22
__func__.41460:
	.ascii	"do_splice_from_socket\000"
	.align	2
	.type	__func__.41410, @object
	.size	__func__.41410, 22
__func__.41410:
	.ascii	"rtl_pipe_to_sendpages\000"
	.align	2
	.type	__func__.41332, @object
	.size	__func__.41332, 19
__func__.41332:
	.ascii	"do_tcp_send_mpages\000"
	.section	.modinfo,"a",@progbits
	.type	__UNIQUE_ID_license1, @object
	.size	__UNIQUE_ID_license1, 12
__UNIQUE_ID_license1:
	.ascii	"license=GPL\000"
	.data
	.align	2
	.type	_rtl_sendfile_hook, @object
	.size	_rtl_sendfile_hook, 20
_rtl_sendfile_hook:
	.word	rtl_splice
	.word	rtl_splice_from_pipe_feed
	.word	rtl_pipe_to_sendpages
	.word	rtl_tcp_ctl_init
	.word	rtl_skb_copy_datagram_to_kernel_iovec
	.section	.data,"aw",@progbits
	.align	2
	.type	bdp_ratelimits, @object
	.size	bdp_ratelimits, 4
bdp_ratelimits:
	.space	4
	.globl	g2_tcp_ctl
	.section	.bss,"aw",@nobits
	.align	2
	.type	g2_tcp_ctl, @object
	.size	g2_tcp_ctl, 32
g2_tcp_ctl:
	.space	32
	.text
$Letext0:
	.file 8 "include/uapi/asm-generic/int-ll64.h"
	.file 9 "include/asm-generic/int-ll64.h"
	.file 10 "/home/extra_home/marklee/rtk_OpenWRT_BB/BB_v1407_branch_v25/v25_relase_source_test_0830/rtk_OpenWRT_v2.5_Branch_20160603/build_dir/target-mipsel_24kec_uClibc-0.9.33.2/linux-rtkmipsel_rtl8197f/linux-3.10.49/include/uapi/asm-generic/posix_types.h"
	.file 11 "include/uapi/linux/types.h"
	.file 12 "include/linux/types.h"
	.file 13 "include/asm-generic/atomic-long.h"
	.file 14 "include/linux/stddef.h"
	.file 15 "include/linux/fs.h"
	.file 16 "/home/extra_home/marklee/rtk_OpenWRT_BB/BB_v1407_branch_v25/v25_relase_source_test_0830/rtk_OpenWRT_v2.5_Branch_20160603/build_dir/target-mipsel_24kec_uClibc-0.9.33.2/linux-rtkmipsel_rtl8197f/linux-3.10.49/arch/mips/include/asm/page.h"
	.file 17 "include/linux/splice.h"
	.file 18 "include/linux/netdev_features.h"
	.file 19 "include/linux/skbuff.h"
	.file 20 "include/uapi/linux/netfilter.h"
	.file 21 "include/uapi/linux/netfilter/nf_conntrack_tcp.h"
	.file 22 "include/net/netns/conntrack.h"
	.file 23 "/home/extra_home/marklee/rtk_OpenWRT_BB/BB_v1407_branch_v25/v25_relase_source_test_0830/rtk_OpenWRT_v2.5_Branch_20160603/build_dir/target-mipsel_24kec_uClibc-0.9.33.2/linux-rtkmipsel_rtl8197f/linux-3.10.49/include/uapi/linux/xfrm.h"
	.file 24 "include/uapi/linux/if_link.h"
	.file 25 "include/uapi/linux/rtnetlink.h"
	.file 26 "include/net/tcp_states.h"
	.file 27 "include/linux/interrupt.h"
	.file 28 "include/net/ndisc.h"
	.file 29 "include/linux/kernel.h"
	.file 30 "include/linux/highmem.h"
	.file 31 "include/net/cls_cgroup.h"
	.file 32 "include/linux/tcp.h"
	.file 33 "include/net/inet_sock.h"
	.file 34 "/home/extra_home/marklee/rtk_OpenWRT_BB/BB_v1407_branch_v25/v25_relase_source_test_0830/rtk_OpenWRT_v2.5_Branch_20160603/build_dir/target-mipsel_24kec_uClibc-0.9.33.2/linux-rtkmipsel_rtl8197f/linux-3.10.49/arch/mips/include/asm/thread_info.h"
	.file 35 "include/net/inet_frag.h"
	.file 36 "include/linux/export.h"
	.file 37 "/home/extra_home/marklee/rtk_OpenWRT_BB/BB_v1407_branch_v25/v25_relase_source_test_0830/rtk_OpenWRT_v2.5_Branch_20160603/build_dir/target-mipsel_24kec_uClibc-0.9.33.2/linux-rtkmipsel_rtl8197f/linux-3.10.49/arch/mips/include/asm/cpu-info.h"
	.file 38 "include/linux/printk.h"
	.file 39 "include/linux/cpumask.h"
	.file 40 "include/linux/time.h"
	.file 41 "include/linux/highuid.h"
	.file 42 "include/linux/seq_file.h"
	.file 43 "include/linux/sched.h"
	.file 44 "include/linux/quota.h"
	.file 45 "include/linux/jiffies.h"
	.file 46 "/home/extra_home/marklee/rtk_OpenWRT_BB/BB_v1407_branch_v25/v25_relase_source_test_0830/rtk_OpenWRT_v2.5_Branch_20160603/build_dir/target-mipsel_24kec_uClibc-0.9.33.2/linux-rtkmipsel_rtl8197f/linux-3.10.49/arch/mips/include/asm/cacheflush.h"
	.file 47 "/home/extra_home/marklee/rtk_OpenWRT_BB/BB_v1407_branch_v25/v25_relase_source_test_0830/rtk_OpenWRT_v2.5_Branch_20160603/build_dir/target-mipsel_24kec_uClibc-0.9.33.2/linux-rtkmipsel_rtl8197f/linux-3.10.49/arch/mips/include/asm/io.h"
	.file 48 "include/linux/mmzone.h"
	.file 49 "include/linux/workqueue.h"
	.file 50 "include/linux/debug_locks.h"
	.file 51 "include/linux/swap.h"
	.file 52 "/home/extra_home/marklee/rtk_OpenWRT_BB/BB_v1407_branch_v25/v25_relase_source_test_0830/rtk_OpenWRT_v2.5_Branch_20160603/build_dir/target-mipsel_24kec_uClibc-0.9.33.2/linux-rtkmipsel_rtl8197f/linux-3.10.49/arch/mips/include/asm/pgtable-32.h"
	.file 53 "/home/extra_home/marklee/rtk_OpenWRT_BB/BB_v1407_branch_v25/v25_relase_source_test_0830/rtk_OpenWRT_v2.5_Branch_20160603/build_dir/target-mipsel_24kec_uClibc-0.9.33.2/linux-rtkmipsel_rtl8197f/linux-3.10.49/arch/mips/include/asm/pgtable.h"
	.file 54 "include/asm-generic/pgtable.h"
	.file 55 "include/linux/vmstat.h"
	.file 56 "include/linux/slab.h"
	.file 57 "include/linux/ioport.h"
	.file 58 "include/linux/netfilter.h"
	.file 59 "include/net/net_namespace.h"
	.file 60 "include/net/inet_connection_sock.h"
	.file 61 "include/net/route.h"
	.file 62 "include/net/ip.h"
	.file 63 "include/net/tcp.h"
	.file 64 "include/net/rtl/rtl_sendfile.h"
	.file 65 "/home/extra_home/marklee/rtk_OpenWRT_BB/BB_v1407_branch_v25/v25_relase_source_test_0830/rtk_OpenWRT_v2.5_Branch_20160603/build_dir/target-mipsel_24kec_uClibc-0.9.33.2/linux-rtkmipsel_rtl8197f/rtl_sendfile-0.1/../linux-3.10.49/fs/jffs2/os-linux.h"