	.section .mdebug.abi32
	.previous
	.gnu_attribute 4, 3
	.text
$Ltext0:
	.cfi_sections	.debug_frame
	.align	2
	.globl	sync_tx_pptp_gre_seqno
$LFB3076 = .
	.file 1 "/home/extra_home/marklee/rtk_OpenWRT_BB/BB_v1407_branch_v25/v25_relase_source_test_0830/rtk_OpenWRT_v2.5_Branch_20160603/build_dir/target-mips_24kec_uClibc-0.9.33.2/linux-rtkmips_rtl8198c/fastpath-0.1/fast_pptp_core.c"
	.loc 1 801 0
	.cfi_startproc
	.set	nomips16
	.ent	sync_tx_pptp_gre_seqno
	.type	sync_tx_pptp_gre_seqno, @function
sync_tx_pptp_gre_seqno:
	.frame	$sp,40,$31		# vars= 8, regs= 4/0, args= 16, gp= 0
	.mask	0x80070000,-4
	.fmask	0x00000000,0
	addiu	$sp,$sp,-40
	.cfi_def_cfa_offset 40
	sw	$18,32($sp)
	sw	$31,36($sp)
	sw	$17,28($sp)
	sw	$16,24($sp)
	.cfi_offset 18, -8
	.cfi_offset 31, -4
	.cfi_offset 17, -12
	.cfi_offset 16, -16
	.loc 1 802 0
	.set	noreorder
	.set	nomacro
	jal	rtl_get_skb_data
	move	$18,$4
	.set	macro
	.set	reorder

	.loc 1 808 0
	lui	$3,%hi(fast_pptp_fw)
	lw	$3,%lo(fast_pptp_fw)($3)
	.set	noreorder
	.set	nomacro
	beq	$3,$0,$L1
	move	$17,$2
	.set	macro
	.set	reorder

$LBB129 = .
$LBB130 = .
	.file 2 "/home/extra_home/marklee/rtk_OpenWRT_BB/BB_v1407_branch_v25/v25_relase_source_test_0830/rtk_OpenWRT_v2.5_Branch_20160603/build_dir/target-mips_24kec_uClibc-0.9.33.2/linux-rtkmips_rtl8198c/linux-3.10.49/arch/mips/include/asm/irqflags.h"
	.loc 2 39 0
#APP
 # 39 "/home/extra_home/marklee/rtk_OpenWRT_BB/BB_v1407_branch_v25/v25_relase_source_test_0830/rtk_OpenWRT_v2.5_Branch_20160603/build_dir/target-mips_24kec_uClibc-0.9.33.2/linux-rtkmips_rtl8198c/linux-3.10.49/arch/mips/include/asm/irqflags.h" 1
		.set	push						
	.set	reorder						
	.set	noat						
	di	$16					
	andi	$16, 1					
	sll $0, $0, 3			
	.set	pop						

 # 0 "" 2
#NO_APP
$LBE130 = .
$LBE129 = .
	.loc 1 813 0
	lbu	$3,23($2)
	li	$2,47			# 0x2f
	bne	$3,$2,$L4
	.loc 1 813 0 is_stmt 0 discriminator 1
	.set	noreorder
	.set	nomacro
	jal	rtl_get_skb_len
	move	$4,$18
	.set	macro
	.set	reorder

	sltu	$2,$2,35
	bne	$2,$0,$L4
$LBB131 = .
	.loc 1 821 0 is_stmt 1
	.set	noreorder
	.set	nomacro
	jal	rtl_get_skb_data
	move	$4,$18
	.set	macro
	.set	reorder

	lw	$3,14($17)
	ext	$3,$3,24,4
	sll	$3,$3,2
	addiu	$3,$3,14
	addu	$2,$2,$3
$LBB132 = .
$LBB133 = .
	.loc 1 93 0
	lbu	$4,3($2)
$LBE133 = .
$LBE132 = .
	.loc 1 824 0
	lbu	$3,1($2)
$LBB135 = .
$LBB134 = .
	.loc 1 93 0
	lbu	$6,2($2)
	sb	$4,21($sp)
$LBE134 = .
$LBE135 = .
	.loc 1 824 0
	andi	$5,$3,0x7
	li	$4,1			# 0x1
	.set	noreorder
	.set	nomacro
	bne	$5,$4,$L4
	sb	$6,20($sp)
	.set	macro
	.set	reorder

	.loc 1 824 0 is_stmt 0 discriminator 1
	lhu	$5,20($sp)
	li	$4,34827			# 0x880b
	bne	$5,$4,$L4
	.loc 1 861 0 is_stmt 1
	lbu	$4,0($2)
	andi	$4,$4,0x10
	.set	noreorder
	.set	nomacro
	beq	$4,$0,$L9
	move	$5,$0
	.set	macro
	.set	reorder

	.loc 1 862 0
	lui	$4,%hi(pptpAccInfo)
	addiu	$4,$4,%lo(pptpAccInfo)
	lhu	$6,18($17)
	lhu	$5,46($4)
	beq	$6,$5,$L17
	.loc 1 863 0
	lhu	$7,6($2)
	lhu	$6,18($4)
	.set	noreorder
	.set	nomacro
	bne	$7,$6,$L9
	li	$5,1			# 0x1
	.set	macro
	.set	reorder

	.loc 1 863 0 is_stmt 0 discriminator 1
	lw	$7,32($4)
	lw	$6,30($17)
	bne	$7,$6,$L9
	.loc 1 866 0 is_stmt 1
	lw	$6,8($2)
	.loc 1 868 0
	lw	$3,36($4)
	.loc 1 815 0
	move	$5,$0
$LBB136 = .
$LBB137 = .
	.loc 1 93 0
	srl	$10,$6,24
$LBE137 = .
$LBE136 = .
	.loc 1 868 0
	addiu	$7,$3,1
$LBB140 = .
$LBB138 = .
	.loc 1 93 0
	srl	$9,$6,16
	srl	$8,$6,8
	sb	$6,51($4)
$LBE138 = .
$LBE140 = .
	.loc 1 868 0
	sw	$7,36($4)
$LBB141 = .
$LBB139 = .
	.loc 1 93 0
	sb	$10,48($4)
	sb	$9,49($4)
	sb	$8,50($4)
$LBE139 = .
$LBE141 = .
$LBB142 = .
$LBB143 = .
	srl	$7,$3,24
	srl	$6,$3,16
	srl	$4,$3,8
$LBE143 = .
$LBE142 = .
	.loc 1 868 0
	sw	$3,16($sp)
$LBB145 = .
$LBB144 = .
	.loc 1 93 0
	sb	$3,11($2)
	sb	$7,8($2)
	sb	$6,9($2)
	sb	$4,10($2)
	.set	noreorder
	.set	nomacro
	j	$L9
	lbu	$3,1($2)
	.set	macro
	.set	reorder

$L17:
$LBE144 = .
$LBE145 = .
	.loc 1 873 0
	li	$5,1			# 0x1
$L9:
	.loc 1 875 0
	seb	$3,$3
	.set	noreorder
	.set	nomacro
	bltz	$3,$L10
	lui	$3,%hi(pptpAccInfo)
	.set	macro
	.set	reorder

$L12:
	.loc 1 884 0
	.set	noreorder
	.set	nomacro
	beq	$5,$0,$L11
	addiu	$8,$17,14
	.set	macro
	.set	reorder

	j	$L4
$L10:
	.loc 1 876 0
	addiu	$3,$3,%lo(pptpAccInfo)
	lhu	$6,6($2)
	lhu	$4,18($3)
	bne	$6,$4,$L4
	.loc 1 876 0 is_stmt 0 discriminator 1
	lw	$6,32($3)
	lw	$4,30($17)
	bne	$6,$4,$L4
	.loc 1 879 0 is_stmt 1
	lw	$3,40($3)
$LBB146 = .
$LBB147 = .
	.loc 1 93 0
	srl	$7,$3,24
	srl	$6,$3,16
	srl	$4,$3,8
$LBE147 = .
$LBE146 = .
	.loc 1 879 0
	sw	$3,16($sp)
$LBB149 = .
$LBB148 = .
	.loc 1 93 0
	sb	$7,12($2)
	sb	$6,13($2)
	sb	$4,14($2)
$LBE148 = .
$LBE149 = .
$LBE131 = .
	.set	noreorder
	.set	nomacro
	j	$L12
	sb	$3,15($2)
	.set	macro
	.set	reorder

$L11:
$LBB160 = .
	.loc 1 885 0
	lui	$4,%hi(pptpAccInfo)
	addiu	$4,$4,%lo(pptpAccInfo)
	lhu	$3,44($4)
$LBB150 = .
$LBB151 = .
	.file 3 "/home/extra_home/marklee/rtk_OpenWRT_BB/BB_v1407_branch_v25/v25_relase_source_test_0830/rtk_OpenWRT_v2.5_Branch_20160603/build_dir/target-mips_24kec_uClibc-0.9.33.2/linux-rtkmips_rtl8198c/linux-3.10.49/arch/mips/include/asm/checksum.h"
	.loc 3 121 0
	addiu	$2,$17,30
$LBE151 = .
$LBE150 = .
	.loc 1 885 0
	addiu	$3,$3,1
	andi	$3,$3,0xffff
	sh	$3,44($4)
	sh	$3,18($17)
	.loc 1 887 0
	lw	$5,14($17)
$LBB157 = .
$LBB154 = .
	.loc 3 109 0
	lw	$6,18($17)
$LBE154 = .
$LBE157 = .
	.loc 1 886 0
	sh	$0,24($17)
$LBB158 = .
$LBB155 = .
	.loc 3 113 0
	lw	$3,22($17)
	.loc 3 109 0
	addu	$7,$6,$5
	.loc 3 117 0
	lw	$4,26($17)
	.loc 3 110 0
	sltu	$6,$7,$6
	.loc 3 111 0
	addu	$7,$7,$3
	.loc 3 113 0
	addu	$6,$7,$6
	.loc 3 114 0
	sltu	$3,$6,$3
	.loc 3 115 0
	addu	$6,$6,$4
	.loc 3 117 0
	addu	$3,$6,$3
$LBE155 = .
$LBE158 = .
	.loc 1 887 0
	ext	$5,$5,24,4
$LBB159 = .
$LBB156 = .
	.loc 3 104 0
	sll	$5,$5,2
	.loc 3 118 0
	sltu	$4,$3,$4
	.loc 3 104 0
	addu	$5,$8,$5
	.loc 3 119 0
	addu	$3,$4,$3
$L14:
	.loc 3 123 0
	lw	$4,0($2)
	.loc 3 126 0
	addiu	$2,$2,4
	.loc 3 123 0
	addu	$3,$3,$4
	.loc 3 124 0
	sltu	$4,$3,$4
	.loc 3 127 0
	.set	noreorder
	.set	nomacro
	bne	$5,$2,$L14
	addu	$3,$4,$3
	.set	macro
	.set	reorder

$LBB152 = .
$LBB153 = .
	.loc 3 78 0
#APP
 # 78 "/home/extra_home/marklee/rtk_OpenWRT_BB/BB_v1407_branch_v25/v25_relase_source_test_0830/rtk_OpenWRT_v2.5_Branch_20160603/build_dir/target-mips_24kec_uClibc-0.9.33.2/linux-rtkmips_rtl8198c/linux-3.10.49/arch/mips/include/asm/checksum.h" 1
		.set	push		# csum_fold
	.set	noat		
	sll	$1, $3, 16	
	addu	$3, $1		
	sltu	$1, $3, $1	
	srl	$3, $3, 16	
	addu	$3, $1		
	xori	$3, 0xffff	
	.set	pop
 # 0 "" 2
	.loc 3 91 0
#NO_APP
	sh	$3,24($17)
$L4:
$LBE153 = .
$LBE152 = .
$LBE156 = .
$LBE159 = .
$LBE160 = .
$LBB161 = .
$LBB162 = .
	.loc 2 58 0
#APP
 # 58 "/home/extra_home/marklee/rtk_OpenWRT_BB/BB_v1407_branch_v25/v25_relase_source_test_0830/rtk_OpenWRT_v2.5_Branch_20160603/build_dir/target-mips_24kec_uClibc-0.9.33.2/linux-rtkmips_rtl8198c/linux-3.10.49/arch/mips/include/asm/irqflags.h" 1
		.set	push						
	.set	noreorder					
	.set	noat						
	beqz	$16, 1f					
	di							
	ei							
1:								
	sll $0, $0, 3			
	.set	pop						

 # 0 "" 2
#NO_APP
$L1:
$LBE162 = .
$LBE161 = .
	.loc 1 894 0
	lw	$31,36($sp)
	lw	$18,32($sp)
	lw	$17,28($sp)
	lw	$16,24($sp)
	.set	noreorder
	.set	nomacro
	j	$31
	addiu	$sp,$sp,40
	.set	macro
	.set	reorder

	.cfi_def_cfa_offset 0
	.cfi_restore 16
	.cfi_restore 17
	.cfi_restore 18
	.cfi_restore 31
	.end	sync_tx_pptp_gre_seqno
	.cfi_endproc
$LFE3076:
	.size	sync_tx_pptp_gre_seqno, .-sync_tx_pptp_gre_seqno
	.section	.rodata.str1.4,"aMS",@progbits,1
	.align	2
$LC0:
	.ascii	"%d\012\000"
	.text
	.align	2
	.globl	ppfw_read_proc
$LFB3080 = .
	.loc 1 993 0
	.cfi_startproc
	.set	nomips16
	.ent	ppfw_read_proc
	.type	ppfw_read_proc, @function
ppfw_read_proc:
	.frame	$sp,24,$31		# vars= 0, regs= 1/0, args= 16, gp= 0
	.mask	0x80000000,-4
	.fmask	0x00000000,0
	.set	noreorder
	.set	nomacro
	.loc 1 994 0
	lui	$2,%hi(fast_pptp_fw)
	lw	$6,%lo(fast_pptp_fw)($2)
	lui	$5,%hi($LC0)
	.loc 1 993 0
	addiu	$sp,$sp,-24
	.cfi_def_cfa_offset 24
	sw	$31,20($sp)
	.cfi_offset 31, -4
	.loc 1 994 0
	jal	seq_printf
	addiu	$5,$5,%lo($LC0)

	.loc 1 997 0
	lw	$31,20($sp)
	move	$2,$0
	j	$31
	addiu	$sp,$sp,24

	.cfi_def_cfa_offset 0
	.cfi_restore 31
	.set	macro
	.set	reorder
	.end	ppfw_read_proc
	.cfi_endproc
$LFE3080:
	.size	ppfw_read_proc, .-ppfw_read_proc
	.align	2
	.globl	pptpconn_read_proc
$LFB3081 = .
	.loc 1 1000 0
	.cfi_startproc
	.set	nomips16
	.ent	pptpconn_read_proc
	.type	pptpconn_read_proc, @function
pptpconn_read_proc:
	.frame	$sp,24,$31		# vars= 0, regs= 1/0, args= 16, gp= 0
	.mask	0x80000000,-4
	.fmask	0x00000000,0
	.set	noreorder
	.set	nomacro
	.loc 1 1001 0
	lui	$2,%hi(pptp_conn_check)
	lw	$6,%lo(pptp_conn_check)($2)
	lui	$5,%hi($LC0)
	.loc 1 1000 0
	addiu	$sp,$sp,-24
	.cfi_def_cfa_offset 24
	sw	$31,20($sp)
	.cfi_offset 31, -4
	.loc 1 1001 0
	jal	seq_printf
	addiu	$5,$5,%lo($LC0)

	.loc 1 1004 0
	lw	$31,20($sp)
	move	$2,$0
	j	$31
	addiu	$sp,$sp,24

	.cfi_def_cfa_offset 0
	.cfi_restore 31
	.set	macro
	.set	reorder
	.end	pptpconn_read_proc
	.cfi_endproc
$LFE3081:
	.size	pptpconn_read_proc, .-pptpconn_read_proc
	.align	2
	.globl	fastpath_pptp_single_open
$LFB3082 = .
	.loc 1 1007 0
	.cfi_startproc
	.set	nomips16
	.ent	fastpath_pptp_single_open
	.type	fastpath_pptp_single_open, @function
fastpath_pptp_single_open:
	.frame	$sp,0,$31		# vars= 0, regs= 0/0, args= 0, gp= 0
	.mask	0x00000000,0
	.fmask	0x00000000,0
	.set	noreorder
	.set	nomacro
	.loc 1 1008 0
	move	$4,$5
	lui	$5,%hi(ppfw_read_proc)
	move	$6,$0
	j	single_open
	addiu	$5,$5,%lo(ppfw_read_proc)

	.set	macro
	.set	reorder
	.end	fastpath_pptp_single_open
	.cfi_endproc
$LFE3082:
	.size	fastpath_pptp_single_open, .-fastpath_pptp_single_open
	.align	2
	.globl	pptp_conn_single_open
$LFB3084 = .
	.loc 1 1027 0
	.cfi_startproc
	.set	nomips16
	.ent	pptp_conn_single_open
	.type	pptp_conn_single_open, @function
pptp_conn_single_open:
	.frame	$sp,0,$31		# vars= 0, regs= 0/0, args= 0, gp= 0
	.mask	0x00000000,0
	.fmask	0x00000000,0
	.set	noreorder
	.set	nomacro
	.loc 1 1028 0
	move	$4,$5
	lui	$5,%hi(pptpconn_read_proc)
	move	$6,$0
	j	single_open
	addiu	$5,$5,%lo(pptpconn_read_proc)

	.set	macro
	.set	reorder
	.end	pptp_conn_single_open
	.cfi_endproc
$LFE3084:
	.size	pptp_conn_single_open, .-pptp_conn_single_open
	.align	2
$LFB3073 = .
	.loc 1 646 0
	.cfi_startproc
	.set	nomips16
	.ent	get_fastpptp_lastxmit
	.type	get_fastpptp_lastxmit, @function
get_fastpptp_lastxmit:
	.frame	$sp,0,$31		# vars= 0, regs= 0/0, args= 0, gp= 0
	.mask	0x00000000,0
	.fmask	0x00000000,0
	.set	noreorder
	.set	nomacro
	.loc 1 647 0
	lui	$2,%hi(fast_pptp_fw)
	lw	$3,%lo(fast_pptp_fw)($2)
	beq	$3,$0,$L38
	move	$2,$0

$LBB165 = .
$LBB166 = .
	lui	$3,%hi(pptpAccInfo)
	addiu	$2,$3,%lo(pptpAccInfo)
	lw	$2,4($2)
	.loc 1 648 0
	lw	$3,%lo(pptpAccInfo)($3)
	xori	$2,$2,0x1
	movn	$3,$0,$2
	move	$2,$3
$L38:
$LBE166 = .
$LBE165 = .
	.loc 1 651 0
	j	$31
	nop

	.set	macro
	.set	reorder
	.end	get_fastpptp_lastxmit
	.cfi_endproc
$LFE3073:
	.size	get_fastpptp_lastxmit, .-get_fastpptp_lastxmit
	.align	2
$LFB3068 = .
	.loc 1 81 0
	.cfi_startproc
	.set	nomips16
	.ent	set_pptp_device
	.type	set_pptp_device, @function
set_pptp_device:
	.frame	$sp,24,$31		# vars= 0, regs= 1/0, args= 16, gp= 0
	.mask	0x80000000,-4
	.fmask	0x00000000,0
	.set	noreorder
	.set	nomacro
	.loc 1 82 0
	lui	$2,%hi(fast_pptp_fw)
	lw	$2,%lo(fast_pptp_fw)($2)
	beq	$2,$0,$L46
	nop

	.loc 1 81 0
	addiu	$sp,$sp,-24
	.cfi_def_cfa_offset 24
	sw	$31,20($sp)
	.cfi_offset 31, -4
$LBB169 = .
$LBB170 = .
	.loc 1 85 0
	jal	rtl_get_dev_by_name
	nop

	lui	$3,%hi(pptpAccInfo+56)
$LBE170 = .
$LBE169 = .
	.loc 1 87 0
	lw	$31,20($sp)
$LBB172 = .
$LBB171 = .
	.loc 1 85 0
	sw	$2,%lo(pptpAccInfo+56)($3)
$LBE171 = .
$LBE172 = .
	.loc 1 87 0
	addiu	$sp,$sp,24
	.cfi_restore 31
	.cfi_def_cfa_offset 0
$L46:
	j	$31
	nop

	.set	macro
	.set	reorder
	.end	set_pptp_device
	.cfi_endproc
$LFE3068:
	.size	set_pptp_device, .-set_pptp_device
	.align	2
	.globl	Get_fast_pptp_fw
$LFB3066 = .
	.loc 1 57 0
	.cfi_startproc
	.set	nomips16
	.ent	Get_fast_pptp_fw
	.type	Get_fast_pptp_fw, @function
Get_fast_pptp_fw:
	.frame	$sp,0,$31		# vars= 0, regs= 0/0, args= 0, gp= 0
	.mask	0x00000000,0
	.fmask	0x00000000,0
	.set	noreorder
	.set	nomacro
	.loc 1 58 0
	lui	$2,%hi(fast_pptp_fw)
	.loc 1 60 0
	j	$31
	lw	$2,%lo(fast_pptp_fw)($2)

	.set	macro
	.set	reorder
	.end	Get_fast_pptp_fw
	.cfi_endproc
$LFE3066:
	.size	Get_fast_pptp_fw, .-Get_fast_pptp_fw
	.align	2
	.globl	is_pptp_device
$LFB3067 = .
	.loc 1 71 0
	.cfi_startproc
	.set	nomips16
	.ent	is_pptp_device
	.type	is_pptp_device, @function
is_pptp_device:
	.frame	$sp,24,$31		# vars= 0, regs= 2/0, args= 16, gp= 0
	.mask	0x80010000,-4
	.fmask	0x00000000,0
	.loc 1 72 0
	lui	$2,%hi(pptpAccInfo+56)
	lw	$2,%lo(pptpAccInfo+56)($2)
	beq	$2,$0,$L50
	.loc 1 71 0 discriminator 1
	addiu	$sp,$sp,-24
	.cfi_def_cfa_offset 24
	sw	$16,16($sp)
	.cfi_offset 16, -8
	move	$16,$4
	sw	$31,20($sp)
	.cfi_offset 31, -4
	.loc 1 72 0 discriminator 1
	.set	noreorder
	.set	nomacro
	jal	rtl_get_ppp_dev_name
	move	$4,$2
	.set	macro
	.set	reorder

$LBB173 = .
$LBB174 = .
	.file 4 "/home/extra_home/marklee/rtk_OpenWRT_BB/BB_v1407_branch_v25/v25_relase_source_test_0830/rtk_OpenWRT_v2.5_Branch_20160603/build_dir/target-mips_24kec_uClibc-0.9.33.2/linux-rtkmips_rtl8198c/linux-3.10.49/arch/mips/include/asm/string.h"
	.loc 4 77 0 discriminator 1
	move	$4,$16
#APP
 # 77 "/home/extra_home/marklee/rtk_OpenWRT_BB/BB_v1407_branch_v25/v25_relase_source_test_0830/rtk_OpenWRT_v2.5_Branch_20160603/build_dir/target-mips_24kec_uClibc-0.9.33.2/linux-rtkmips_rtl8198c/linux-3.10.49/arch/mips/include/asm/string.h" 1
	.set	noreorder
	.set	noat
	lbu	$3,($2)
1:	lbu	$1,($4)
	addiu	$2,1
	bne	$1,$3,2f
	addiu	$4,1
	bnez	$3,1b
	lbu	$3,($2)
	move	$3,$1
2:	subu	$3,$1
3:	.set	at
	.set	reorder
 # 0 "" 2
#NO_APP
$LBE174 = .
$LBE173 = .
	.loc 1 72 0 discriminator 1
	sltu	$2,$3,1
	.loc 1 78 0 discriminator 1
	lw	$31,20($sp)
	lw	$16,16($sp)
	.set	noreorder
	.set	nomacro
	j	$31
	addiu	$sp,$sp,24
	.set	macro
	.set	reorder

	.cfi_def_cfa_offset 0
	.cfi_restore 16
	.cfi_restore 31
$L50:
	.loc 1 77 0
	.set	noreorder
	.set	nomacro
	j	$31
	move	$2,$0
	.set	macro
	.set	reorder

	.end	is_pptp_device
	.cfi_endproc
$LFE3067:
	.size	is_pptp_device, .-is_pptp_device
	.align	2
	.globl	Check_GRE_rx_net_device
$LFB3070 = .
	.loc 1 97 0
	.cfi_startproc
	.set	nomips16
	.ent	Check_GRE_rx_net_device
	.type	Check_GRE_rx_net_device, @function
Check_GRE_rx_net_device:
	.frame	$sp,40,$31		# vars= 0, regs= 6/0, args= 16, gp= 0
	.mask	0x801f0000,-4
	.fmask	0x00000000,0
	.set	noreorder
	.set	nomacro
	addiu	$sp,$sp,-40
	.cfi_def_cfa_offset 40
	sw	$31,36($sp)
	sw	$20,32($sp)
	sw	$18,24($sp)
	sw	$17,20($sp)
	sw	$16,16($sp)
	.cfi_offset 31, -4
	.cfi_offset 20, -8
	.cfi_offset 18, -16
	.cfi_offset 17, -20
	.cfi_offset 16, -24
	move	$17,$4
	sw	$19,28($sp)
	.cfi_offset 19, -12
	.loc 1 100 0
	jal	rtl_ip_hdr
	lui	$18,%hi(pptpAccInfo)

	move	$16,$2
	.loc 1 101 0
	move	$4,$17
	jal	rtl_get_skb_data
	addiu	$18,$18,%lo(pptpAccInfo)

	lw	$3,0($16)
	.loc 1 103 0
	lw	$16,8($18)
	beq	$16,$0,$L55
	ext	$20,$3,24,4

	.loc 1 106 0
	move	$4,$17
	jal	rtl_get_skb_dev
	move	$19,$2

	bne	$16,$2,$L54
	move	$3,$0

	.loc 1 106 0 is_stmt 0 discriminator 1
	sll	$20,$20,2
	addu	$19,$19,$20
	lhu	$3,6($19)
	lhu	$2,30($18)
	xor	$3,$3,$2
	j	$L54
	sltu	$3,$3,1

$L55:
	.loc 1 111 0 is_stmt 1
	move	$3,$0
$L54:
	.loc 1 112 0
	lw	$31,36($sp)
	lw	$20,32($sp)
	lw	$19,28($sp)
	lw	$18,24($sp)
	lw	$17,20($sp)
	lw	$16,16($sp)
	move	$2,$3
	j	$31
	addiu	$sp,$sp,40

	.cfi_def_cfa_offset 0
	.cfi_restore 16
	.cfi_restore 17
	.cfi_restore 18
	.cfi_restore 19
	.cfi_restore 20
	.cfi_restore 31
	.set	macro
	.set	reorder
	.end	Check_GRE_rx_net_device
	.cfi_endproc
$LFE3070:
	.size	Check_GRE_rx_net_device, .-Check_GRE_rx_net_device
	.align	2
	.globl	fast_pptp_filter
$LFB3071 = .
	.loc 1 116 0
	.cfi_startproc
	.set	nomips16
	.ent	fast_pptp_filter
	.type	fast_pptp_filter, @function
fast_pptp_filter:
	.frame	$sp,40,$31		# vars= 0, regs= 5/0, args= 16, gp= 0
	.mask	0x800f0000,-4
	.fmask	0x00000000,0
	.set	noreorder
	.set	nomacro
	addiu	$sp,$sp,-40
	.cfi_def_cfa_offset 40
	sw	$17,24($sp)
	.cfi_offset 17, -16
	move	$17,$4
	sw	$31,36($sp)
	sw	$16,20($sp)
	sw	$19,32($sp)
	.cfi_offset 31, -4
	.cfi_offset 16, -20
	.cfi_offset 19, -8
	.cfi_offset 18, -12
	.loc 1 124 0
	jal	rtl_ip_hdr
	sw	$18,28($sp)

	.loc 1 126 0
	move	$4,$17
	jal	rtl_get_skb_len
	move	$16,$2

	sltu	$2,$2,56
	bne	$2,$0,$L84
	lw	$31,36($sp)

$LBB175 = .
	.loc 1 127 0
	lw	$2,0($16)
	.loc 1 129 0
	lbu	$3,9($16)
	.loc 1 127 0
	ext	$4,$2,24,4
	.loc 1 129 0
	li	$2,6			# 0x6
	bne	$3,$2,$L84
	sll	$4,$4,2

	.loc 1 127 0 discriminator 1
	addu	$4,$16,$4
	.loc 1 129 0 discriminator 1
	lhu	$3,0($4)
	li	$2,1723			# 0x6bb
	bne	$3,$2,$L84
	li	$3,1			# 0x1

	.loc 1 130 0
	lw	$2,12($4)
	srl	$2,$2,28
	sll	$2,$2,2
	addu	$4,$4,$2
	.loc 1 134 0
	lhu	$2,2($4)
	bne	$2,$3,$L84
	li	$5,8			# 0x8

	.loc 1 135 0 discriminator 1
	lhu	$3,8($4)
	.loc 1 134 0 discriminator 1
	bne	$3,$5,$L60
	nop

	.loc 1 135 0
	lbu	$3,16($4)
	bne	$3,$2,$L84
	lui	$18,%hi(pptpAccInfo)

	.loc 1 143 0
	addiu	$18,$18,%lo(pptpAccInfo)
	lw	$2,36($18)
	beq	$2,$0,$L83
	nop

	.loc 1 143 0 is_stmt 0 discriminator 1
	lw	$2,20($18)
	beq	$2,$0,$L83
	nop

	lw	$2,32($18)
	bne	$2,$0,$L80
	nop

$L83:
	j	$L61
	lhu	$2,12($4)

$L80:
	.loc 1 144 0 is_stmt 1
	lhu	$3,18($18)
	lhu	$2,12($4)
	bne	$3,$2,$L84
	lw	$31,36($sp)

	.loc 1 144 0 is_stmt 0 discriminator 1
	lhu	$5,30($18)
	lhu	$3,14($4)
	bne	$5,$3,$L85
	lw	$19,32($sp)

$L61:
	.loc 1 151 0 is_stmt 1
	sh	$2,18($18)
	.loc 1 152 0
	lhu	$2,14($4)
	.loc 1 150 0
	lui	$3,%hi(pptp_tcp_finished)
	li	$19,1			# 0x1
	.loc 1 152 0
	sh	$2,30($18)
	.loc 1 156 0
	lw	$2,16($16)
	.loc 1 159 0
	move	$4,$17
	.loc 1 150 0
	sw	$19,%lo(pptp_tcp_finished)($3)
	.loc 1 156 0
	sw	$2,20($18)
	.loc 1 157 0
	lw	$2,12($16)
	.loc 1 158 0
	sw	$19,36($18)
	.loc 1 159 0
	jal	rtl_get_skb_dev
	sw	$2,32($18)

$LBB176 = .
	.loc 1 162 0
	move	$4,$17
	jal	rtl_get_skb_data
	sw	$2,8($18)

	addiu	$2,$2,-8
	lwl	$3,0($2)
	lui	$6,%hi(pptpAccInfo+24)
	addiu	$5,$6,%lo(pptpAccInfo+24)
	lwr	$3,3($2)
$LBE176 = .
$LBB177 = .
	.loc 1 163 0
	move	$4,$17
$LBE177 = .
$LBB178 = .
	.loc 1 162 0
	sw	$3,%lo(pptpAccInfo+24)($6)
	lbu	$3,4($2)
	sb	$3,4($5)
	lbu	$2,5($2)
$LBE178 = .
$LBB179 = .
	.loc 1 163 0
	jal	rtl_get_skb_data
	sb	$2,5($5)

	addiu	$2,$2,-14
	lwl	$3,0($2)
	lui	$5,%hi(pptpAccInfo+12)
	addiu	$4,$5,%lo(pptpAccInfo+12)
	lwr	$3,3($2)
	sw	$3,%lo(pptpAccInfo+12)($5)
	lbu	$3,4($2)
	sb	$3,4($4)
	lbu	$2,5($2)
$LBE179 = .
	.loc 1 182 0
	sw	$19,4($18)
	j	$L58
	sb	$2,5($4)

$L60:
	.loc 1 189 0 discriminator 1
	li	$2,13			# 0xd
	bne	$3,$2,$L84
	lw	$31,36($sp)

	.loc 1 195 0
	lui	$18,%hi(pptpAccInfo)
	addiu	$18,$18,%lo(pptpAccInfo)
	lw	$2,36($18)
	beq	$2,$0,$L86
	lui	$2,%hi(pptp_tcp_finished)

	.loc 1 195 0 is_stmt 0 discriminator 1
	lw	$2,20($18)
	beq	$2,$0,$L86
	lui	$2,%hi(pptp_tcp_finished)

	lw	$2,32($18)
	beq	$2,$0,$L86
	lui	$2,%hi(pptp_tcp_finished)

	.loc 1 196 0 is_stmt 1
	lhu	$3,18($18)
	lhu	$2,12($4)
	bne	$3,$2,$L85
	lw	$19,32($sp)

	.loc 1 201 0
	lui	$2,%hi(pptp_tcp_finished)
$L86:
	sw	$0,%lo(pptp_tcp_finished)($2)
	.loc 1 202 0
	sw	$0,4($18)
$L58:
$LBE175 = .
	.loc 1 293 0
	lw	$31,36($sp)
$L84:
	lw	$19,32($sp)
$L85:
	lw	$18,28($sp)
	lw	$17,24($sp)
	lw	$16,20($sp)
	j	$31
	addiu	$sp,$sp,40

	.cfi_def_cfa_offset 0
	.cfi_restore 16
	.cfi_restore 17
	.cfi_restore 18
	.cfi_restore 19
	.cfi_restore 31
	.set	macro
	.set	reorder
	.end	fast_pptp_filter
	.cfi_endproc
$LFE3071:
	.size	fast_pptp_filter, .-fast_pptp_filter
	.align	2
	.globl	fast_pptp_to_lan
$LFB3072 = .
	.loc 1 469 0
	.cfi_startproc
	.set	nomips16
	.ent	fast_pptp_to_lan
	.type	fast_pptp_to_lan, @function
fast_pptp_to_lan:
	.frame	$sp,48,$31		# vars= 0, regs= 7/0, args= 16, gp= 0
	.mask	0x803f0000,-4
	.fmask	0x00000000,0
	.set	noreorder
	.set	nomacro
	addiu	$sp,$sp,-48
	.cfi_def_cfa_offset 48
	sw	$18,28($sp)
	sw	$17,24($sp)
	sw	$31,44($sp)
	sw	$21,40($sp)
	sw	$20,36($sp)
	sw	$19,32($sp)
	sw	$16,20($sp)
	.cfi_offset 18, -20
	.cfi_offset 17, -24
	.cfi_offset 31, -4
	.cfi_offset 21, -8
	.cfi_offset 20, -12
	.cfi_offset 19, -16
	.cfi_offset 16, -28
	.loc 1 474 0
	lw	$16,0($4)
	.loc 1 483 0
	lui	$17,%hi(pptpAccInfo)
	.loc 1 469 0
	move	$18,$4
	.loc 1 483 0
	addiu	$17,$17,%lo(pptpAccInfo)
	jal	rtl_get_skb_dev
	move	$4,$16

	lw	$3,8($17)
	beq	$3,$2,$L88
	nop

$L90:
	.loc 1 484 0
	j	$L125
	move	$2,$0

$L88:
	.loc 1 483 0 discriminator 1
	jal	rtl_ip_hdr
	move	$4,$16

	lbu	$3,9($2)
	li	$2,47			# 0x2f
	bne	$3,$2,$L125
	move	$2,$0

	jal	rtl_get_skb_len
	move	$4,$16

	sltu	$2,$2,20
	bne	$2,$0,$L125
	move	$2,$0

	.loc 1 486 0
	jal	rtl_ip_hdr
	move	$4,$16

	move	$19,$2
	.loc 1 487 0
	jal	rtl_get_skb_data
	move	$4,$16

	.loc 1 488 0
	lw	$3,0($19)
	ext	$3,$3,24,4
	sll	$3,$3,2
	addu	$3,$2,$3
	.loc 1 490 0
	lbu	$4,1($3)
	li	$2,1			# 0x1
	andi	$4,$4,0x7
	bne	$4,$2,$L125
	move	$2,$0

	.loc 1 490 0 is_stmt 0 discriminator 1
	lhu	$4,2($3)
	li	$2,34827			# 0x880b
	bne	$4,$2,$L125
	move	$2,$0

$LBB180 = .
	.loc 1 496 0 is_stmt 1
	lhu	$4,6($3)
	lhu	$2,30($17)
	bne	$4,$2,$L90
	nop

	.loc 1 501 0
	lbu	$4,0($3)
	andi	$4,$4,0x10
	beq	$4,$0,$L91
	li	$2,8			# 0x8

	.loc 1 502 0
	lw	$4,8($3)
	.loc 1 503 0
	li	$2,12			# 0xc
	.loc 1 502 0
	sw	$4,40($17)
$L91:
	.loc 1 506 0
	lb	$6,1($3)
	.loc 1 512 0
	lhu	$4,4($3)
	.loc 1 507 0
	addiu	$5,$2,4
	slt	$6,$6,0
	.loc 1 512 0
	beq	$4,$0,$L90
	movn	$2,$5,$6

	.loc 1 509 0
	addu	$3,$3,$2
	.loc 1 540 0
	lbu	$4,0($3)
	bne	$4,$0,$L93
	nop

	.loc 1 542 0
	addiu	$3,$3,1
	j	$L94
	li	$5,1			# 0x1

$L93:
	.loc 1 544 0
	li	$6,255			# 0xff
	bne	$4,$6,$L94
	move	$5,$0

	.loc 1 544 0 is_stmt 0 discriminator 1
	lbu	$5,1($3)
	li	$4,3			# 0x3
	bne	$5,$4,$L90
	nop

	.loc 1 547 0 is_stmt 1
	lbu	$5,2($3)
	bne	$5,$0,$L107
	addiu	$4,$3,2

	.loc 1 549 0
	addiu	$3,$3,3
$LBE180 = .
	.loc 1 548 0
	j	$L94
	li	$5,3			# 0x3

$L107:
$LBB182 = .
	.loc 1 546 0
	move	$3,$4
	.loc 1 545 0
	li	$5,2			# 0x2
$L94:
	.loc 1 552 0
	lbu	$3,0($3)
	li	$4,33			# 0x21
	beq	$3,$4,$L95
	move	$4,$16

	.loc 1 552 0 is_stmt 0 discriminator 1
	li	$4,253			# 0xfd
	bne	$3,$4,$L90
	nop

$LBE182 = .
	.loc 1 563 0 is_stmt 1
	j	$L128
	lw	$3,0($19)

$L126:
$LBB183 = .
	.loc 1 566 0 discriminator 1
	jal	rtl_get_ppp_dev_priv
	nop

	beq	$2,$0,$L90
	addiu	$5,$19,-2

	.loc 1 569 0
	jal	skb_pull
	move	$4,$16

	.loc 1 570 0
	jal	rtl_get_skb_data
	move	$4,$16

	.loc 1 572 0
	li	$3,-3			# 0xfffffffffffffffd
	sb	$3,1($2)
	.loc 1 571 0
	sb	$0,0($2)
	.loc 1 573 0
	jal	rtl_get_ppp_dev_priv
	lw	$4,56($17)

	.loc 1 575 0
	move	$4,$2
	move	$5,$16
	jal	rtl_ppp_receive_nonmp_frame
	li	$6,1			# 0x1

	.loc 1 576 0
	beq	$2,$0,$L108
	move	$16,$2

	.loc 1 580 0
	sw	$2,0($18)
	.loc 1 582 0
	li	$19,1			# 0x1
$L104:
	.loc 1 593 0
	jal	rtl_get_skb_data
	move	$4,$16

	andi	$18,$2,0x3
	.loc 1 594 0
	beq	$18,$0,$L98
	nop

	.loc 1 595 0
	jal	rtl_skb_headroom
	move	$4,$16

	sltu	$2,$2,$18
	bne	$2,$0,$L98
	nop

$LBB181 = .
	.loc 1 597 0
	jal	rtl_get_skb_len
	move	$4,$16

	move	$4,$16
	jal	rtl_get_skb_data
	move	$20,$2

	move	$4,$16
	jal	rtl_get_skb_data
	subu	$21,$2,$18

	move	$5,$2
	move	$4,$21
	jal	memmove
	move	$6,$20

$LBE181 = .
	.loc 1 598 0
	move	$4,$16
	move	$5,$18
	jal	rtl_set_skb_data
	li	$6,1			# 0x1

	.loc 1 599 0
	move	$4,$16
	move	$5,$18
	jal	rtl_set_skb_tail
	li	$6,1			# 0x1

$L98:
	.loc 1 605 0
	jal	rtl_skb_reset_network_header
	move	$4,$16

	.loc 1 606 0
	jal	rtl_skb_reset_transport_header
	move	$4,$16

	.loc 1 612 0
	lw	$4,56($17)
	beq	$4,$0,$L125
	move	$2,$0

	.loc 1 614 0
	bne	$19,$0,$L101
	nop

	.loc 1 615 0
	jal	rtl_get_ppp_dev_priv
	nop

	beq	$2,$0,$L101
	nop

	.loc 1 616 0
	jal	rtl_get_ppp_dev_priv
	lw	$4,56($17)

	.loc 1 617 0
	move	$4,$16
	jal	rtl_get_skb_len
	move	$18,$2

	addiu	$6,$2,-2
	move	$4,$18
	jal	rtl_inc_ppp_stats
	move	$5,$0

$L101:
	.loc 1 625 0
	lw	$5,56($17)
	jal	rtl_set_skb_dev
	move	$4,$16

	.loc 1 626 0
	j	$L125
	li	$2,1			# 0x1

$L108:
$LBE183 = .
	.loc 1 578 0
	j	$L125
	li	$2,-2			# 0xfffffffffffffffe

$L128:
$LBB184 = .
	.loc 1 566 0
	lw	$4,56($17)
	.loc 1 553 0
	addiu	$5,$5,1
	.loc 1 563 0
	ext	$3,$3,24,4
	sll	$3,$3,2
	addu	$2,$3,$2
	.loc 1 566 0
	bne	$4,$0,$L126
	addu	$19,$5,$2

	j	$L125
	move	$2,$0

$L95:
	.loc 1 563 0
	lw	$3,0($19)
	.loc 1 553 0
	addiu	$5,$5,1
	.loc 1 563 0
	ext	$3,$3,24,4
	sll	$3,$3,2
	addu	$2,$3,$2
	.loc 1 586 0
	jal	skb_pull
	addu	$5,$5,$2

$LBE184 = .
	.loc 1 477 0
	j	$L104
	move	$19,$0

$L125:
	.loc 1 643 0
	lw	$31,44($sp)
	lw	$21,40($sp)
	lw	$20,36($sp)
	lw	$19,32($sp)
	lw	$18,28($sp)
	lw	$17,24($sp)
	lw	$16,20($sp)
	j	$31
	addiu	$sp,$sp,48

	.cfi_def_cfa_offset 0
	.cfi_restore 16
	.cfi_restore 17
	.cfi_restore 18
	.cfi_restore 19
	.cfi_restore 20
	.cfi_restore 21
	.cfi_restore 31
	.set	macro
	.set	reorder
	.end	fast_pptp_to_lan
	.cfi_endproc
$LFE3072:
	.size	fast_pptp_to_lan, .-fast_pptp_to_lan
	.section	.rodata.str1.4
	.align	2
$LC1:
	.ascii	"ppp0\000"
	.align	2
$LC2:
	.ascii	"pptpInfo.ppp0_dev == NULL\012\000"
	.align	2
$LC3:
	.ascii	"RTL\000"
	.align	2
$LC4:
	.ascii	"pptpInfo.ppp0_dev->priv == NULL\012\000"
	.text
	.align	2
	.globl	fast_pptp_to_wan
$LFB3074 = .
	.loc 1 656 0
	.cfi_startproc
	.set	nomips16
	.ent	fast_pptp_to_wan
	.type	fast_pptp_to_wan, @function
fast_pptp_to_wan:
	.frame	$sp,88,$31		# vars= 40, regs= 7/0, args= 16, gp= 0
	.mask	0x803f0000,-4
	.fmask	0x00000000,0
	addiu	$sp,$sp,-88
	.cfi_def_cfa_offset 88
	sw	$31,84($sp)
	sw	$18,68($sp)
	sw	$17,64($sp)
	sw	$16,60($sp)
	.cfi_offset 31, -4
	.cfi_offset 18, -20
	.cfi_offset 17, -24
	.cfi_offset 16, -28
	move	$17,$4
	sw	$21,80($sp)
	sw	$20,76($sp)
	.cfi_offset 21, -8
	.cfi_offset 20, -12
	.cfi_offset 19, -16
	.loc 1 665 0
	.set	noreorder
	.set	nomacro
	jal	rtl_ip_hdr
	sw	$19,72($sp)
	.set	macro
	.set	reorder

	lw	$16,12($2)
	.loc 1 666 0
	move	$4,$17
	.loc 1 665 0
	li	$2,-16777216			# 0xffffffffff000000
	.loc 1 666 0
	.set	noreorder
	.set	nomacro
	jal	rtl_ip_hdr
	and	$16,$16,$2
	.set	macro
	.set	reorder

	.loc 1 667 0
	move	$4,$17
	.set	noreorder
	.set	nomacro
	jal	rtl_ip_hdr
	lw	$18,12($2)
	.set	macro
	.set	reorder

	lw	$3,12($2)
	.loc 1 668 0
	li	$2,167772160			# 0xa000000
	.set	noreorder
	.set	nomacro
	bne	$16,$2,$L130
	li	$2,16711680			# 0xff0000
	.set	macro
	.set	reorder

	.loc 1 666 0 discriminator 1
	and	$18,$18,$2
	.loc 1 668 0 discriminator 1
	li	$2,4194304			# 0x400000
	.set	noreorder
	.set	nomacro
	bne	$18,$2,$L130
	andi	$3,$3,0xff00
	.set	macro
	.set	reorder

	li	$2,16384			# 0x4000
	.set	noreorder
	.set	nomacro
	bne	$3,$2,$L162
	lui	$18,%hi(pptpAccInfo)
	.set	macro
	.set	reorder

	lui	$2,%hi(pptp_conn_check)
	lw	$3,%lo(pptp_conn_check)($2)
	li	$2,3			# 0x3
	.set	noreorder
	.set	nomacro
	beq	$3,$2,$L131
	move	$2,$0
	.set	macro
	.set	reorder

$L130:
	.loc 1 674 0
	lui	$18,%hi(pptpAccInfo)
$L162:
	addiu	$16,$18,%lo(pptpAccInfo)
	lw	$4,56($16)
	.set	noreorder
	.set	nomacro
	beq	$4,$0,$L131
	move	$2,$0
	.set	macro
	.set	reorder

	.loc 1 674 0 is_stmt 0 discriminator 1
	jal	rtl_get_ppp_dev_name
	.set	noreorder
	.set	nomacro
	beq	$2,$0,$L131
	move	$2,$0
	.set	macro
	.set	reorder

	.set	noreorder
	.set	nomacro
	jal	rtl_get_ppp_dev_name
	lw	$4,56($16)
	.set	macro
	.set	reorder

$LBB185 = .
$LBB186 = .
	.loc 4 77 0 is_stmt 1 discriminator 1
	lui	$3,%hi($LC1)
	addiu	$3,$3,%lo($LC1)
#APP
 # 77 "/home/extra_home/marklee/rtk_OpenWRT_BB/BB_v1407_branch_v25/v25_relase_source_test_0830/rtk_OpenWRT_v2.5_Branch_20160603/build_dir/target-mips_24kec_uClibc-0.9.33.2/linux-rtkmips_rtl8198c/linux-3.10.49/arch/mips/include/asm/string.h" 1
	.set	noreorder
	.set	noat
	lbu	$4,($2)
1:	lbu	$1,($3)
	addiu	$2,1
	bne	$1,$4,2f
	addiu	$3,1
	bnez	$4,1b
	lbu	$4,($2)
	move	$4,$1
2:	subu	$4,$1
3:	.set	at
	.set	reorder
 # 0 "" 2
#NO_APP
$LBE186 = .
$LBE185 = .
	.loc 1 674 0 discriminator 1
	.set	noreorder
	.set	nomacro
	bne	$4,$0,$L131
	move	$2,$0
	.set	macro
	.set	reorder

	.loc 1 677 0
	lw	$2,4($16)
	beq	$2,$0,$L133
	.loc 1 677 0 is_stmt 0 discriminator 1
	lw	$4,56($16)
	bne	$4,$0,$L134
$L140:
	.loc 1 762 0 is_stmt 1
	lui	$4,%hi($LC2)
	.set	noreorder
	.set	nomacro
	jal	printk
	addiu	$4,$4,%lo($LC2)
	.set	macro
	.set	reorder

$L159:
	.set	noreorder
	.set	nomacro
	j	$L131
	move	$2,$0
	.set	macro
	.set	reorder

$L134:
	.loc 1 677 0 discriminator 1
	jal	rtl_get_ppp_dev_priv
	beq	$2,$0,$L133
$LBB187 = .
	.loc 1 680 0
	.set	noreorder
	.set	nomacro
	jal	rtl_get_ppp_dev_priv
	lw	$4,56($16)
	.set	macro
	.set	reorder

	.loc 1 683 0
	move	$4,$2
	.set	noreorder
	.set	nomacro
	jal	rtl_ppp_vj_check
	move	$19,$2
	.set	macro
	.set	reorder

	li	$3,1			# 0x1
	.set	noreorder
	.set	nomacro
	beq	$2,$3,$L131
	move	$2,$0
	.set	macro
	.set	reorder

	.loc 1 688 0
	.set	noreorder
	.set	nomacro
	jal	rtl_ip_hdr
	move	$4,$17
	.set	macro
	.set	reorder

	.loc 1 690 0
	move	$4,$19
	.set	noreorder
	.set	nomacro
	jal	rtl_get_ppp_xmit_pending
	lbu	$20,1($2)
	.set	macro
	.set	reorder

	.set	noreorder
	.set	nomacro
	bne	$2,$0,$L131
	move	$2,$0
	.set	macro
	.set	reorder

	.loc 1 694 0
	lui	$5,%hi($LC3)
	move	$4,$17
	addiu	$5,$5,%lo($LC3)
	.set	noreorder
	.set	nomacro
	jal	rtl_set_skb_cb
	li	$6,3			# 0x3
	.set	macro
	.set	reorder

	.loc 1 695 0
	lw	$5,56($16)
	.set	noreorder
	.set	nomacro
	jal	rtl_ppp_start_xmit
	move	$4,$17
	.set	macro
	.set	reorder

	.loc 1 696 0
	.set	noreorder
	.set	nomacro
	jal	rtl_get_ppp_xmit_pending
	move	$4,$19
	.set	macro
	.set	reorder

	.set	noreorder
	.set	nomacro
	beq	$2,$0,$L141
	li	$2,1			# 0x1
	.set	macro
	.set	reorder

	.loc 1 701 0
	.set	noreorder
	.set	nomacro
	jal	rtl_get_ppp_xmit_pending
	move	$4,$19
	.set	macro
	.set	reorder

	move	$21,$2
	.loc 1 703 0
	move	$4,$19
	.set	noreorder
	.set	nomacro
	jal	rtl_set_ppp_xmit_pending
	move	$5,$0
	.set	macro
	.set	reorder

	.loc 1 706 0
	.set	noreorder
	.set	nomacro
	jal	rtl_skb_headroom
	move	$4,$21
	.set	macro
	.set	reorder

	sltu	$2,$2,50
	.set	noreorder
	.set	nomacro
	beq	$2,$0,$L135
	move	$4,$21
	.set	macro
	.set	reorder

$L161:
$LBB188 = .
	.loc 1 707 0
	.set	noreorder
	.set	nomacro
	jal	skb_realloc_headroom
	li	$5,50			# 0x32
	.set	macro
	.set	reorder

	.loc 1 708 0
	.set	noreorder
	.set	nomacro
	bne	$2,$0,$L157
	move	$17,$2
	.set	macro
	.set	reorder

	j	$L160
$L135:
$LBE188 = .
	.loc 1 706 0 discriminator 1
	.set	noreorder
	.set	nomacro
	jal	rtl_skb_cloned
	move	$4,$21
	.set	macro
	.set	reorder

	.set	noreorder
	.set	nomacro
	bne	$2,$0,$L161
	move	$4,$21
	.set	macro
	.set	reorder

	.set	noreorder
	.set	nomacro
	jal	rtl_skb_shared
	move	$4,$21
	.set	macro
	.set	reorder

	.set	noreorder
	.set	nomacro
	beq	$2,$0,$L139
	move	$17,$21
	.set	macro
	.set	reorder

$LBE187 = .
	.loc 1 707 0
	.set	noreorder
	.set	nomacro
	j	$L161
	move	$4,$21
	.set	macro
	.set	reorder

$L160:
$LBB215 = .
$LBB189 = .
	.loc 1 710 0
	.set	noreorder
	.set	nomacro
	jal	consume_skb
	move	$4,$21
	.set	macro
	.set	reorder

	.loc 1 711 0
	.set	noreorder
	.set	nomacro
	j	$L131
	li	$2,1			# 0x1
	.set	macro
	.set	reorder

$L157:
	.loc 1 713 0
	.set	noreorder
	.set	nomacro
	jal	consume_skb
	move	$4,$21
	.set	macro
	.set	reorder

$L139:
$LBE189 = .
	.loc 1 719 0
	move	$4,$17
	.set	noreorder
	.set	nomacro
	jal	skb_push
	li	$5,50			# 0x32
	.set	macro
	.set	reorder

$LBB190 = .
	.loc 1 720 0
	lw	$4,24($16)
$LBE190 = .
	.loc 1 726 0
	lbu	$3,16($sp)
	li	$5,4			# 0x4
$LBB191 = .
	.loc 1 720 0
	swl	$4,0($2)
	swr	$4,3($2)
	lbu	$4,28($16)
$LBE191 = .
	.loc 1 726 0
	ins	$3,$5,4,4
	.loc 1 722 0
	li	$6,8			# 0x8
$LBB192 = .
	.loc 1 720 0
	sb	$4,4($2)
	lbu	$4,29($16)
$LBE192 = .
	.loc 1 730 0
	sb	$20,17($sp)
$LBB193 = .
	.loc 1 720 0
	sb	$4,5($2)
$LBE193 = .
$LBB194 = .
	.loc 1 721 0
	lw	$4,12($16)
	swl	$4,6($2)
	swr	$4,9($2)
	lbu	$5,16($16)
$LBE194 = .
	.loc 1 734 0
	move	$4,$17
$LBB195 = .
	.loc 1 721 0
	sb	$5,10($2)
	lbu	$5,17($16)
$LBE195 = .
	.loc 1 722 0
	sb	$6,12($2)
	sb	$0,13($2)
$LBB196 = .
	.loc 1 721 0
	sb	$5,11($2)
$LBE196 = .
	.loc 1 727 0
	li	$2,5			# 0x5
	ins	$3,$2,0,4
	.loc 1 731 0
	lw	$19,32($16)
	.loc 1 732 0
	lw	$21,20($16)
	.loc 1 728 0
	li	$2,16384			# 0x4000
	sh	$2,22($sp)
	.loc 1 729 0
	li	$2,47			# 0x2f
	.loc 1 734 0
	move	$5,$0
	.loc 1 729 0
	sb	$2,25($sp)
	.loc 1 733 0
	li	$2,64			# 0x40
	.loc 1 727 0
	sb	$3,16($sp)
	.loc 1 731 0
	sw	$19,32($sp)
	.loc 1 732 0
	sw	$21,28($sp)
	.loc 1 734 0
	.set	noreorder
	.set	nomacro
	jal	rtl_set_skb_ip_summed
	sb	$2,24($sp)
	.set	macro
	.set	reorder

	.loc 1 735 0
	.set	noreorder
	.set	nomacro
	jal	rtl_get_skb_len
	move	$4,$17
	.set	macro
	.set	reorder

	.loc 1 736 0
	lhu	$3,44($16)
	.loc 1 735 0
	addiu	$2,$2,-14
	sh	$2,18($sp)
	.loc 1 736 0
	addiu	$3,$3,1
	andi	$3,$3,0xffff
	sh	$3,20($sp)
$LBB197 = .
$LBB198 = .
	.loc 3 109 0
	lw	$2,20($sp)
$LBE198 = .
$LBE197 = .
	.loc 1 737 0
	sh	$0,26($sp)
$LBB205 = .
$LBB201 = .
	.loc 3 109 0
	lw	$5,16($sp)
	.loc 3 113 0
	lw	$4,24($sp)
$LBE201 = .
$LBE205 = .
	.loc 1 736 0
	sh	$3,44($16)
$LBB206 = .
$LBB202 = .
	.loc 3 109 0
	addu	$5,$2,$5
	.loc 3 110 0
	sltu	$2,$5,$2
	.loc 3 111 0
	addu	$5,$5,$4
	.loc 3 113 0
	addu	$2,$5,$2
	.loc 3 114 0
	sltu	$4,$2,$4
	.loc 3 115 0
	addu	$2,$2,$21
	.loc 3 117 0
	addu	$4,$2,$4
	.loc 3 119 0
	addu	$2,$4,$19
	.loc 3 118 0
	sltu	$21,$4,$21
	.loc 3 123 0
	addu	$2,$2,$21
$LBE202 = .
$LBE206 = .
$LBB207 = .
	.loc 1 740 0
	move	$4,$17
$LBE207 = .
$LBB208 = .
$LBB203 = .
	.loc 3 124 0
	sltu	$19,$2,$19
$LBE203 = .
$LBE208 = .
	.loc 1 739 0
	sh	$3,46($16)
$LBB209 = .
$LBB204 = .
	.loc 3 125 0
	addu	$2,$19,$2
$LBB199 = .
$LBB200 = .
	.loc 3 78 0
#APP
 # 78 "/home/extra_home/marklee/rtk_OpenWRT_BB/BB_v1407_branch_v25/v25_relase_source_test_0830/rtk_OpenWRT_v2.5_Branch_20160603/build_dir/target-mips_24kec_uClibc-0.9.33.2/linux-rtkmips_rtl8198c/linux-3.10.49/arch/mips/include/asm/checksum.h" 1
		.set	push		# csum_fold
	.set	noat		
	sll	$1, $2, 16	
	addu	$2, $1		
	sltu	$1, $2, $1	
	srl	$2, $2, 16	
	addu	$2, $1		
	xori	$2, 0xffff	
	.set	pop
 # 0 "" 2
#NO_APP
$LBE200 = .
$LBE199 = .
$LBE204 = .
$LBE209 = .
$LBB210 = .
	.loc 1 740 0
	.set	noreorder
	.set	nomacro
	jal	rtl_get_skb_data
	sh	$2,26($sp)
	.set	macro
	.set	reorder

	lw	$5,16($sp)
	lw	$4,20($sp)
	addiu	$3,$2,14
	swl	$5,14($2)
	swr	$5,3($3)
	lw	$5,24($sp)
	swl	$4,4($3)
	swr	$4,7($3)
	lw	$4,28($sp)
	swl	$5,8($3)
	swr	$5,11($3)
	lw	$2,32($sp)
	swl	$4,12($3)
	swr	$4,15($3)
	swl	$2,16($3)
	swr	$2,19($3)
$LBE210 = .
	.loc 1 744 0
	li	$2,48			# 0x30
	sb	$2,36($sp)
	.loc 1 745 0
	li	$2,-127			# 0xffffffffffffff81
	.loc 1 748 0
	move	$4,$17
	.loc 1 745 0
	sb	$2,37($sp)
	.loc 1 746 0
	li	$2,-30709			# 0xffffffffffff880b
	.loc 1 748 0
	.set	noreorder
	.set	nomacro
	jal	rtl_get_skb_len
	sh	$2,38($sp)
	.set	macro
	.set	reorder

	.loc 1 750 0
	lw	$3,36($16)
	.loc 1 749 0
	lhu	$6,18($16)
	.loc 1 751 0
	lw	$5,40($16)
	.loc 1 750 0
	addiu	$7,$3,1
$LBB211 = .
	.loc 1 752 0
	move	$4,$17
$LBE211 = .
	.loc 1 748 0
	addiu	$2,$2,-50
	.loc 1 750 0
	sw	$7,36($16)
	.loc 1 749 0
	sh	$6,42($sp)
	.loc 1 750 0
	sw	$3,44($sp)
	.loc 1 751 0
	sw	$5,48($sp)
$LBB212 = .
	.loc 1 752 0
	.set	noreorder
	.set	nomacro
	jal	rtl_get_skb_data
	sh	$2,40($sp)
	.set	macro
	.set	reorder

	lw	$5,36($sp)
	lw	$4,40($sp)
	addiu	$3,$2,34
	swl	$5,34($2)
	swr	$5,3($3)
	lw	$5,44($sp)
	swl	$4,4($3)
	swr	$4,7($3)
	swl	$5,8($3)
	lw	$2,48($sp)
	swr	$5,11($3)
$LBE212 = .
	.loc 1 753 0
	lui	$4,%hi(jiffies)
	lw	$6,%lo(jiffies)($4)
	.loc 1 756 0
	lw	$5,8($16)
$LBB213 = .
	.loc 1 752 0
	swl	$2,12($3)
$LBE213 = .
	.loc 1 756 0
	move	$4,$17
$LBB214 = .
	.loc 1 752 0
	swr	$2,15($3)
$LBE214 = .
	.loc 1 756 0
	.set	noreorder
	.set	nomacro
	jal	rtl_set_skb_dev
	sw	$6,%lo(pptpAccInfo)($18)
	.set	macro
	.set	reorder

	.loc 1 757 0
	.set	noreorder
	.set	nomacro
	jal	dev_queue_xmit
	move	$4,$17
	.set	macro
	.set	reorder

	.loc 1 758 0
	.set	noreorder
	.set	nomacro
	j	$L131
	li	$2,1			# 0x1
	.set	macro
	.set	reorder

$L133:
$LBE215 = .
	.loc 1 761 0
	lw	$4,56($16)
	beq	$4,$0,$L140
	.loc 1 763 0
	jal	rtl_get_ppp_dev_priv
	bne	$2,$0,$L159
	.loc 1 764 0
	lui	$4,%hi($LC4)
	.set	noreorder
	.set	nomacro
	jal	printk
	addiu	$4,$4,%lo($LC4)
	.set	macro
	.set	reorder

	move	$2,$0
$L141:
$L131:
	.loc 1 768 0
	lw	$31,84($sp)
	lw	$21,80($sp)
	lw	$20,76($sp)
	lw	$19,72($sp)
	lw	$18,68($sp)
	lw	$17,64($sp)
	lw	$16,60($sp)
	.set	noreorder
	.set	nomacro
	j	$31
	addiu	$sp,$sp,88
	.set	macro
	.set	reorder

	.cfi_def_cfa_offset 0
	.cfi_restore 16
	.cfi_restore 17
	.cfi_restore 18
	.cfi_restore 19
	.cfi_restore 20
	.cfi_restore 21
	.cfi_restore 31
	.end	fast_pptp_to_wan
	.cfi_endproc
$LFE3074:
	.size	fast_pptp_to_wan, .-fast_pptp_to_wan
	.align	2
	.globl	fast_pptp_sync_rx_seq
$LFB3075 = .
	.loc 1 773 0
	.cfi_startproc
	.set	nomips16
	.ent	fast_pptp_sync_rx_seq
	.type	fast_pptp_sync_rx_seq, @function
fast_pptp_sync_rx_seq:
	.frame	$sp,24,$31		# vars= 0, regs= 1/0, args= 16, gp= 0
	.mask	0x80000000,-4
	.fmask	0x00000000,0
	.set	noreorder
	.set	nomacro
	addiu	$sp,$sp,-24
	.cfi_def_cfa_offset 24
	sw	$31,20($sp)
	.cfi_offset 31, -4
	.loc 1 775 0
	jal	rtl_ip_hdr
	nop

	.loc 1 779 0
	lbu	$3,21($2)
	li	$4,1			# 0x1
	andi	$5,$3,0x7
	bne	$5,$4,$L172
	lw	$31,20($sp)

	.loc 1 779 0 is_stmt 0 discriminator 1
	lhu	$5,22($2)
	li	$4,34827			# 0x880b
	bne	$5,$4,$L172
	nop

	.loc 1 785 0 is_stmt 1
	lbu	$4,20($2)
	andi	$4,$4,0x10
	beq	$4,$0,$L173
	seb	$3,$3

	.loc 1 787 0
	lui	$3,%hi(pptpAccInfo)
	addiu	$3,$3,%lo(pptpAccInfo)
	lw	$4,52($3)
	addiu	$5,$4,1
	sw	$5,52($3)
	lbu	$3,21($2)
	sw	$4,28($2)
	.loc 1 789 0
	seb	$3,$3
$L173:
	bgez	$3,$L172
	lw	$31,20($sp)

	.loc 1 791 0
	lui	$3,%hi(pptpAccInfo+48)
	lw	$3,%lo(pptpAccInfo+48)($3)
	sw	$3,32($2)
	.loc 1 795 0
	lw	$31,20($sp)
$L172:
	j	$31
	addiu	$sp,$sp,24

	.cfi_def_cfa_offset 0
	.cfi_restore 31
	.set	macro
	.set	reorder
	.end	fast_pptp_sync_rx_seq
	.cfi_endproc
$LFE3075:
	.size	fast_pptp_sync_rx_seq, .-fast_pptp_sync_rx_seq
	.align	2
	.globl	pptpconn_write_proc
$LFB3078 = .
	.loc 1 910 0
	.cfi_startproc
	.set	nomips16
	.ent	pptpconn_write_proc
	.type	pptpconn_write_proc, @function
pptpconn_write_proc:
	.frame	$sp,208,$31		# vars= 200, regs= 1/0, args= 0, gp= 0
	.mask	0x80000000,-4
	.fmask	0x00000000,0
	.loc 1 913 0
	sltu	$4,$6,2
	bne	$4,$0,$L184
	.loc 1 916 0
	.set	noreorder
	.set	nomacro
	beq	$5,$0,$L184
	or	$4,$6,$5
	.set	macro
	.set	reorder

	.loc 1 910 0 discriminator 1
	addiu	$sp,$sp,-208
	.cfi_def_cfa_offset 208
$LBB216 = .
$LBB217 = .
	.loc 1 916 0 discriminator 1
	addu	$2,$6,$5
$LBE217 = .
$LBE216 = .
	.loc 1 910 0 discriminator 1
	sw	$31,204($sp)
	.cfi_offset 31, -4
$LBB220 = .
$LBB218 = .
	.loc 1 916 0 discriminator 1
	or	$2,$4,$2
	lw	$4,24($28)
	and	$2,$2,$4
$LBE218 = .
	.set	noreorder
	.set	nomacro
	bne	$2,$0,$L185
	lw	$31,204($sp)
	.set	macro
	.set	reorder

$LBB219 = .
	move	$4,$sp
#APP
 # 916 "/home/extra_home/marklee/rtk_OpenWRT_BB/BB_v1407_branch_v25/v25_relase_source_test_0830/rtk_OpenWRT_v2.5_Branch_20160603/build_dir/target-mips_24kec_uClibc-0.9.33.2/linux-rtkmips_rtl8198c/fastpath-0.1/fast_pptp_core.c" 1
	.set	noreorder
	.set	noat
	la	$1, __copy_user
	jalr	$1
	.set	at
	.set	noat
	addu	$1, $5, $6
	.set	at
	.set	reorder
 # 0 "" 2
#NO_APP
$LBE219 = .
$LBE220 = .
	.set	noreorder
	.set	nomacro
	beq	$6,$0,$L178
	move	$3,$sp
	.set	macro
	.set	reorder

	.loc 1 920 0
	.set	noreorder
	.set	nomacro
	j	$L185
	lw	$31,204($sp)
	.set	macro
	.set	reorder

$L179:
$LBB221 = .
$LBB222 = .
	.loc 1 902 0
	addu	$2,$6,$4
	.loc 1 903 0
	addiu	$3,$3,1
$L178:
	.loc 1 901 0
	lb	$4,0($3)
	.loc 1 902 0
	sll	$7,$2,1
	sll	$6,$2,3
	.loc 1 901 0
	addiu	$5,$4,-48
	andi	$5,$5,0x00ff
	.loc 1 902 0
	addu	$6,$7,$6
	.loc 1 901 0
	sltu	$5,$5,10
	.set	noreorder
	.set	nomacro
	bne	$5,$0,$L179
	addiu	$6,$6,-48
	.set	macro
	.set	reorder

$LBE222 = .
$LBE221 = .
	.loc 1 917 0
	lui	$3,%hi(pptp_conn_check)
	sw	$2,%lo(pptp_conn_check)($3)
	.loc 1 920 0
	lw	$31,204($sp)
$L185:
	li	$2,-14			# 0xfffffffffffffff2
	.set	noreorder
	.set	nomacro
	j	$31
	addiu	$sp,$sp,208
	.set	macro
	.set	reorder

	.cfi_def_cfa_offset 0
	.cfi_restore 31
$L184:
	.set	noreorder
	.set	nomacro
	j	$31
	li	$2,-14			# 0xfffffffffffffff2
	.set	macro
	.set	reorder

	.end	pptpconn_write_proc
	.cfi_endproc
$LFE3078:
	.size	pptpconn_write_proc, .-pptpconn_write_proc
	.align	2
$LFB3085 = .
	.loc 1 1033 0
	.cfi_startproc
	.set	nomips16
	.ent	pptp_conn_single_write
	.type	pptp_conn_single_write, @function
pptp_conn_single_write:
	.frame	$sp,0,$31		# vars= 0, regs= 0/0, args= 0, gp= 0
	.mask	0x00000000,0
	.fmask	0x00000000,0
	.set	noreorder
	.set	nomacro
	.loc 1 1034 0
	j	pptpconn_write_proc
	nop

	.set	macro
	.set	reorder
	.end	pptp_conn_single_write
	.cfi_endproc
$LFE3085:
	.size	pptp_conn_single_write, .-pptp_conn_single_write
	.align	2
	.globl	ppfw_write_proc
$LFB3079 = .
	.loc 1 924 0
	.cfi_startproc
	.set	nomips16
	.ent	ppfw_write_proc
	.type	ppfw_write_proc, @function
ppfw_write_proc:
	.frame	$sp,32,$31		# vars= 0, regs= 4/0, args= 16, gp= 0
	.mask	0x80070000,-4
	.fmask	0x00000000,0
	addiu	$sp,$sp,-32
	.cfi_def_cfa_offset 32
	.loc 1 935 0
	sltu	$2,$6,2
	.loc 1 924 0
	sw	$16,16($sp)
	sw	$31,28($sp)
	sw	$18,24($sp)
	sw	$17,20($sp)
	.cfi_offset 16, -16
	.cfi_offset 31, -4
	.cfi_offset 18, -8
	.cfi_offset 17, -12
	.loc 1 935 0
	.set	noreorder
	.set	nomacro
	bne	$2,$0,$L203
	move	$16,$6
	.set	macro
	.set	reorder

	move	$18,$5
$LBB223 = .
$LBB224 = .
	.file 5 "include/linux/slub_def.h"
	.loc 5 174 0
	addiu	$4,$6,32
	.set	noreorder
	.set	nomacro
	jal	__kmalloc
	li	$5,32			# 0x20
	.set	macro
	.set	reorder

$LBE224 = .
$LBE223 = .
	.loc 1 939 0
	.set	noreorder
	.set	nomacro
	beq	$2,$0,$L203
	move	$17,$2
	.set	macro
	.set	reorder

	.loc 1 942 0
	.set	noreorder
	.set	nomacro
	beq	$18,$0,$L191
	or	$3,$18,$16
	.set	macro
	.set	reorder

$LBB225 = .
$LBB226 = .
	.loc 1 942 0 is_stmt 0 discriminator 1
	addu	$2,$18,$16
	or	$2,$3,$2
	lw	$3,24($28)
	and	$2,$2,$3
$LBE226 = .
	.set	noreorder
	.set	nomacro
	bne	$2,$0,$L191
	move	$4,$17
	.set	macro
	.set	reorder

$LBB227 = .
	move	$5,$18
	move	$6,$16
#APP
 # 942 "/home/extra_home/marklee/rtk_OpenWRT_BB/BB_v1407_branch_v25/v25_relase_source_test_0830/rtk_OpenWRT_v2.5_Branch_20160603/build_dir/target-mips_24kec_uClibc-0.9.33.2/linux-rtkmips_rtl8198c/fastpath-0.1/fast_pptp_core.c" 1
	.set	noreorder
	.set	noat
	la	$1, __copy_user
	jalr	$1
	.set	at
	.set	noat
	addu	$1, $5, $6
	.set	at
	.set	reorder
 # 0 "" 2
#NO_APP
$LBE227 = .
$LBE225 = .
	.set	noreorder
	.set	nomacro
	bne	$6,$0,$L191
	move	$5,$17
	.set	macro
	.set	reorder

	.loc 1 942 0
	.set	noreorder
	.set	nomacro
	j	$L192
	move	$3,$0
	.set	macro
	.set	reorder

$L193:
$LBB228 = .
$LBB229 = .
	.loc 1 902 0 is_stmt 1
	addu	$3,$9,$7
	.loc 1 903 0
	addiu	$5,$5,1
$L192:
	.loc 1 901 0
	lb	$7,0($5)
	.loc 1 902 0
	sll	$2,$3,1
	sll	$9,$3,3
	.loc 1 901 0
	addiu	$8,$7,-48
	andi	$8,$8,0x00ff
	.loc 1 902 0
	addu	$9,$2,$9
	.loc 1 901 0
	sltu	$8,$8,10
	.set	noreorder
	.set	nomacro
	bne	$8,$0,$L193
	addiu	$9,$9,-48
	.set	macro
	.set	reorder

$LBE229 = .
$LBE228 = .
$LBB230 = .
	.loc 1 946 0
	lui	$4,%hi(pptpAccInfo)
$LBE230 = .
	.loc 1 943 0
	lui	$18,%hi(fast_pptp_fw)
$LBB231 = .
	.loc 1 946 0
	addiu	$4,$4,%lo(pptpAccInfo)
	move	$5,$0
	li	$6,64			# 0x40
	.set	noreorder
	.set	nomacro
	jal	memset
	sw	$3,%lo(fast_pptp_fw)($18)
	.set	macro
	.set	reorder

$LBE231 = .
	.loc 1 973 0
	lw	$2,%lo(fast_pptp_fw)($18)
	.set	noreorder
	.set	nomacro
	beq	$2,$0,$L194
	lui	$3,%hi(sync_tx_pptp_gre_seqno)
	.set	macro
	.set	reorder

	.loc 1 975 0
	addiu	$3,$3,%lo(sync_tx_pptp_gre_seqno)
	lui	$2,%hi(sync_tx_pptp_gre_seqno_hook)
	.set	noreorder
	.set	nomacro
	j	$L195
	sw	$3,%lo(sync_tx_pptp_gre_seqno_hook)($2)
	.set	macro
	.set	reorder

$L194:
	.loc 1 979 0
	lui	$2,%hi(sync_tx_pptp_gre_seqno_hook)
	sw	$0,%lo(sync_tx_pptp_gre_seqno_hook)($2)
$L195:
	.loc 1 982 0
	.set	noreorder
	.set	nomacro
	jal	kfree
	move	$4,$17
	.set	macro
	.set	reorder

	.loc 1 983 0
	.set	noreorder
	.set	nomacro
	j	$L189
	move	$2,$16
	.set	macro
	.set	reorder

$L191:
	.loc 1 986 0
	.set	noreorder
	.set	nomacro
	jal	kfree
	move	$4,$17
	.set	macro
	.set	reorder

$L203:
	.loc 1 987 0
	li	$2,-14			# 0xfffffffffffffff2
$L189:
	.loc 1 988 0
	lw	$31,28($sp)
	lw	$18,24($sp)
	lw	$17,20($sp)
	lw	$16,16($sp)
	.set	noreorder
	.set	nomacro
	j	$31
	addiu	$sp,$sp,32
	.set	macro
	.set	reorder

	.cfi_def_cfa_offset 0
	.cfi_restore 16
	.cfi_restore 17
	.cfi_restore 18
	.cfi_restore 31
	.end	ppfw_write_proc
	.cfi_endproc
$LFE3079:
	.size	ppfw_write_proc, .-ppfw_write_proc
	.align	2
$LFB3083 = .
	.loc 1 1013 0
	.cfi_startproc
	.set	nomips16
	.ent	fastpath_pptp_single_write
	.type	fastpath_pptp_single_write, @function
fastpath_pptp_single_write:
	.frame	$sp,0,$31		# vars= 0, regs= 0/0, args= 0, gp= 0
	.mask	0x00000000,0
	.fmask	0x00000000,0
	.set	noreorder
	.set	nomacro
	.loc 1 1014 0
	j	ppfw_write_proc
	nop

	.set	macro
	.set	reorder
	.end	fastpath_pptp_single_write
	.cfi_endproc
$LFE3083:
	.size	fastpath_pptp_single_write, .-fastpath_pptp_single_write
	.section	.rodata.str1.4
	.align	2
$LC5:
	.ascii	"fast_pptp\000"
	.align	2
$LC6:
	.ascii	"pptp_conn_ck\000"
	.section	.init.text,"ax",@progbits
	.align	2
	.globl	fast_pptp_init
$LFB3086 = .
	.loc 1 1087 0
	.cfi_startproc
	.set	nomips16
	.ent	fast_pptp_init
	.type	fast_pptp_init, @function
fast_pptp_init:
	.frame	$sp,32,$31		# vars= 0, regs= 2/0, args= 24, gp= 0
	.mask	0x80010000,-4
	.fmask	0x00000000,0
	.set	noreorder
	.set	nomacro
	.loc 1 1088 0
	lui	$3,%hi(set_pptp_device)
	.loc 1 1087 0
	addiu	$sp,$sp,-32
	.cfi_def_cfa_offset 32
	.loc 1 1088 0
	addiu	$3,$3,%lo(set_pptp_device)
	lui	$2,%hi(set_pptp_device_fphook)
	sw	$3,%lo(set_pptp_device_fphook)($2)
	.loc 1 1087 0
	sw	$16,24($sp)
	.loc 1 1093 0
	lui	$4,%hi($LC5)
	.cfi_offset 16, -8
	lui	$16,%hi(proc_root)
	lui	$7,%hi(fastpath_pptp_proc_fops)
	.loc 1 1089 0
	lui	$3,%hi(get_fastpptp_lastxmit)
	.loc 1 1093 0
	addiu	$6,$16,%lo(proc_root)
	.loc 1 1089 0
	addiu	$3,$3,%lo(get_fastpptp_lastxmit)
	.loc 1 1093 0
	addiu	$4,$4,%lo($LC5)
	move	$5,$0
	addiu	$7,$7,%lo(fastpath_pptp_proc_fops)
	sw	$0,16($sp)
	.loc 1 1089 0
	lui	$2,%hi(get_fastpptp_lastxmit_fphook)
	.loc 1 1087 0
	sw	$31,28($sp)
	.cfi_offset 31, -4
	.loc 1 1093 0
	jal	proc_create_data
	sw	$3,%lo(get_fastpptp_lastxmit_fphook)($2)

	.loc 1 1096 0
	lui	$4,%hi($LC6)
	lui	$7,%hi(pptp_conn_proc_fops)
	addiu	$6,$16,%lo(proc_root)
	.loc 1 1093 0
	lui	$3,%hi(res1)
	.loc 1 1096 0
	addiu	$4,$4,%lo($LC6)
	move	$5,$0
	addiu	$7,$7,%lo(pptp_conn_proc_fops)
	sw	$0,16($sp)
	jal	proc_create_data
	sw	$2,%lo(res1)($3)

$LBB232 = .
	.loc 1 1113 0
	lui	$4,%hi(pptpAccInfo)
$LBE232 = .
	.loc 1 1096 0
	lui	$3,%hi(res_check_pptp)
$LBB233 = .
	.loc 1 1113 0
	addiu	$4,$4,%lo(pptpAccInfo)
	move	$5,$0
	li	$6,64			# 0x40
	jal	memset
	sw	$2,%lo(res_check_pptp)($3)

$LBE233 = .
	.loc 1 1115 0
	lw	$31,28($sp)
	lw	$16,24($sp)
	move	$2,$0
	j	$31
	addiu	$sp,$sp,32

	.cfi_def_cfa_offset 0
	.cfi_restore 16
	.cfi_restore 31
	.set	macro
	.set	reorder
	.end	fast_pptp_init
	.cfi_endproc
$LFE3086:
	.size	fast_pptp_init, .-fast_pptp_init
	.section	.exit.text,"ax",@progbits
	.align	2
	.globl	fast_pptp_exit
$LFB3087 = .
	.loc 1 1122 0
	.cfi_startproc
	.set	nomips16
	.ent	fast_pptp_exit
	.type	fast_pptp_exit, @function
fast_pptp_exit:
	.frame	$sp,24,$31		# vars= 0, regs= 2/0, args= 16, gp= 0
	.mask	0x80010000,-4
	.fmask	0x00000000,0
	.set	noreorder
	.set	nomacro
	addiu	$sp,$sp,-24
	.cfi_def_cfa_offset 24
	sw	$16,16($sp)
	.cfi_offset 16, -8
	.loc 1 1127 0
	lui	$16,%hi(res1)
	.loc 1 1123 0
	lui	$3,%hi(set_pptp_device_fphook)
	.loc 1 1127 0
	lw	$2,%lo(res1)($16)
	.loc 1 1123 0
	sw	$0,%lo(set_pptp_device_fphook)($3)
	.loc 1 1124 0
	lui	$3,%hi(get_fastpptp_lastxmit_fphook)
	sw	$0,%lo(get_fastpptp_lastxmit_fphook)($3)
	.loc 1 1125 0
	lui	$3,%hi(fast_pptp_fw)
	.loc 1 1122 0
	sw	$31,20($sp)
	.cfi_offset 31, -4
	.loc 1 1127 0
	beq	$2,$0,$L208
	sw	$0,%lo(fast_pptp_fw)($3)

	.loc 1 1129 0
	lui	$4,%hi($LC5)
	lui	$5,%hi(proc_root)
	addiu	$4,$4,%lo($LC5)
	jal	remove_proc_entry
	addiu	$5,$5,%lo(proc_root)

	.loc 1 1133 0
	sw	$0,%lo(res1)($16)
$L208:
	.loc 1 1136 0
	lui	$16,%hi(res_check_pptp)
	lw	$2,%lo(res_check_pptp)($16)
	beq	$2,$0,$L207
	lui	$4,%hi($LC6)

	.loc 1 1138 0
	lui	$5,%hi(proc_root)
	addiu	$4,$4,%lo($LC6)
	jal	remove_proc_entry
	addiu	$5,$5,%lo(proc_root)

	.loc 1 1142 0
	sw	$0,%lo(res_check_pptp)($16)
$L207:
	.loc 1 1145 0
	lw	$31,20($sp)
	lw	$16,16($sp)
	j	$31
	addiu	$sp,$sp,24

	.cfi_def_cfa_offset 0
	.cfi_restore 16
	.cfi_restore 31
	.set	macro
	.set	reorder
	.end	fast_pptp_exit
	.cfi_endproc
$LFE3087:
	.size	fast_pptp_exit, .-fast_pptp_exit
	.local	res_check_pptp
	.comm	res_check_pptp,4,4
	.local	res1
	.comm	res1,4,4
	.globl	pptp_conn_proc_fops
	.data
	.align	2
	.type	pptp_conn_proc_fops, @object
	.size	pptp_conn_proc_fops, 108
pptp_conn_proc_fops:
	.space	4
	.word	seq_lseek
	.word	seq_read
	.word	pptp_conn_single_write
	.space	28
	.word	pptp_conn_single_open
	.space	4
	.word	single_release
	.space	52
	.globl	fastpath_pptp_proc_fops
	.align	2
	.type	fastpath_pptp_proc_fops, @object
	.size	fastpath_pptp_proc_fops, 108
fastpath_pptp_proc_fops:
	.space	4
	.word	seq_lseek
	.word	seq_read
	.word	fastpath_pptp_single_write
	.space	28
	.word	fastpath_pptp_single_open
	.space	4
	.word	single_release
	.space	52
	.local	pptp_conn_check
	.comm	pptp_conn_check,4,4
	.globl	pptp_tcp_finished
	.section	.bss,"aw",@nobits
	.align	2
	.type	pptp_tcp_finished, @object
	.size	pptp_tcp_finished, 4
pptp_tcp_finished:
	.space	4
	.local	pptpAccInfo
	.comm	pptpAccInfo,64,4
	.text
$Letext0:
	.file 6 "include/uapi/asm-generic/int-ll64.h"
	.file 7 "include/asm-generic/int-ll64.h"
	.file 8 "/home/extra_home/marklee/rtk_OpenWRT_BB/BB_v1407_branch_v25/v25_relase_source_test_0830/rtk_OpenWRT_v2.5_Branch_20160603/build_dir/target-mips_24kec_uClibc-0.9.33.2/linux-rtkmips_rtl8198c/linux-3.10.49/include/uapi/asm-generic/posix_types.h"
	.file 9 "include/uapi/linux/types.h"
	.file 10 "include/linux/types.h"
	.file 11 "include/asm-generic/atomic-long.h"
	.file 12 "include/linux/seqlock.h"
	.file 13 "/home/extra_home/marklee/rtk_OpenWRT_BB/BB_v1407_branch_v25/v25_relase_source_test_0830/rtk_OpenWRT_v2.5_Branch_20160603/build_dir/target-mips_24kec_uClibc-0.9.33.2/linux-rtkmips_rtl8198c/linux-3.10.49/arch/mips/include/asm/page.h"
	.file 14 "include/uapi/linux/in.h"
	.file 15 "include/uapi/linux/if_link.h"
	.file 16 "include/uapi/linux/rtnetlink.h"
	.file 17 "include/net/ndisc.h"
	.file 18 "include/linux/inetdevice.h"
	.file 19 "/home/extra_home/marklee/rtk_OpenWRT_BB/BB_v1407_branch_v25/v25_relase_source_test_0830/rtk_OpenWRT_v2.5_Branch_20160603/build_dir/target-mips_24kec_uClibc-0.9.33.2/linux-rtkmips_rtl8198c/linux-3.10.49/arch/mips/include/asm/bitops.h"
	.file 20 "include/linux/kmemleak.h"
	.file 21 "include/linux/log2.h"
	.file 22 "include/asm-generic/getorder.h"
	.file 23 "include/linux/slab.h"
	.file 24 "/home/extra_home/marklee/rtk_OpenWRT_BB/BB_v1407_branch_v25/v25_relase_source_test_0830/rtk_OpenWRT_v2.5_Branch_20160603/build_dir/target-mips_24kec_uClibc-0.9.33.2/linux-rtkmips_rtl8198c/linux-3.10.49/arch/mips/include/asm/thread_info.h"
	.file 25 "include/net/inet_frag.h"
	.file 26 "include/linux/etherdevice.h"
	.file 27 "include/linux/export.h"
	.file 28 "/home/extra_home/marklee/rtk_OpenWRT_BB/BB_v1407_branch_v25/v25_relase_source_test_0830/rtk_OpenWRT_v2.5_Branch_20160603/build_dir/target-mips_24kec_uClibc-0.9.33.2/linux-rtkmips_rtl8198c/linux-3.10.49/arch/mips/include/asm/cpu-info.h"
	.file 29 "include/linux/printk.h"
	.file 30 "include/linux/kernel.h"
	.file 31 "include/linux/cpumask.h"
	.file 32 "include/linux/time.h"
	.file 33 "include/linux/highuid.h"
	.file 34 "include/linux/seq_file.h"
	.file 35 "/home/extra_home/marklee/rtk_OpenWRT_BB/BB_v1407_branch_v25/v25_relase_source_test_0830/rtk_OpenWRT_v2.5_Branch_20160603/build_dir/target-mips_24kec_uClibc-0.9.33.2/linux-rtkmips_rtl8198c/linux-3.10.49/arch/mips/include/asm/io.h"
	.file 36 "include/linux/mm.h"
	.file 37 "include/linux/mmzone.h"
	.file 38 "include/linux/jiffies.h"
	.file 39 "include/linux/workqueue.h"
	.file 40 "/home/extra_home/marklee/rtk_OpenWRT_BB/BB_v1407_branch_v25/v25_relase_source_test_0830/rtk_OpenWRT_v2.5_Branch_20160603/build_dir/target-mips_24kec_uClibc-0.9.33.2/linux-rtkmips_rtl8198c/linux-3.10.49/arch/mips/include/asm/smp.h"
	.file 41 "/home/extra_home/marklee/rtk_OpenWRT_BB/BB_v1407_branch_v25/v25_relase_source_test_0830/rtk_OpenWRT_v2.5_Branch_20160603/build_dir/target-mips_24kec_uClibc-0.9.33.2/linux-rtkmips_rtl8198c/linux-3.10.49/arch/mips/include/asm/smp-ops.h"
	.file 42 "include/asm-generic/percpu.h"
	.file 43 "include/linux/sched.h"
	.file 44 "include/linux/percpu_counter.h"
	.file 45 "include/linux/quota.h"
	.file 46 "include/linux/interrupt.h"
	.file 47 "include/linux/kernel_stat.h"
	.file 48 "include/linux/ioport.h"
	.file 49 "include/linux/debug_locks.h"
	.file 50 "/home/extra_home/marklee/rtk_OpenWRT_BB/BB_v1407_branch_v25/v25_relase_source_test_0830/rtk_OpenWRT_v2.5_Branch_20160603/build_dir/target-mips_24kec_uClibc-0.9.33.2/linux-rtkmips_rtl8198c/linux-3.10.49/arch/mips/include/asm/pgtable-32.h"
	.file 51 "/home/extra_home/marklee/rtk_OpenWRT_BB/BB_v1407_branch_v25/v25_relase_source_test_0830/rtk_OpenWRT_v2.5_Branch_20160603/build_dir/target-mips_24kec_uClibc-0.9.33.2/linux-rtkmips_rtl8198c/linux-3.10.49/arch/mips/include/asm/pgtable.h"
	.file 52 "include/asm-generic/pgtable.h"
	.file 53 "include/linux/vmstat.h"
	.file 54 "include/linux/netfilter.h"
	.file 55 "include/net/net_namespace.h"
	.file 56 "include/linux/netdevice.h"
	.file 57 "include/net/sock.h"
	.file 58 "include/net/inet_sock.h"
	.file 59 "include/net/ip.h"
	.file 60 "include/net/inet_connection_sock.h"
	.file 61 "include/net/route.h"
	.file 62 "include/net/arp.h"
	.file 63 "include/linux/netfilter/x_tables.h"
	.file 64 "include/net/rtl/fastpath/fastpath_core.h"
	.file 65 "include/uapi/linux/netfilter.h"
	.file 66 "/home/extra_home/marklee/rtk_OpenWRT_BB/BB_v1407_branch_v25/v25_relase_source_test_0830/rtk_OpenWRT_v2.5_Branch_20160603/build_dir/target-mips_24kec_uClibc-0.9.33.2/linux-rtkmips_rtl8198c/linux-3.10.49/arch/mips/include/asm/bug.h"