	.section .mdebug.abi32
	.previous
	.gnu_attribute 4, 3
	.text
$Ltext0:
	.cfi_sections	.debug_frame
	.align	2
$LFB3054 = .
	.file 1 "/home/extra_home/marklee/rtk_OpenWRT_BB/BB_v1407_branch_v25/v25_relase_source_test_0830/rtk_OpenWRT_v2.5_Branch_20160603/build_dir/target-mipsel_24kec_uClibc-0.9.33.2/linux-rtkmipsel_rtl8197f/fastpath-0.1/fast_l2tp_core.c"
	.loc 1 455 0
	.cfi_startproc
	.set	nomips16
	.ent	get_fast_l2tp_lastxmit
	.type	get_fast_l2tp_lastxmit, @function
get_fast_l2tp_lastxmit:
	.frame	$sp,0,$31		# vars= 0, regs= 0/0, args= 0, gp= 0
	.mask	0x00000000,0
	.fmask	0x00000000,0
	.set	noreorder
	.set	nomacro
	.loc 1 456 0
	lui	$3,%hi(l2tpInfo)
	addiu	$3,$3,%lo(l2tpInfo)
	lhu	$5,38($3)
	li	$4,1			# 0x1
	bne	$5,$4,$L5
	move	$2,$0

	.loc 1 457 0
	lw	$2,8($3)
$L5:
	.loc 1 459 0
	j	$31
	nop

	.set	macro
	.set	reorder
	.end	get_fast_l2tp_lastxmit
	.cfi_endproc
$LFE3054:
	.size	get_fast_l2tp_lastxmit, .-get_fast_l2tp_lastxmit
	.align	2
$LFB3055 = .
	.loc 1 464 0
	.cfi_startproc
	.set	nomips16
	.ent	check_for_fast_l2tp_to_wan
	.type	check_for_fast_l2tp_to_wan, @function
check_for_fast_l2tp_to_wan:
	.frame	$sp,24,$31		# vars= 0, regs= 2/0, args= 16, gp= 0
	.mask	0x80010000,-4
	.fmask	0x00000000,0
	.set	noreorder
	.set	nomacro
	addiu	$sp,$sp,-24
	.cfi_def_cfa_offset 24
	sw	$16,16($sp)
	sw	$31,20($sp)
	.cfi_offset 16, -8
	.cfi_offset 31, -4
	.loc 1 467 0
	jal	rtl_ip_hdr
	move	$16,$4

	.loc 1 477 0
	jal	rtl_ip_hdr
	move	$4,$16

	lw	$3,12($2)
	.loc 1 481 0
	lw	$31,20($sp)
	.loc 1 477 0
	li	$2,-4259840			# 0xffffffffffbf0000
	ext	$3,$3,0,24
	ori	$2,$2,0xbff6
	addu	$2,$3,$2
	.loc 1 481 0
	lw	$16,16($sp)
	sltu	$2,$0,$2
	j	$31
	addiu	$sp,$sp,24

	.cfi_def_cfa_offset 0
	.cfi_restore 16
	.cfi_restore 31
	.set	macro
	.set	reorder
	.end	check_for_fast_l2tp_to_wan
	.cfi_endproc
$LFE3055:
	.size	check_for_fast_l2tp_to_wan, .-check_for_fast_l2tp_to_wan
	.section	.rodata.str1.4,"aMS",@progbits,1
	.align	2
$LC0:
	.ascii	"ppp0\000"
	.align	2
$LC1:
	.ascii	"eth1\000"
	.align	2
$LC2:
	.ascii	"wlan\000"
	.text
	.align	2
	.globl	l2tp_tx_id
$LFB3052 = .
	.loc 1 104 0
	.cfi_startproc
	.set	nomips16
	.ent	l2tp_tx_id
	.type	l2tp_tx_id, @function
l2tp_tx_id:
	.frame	$sp,40,$31		# vars= 0, regs= 5/0, args= 16, gp= 0
	.mask	0x800f0000,-4
	.fmask	0x00000000,0
	addiu	$sp,$sp,-40
	.cfi_def_cfa_offset 40
	sw	$16,20($sp)
	.cfi_offset 16, -20
	move	$16,$4
	sw	$17,24($sp)
	sw	$31,36($sp)
	sw	$19,32($sp)
	.cfi_offset 17, -16
	.cfi_offset 31, -4
	.cfi_offset 19, -8
	.cfi_offset 18, -12
	.loc 1 114 0
	.set	noreorder
	.set	nomacro
	jal	rtl_get_skb_data
	sw	$18,28($sp)
	.set	macro
	.set	reorder

	.loc 1 115 0
	move	$4,$16
	.set	noreorder
	.set	nomacro
	jal	rtl_ip_hdr
	move	$17,$2
	.set	macro
	.set	reorder

	.loc 1 116 0
	.set	noreorder
	.set	nomacro
	beq	$2,$0,$L8
	li	$4,42246			# 0xa506
	.set	macro
	.set	reorder

	.loc 1 118 0
	lw	$3,0($2)
	andi	$3,$3,0xf
	sll	$3,$3,2
	addu	$3,$2,$3
	.loc 1 120 0
	lhu	$5,0($3)
	.set	noreorder
	.set	nomacro
	bne	$5,$4,$L44
	lw	$31,36($sp)
	.set	macro
	.set	reorder

	.loc 1 120 0 is_stmt 0 discriminator 1
	lhu	$4,2($3)
	bne	$4,$5,$L44
	lhu	$5,8($3)
	andi	$4,$5,0x80
	.set	noreorder
	.set	nomacro
	beq	$4,$0,$L12
	addiu	$4,$3,10
	.set	macro
	.set	reorder

	.loc 1 122 0 is_stmt 1
	andi	$5,$5,0x40
	.loc 1 123 0
	addiu	$3,$3,12
	movn	$4,$3,$5
	.loc 1 127 0
	lhu	$3,14($4)
	.loc 1 128 0
	li	$5,1024			# 0x400
	.set	noreorder
	.set	nomacro
	bne	$3,$5,$L15
	li	$5,2816			# 0xb00
	.set	macro
	.set	reorder

	.loc 1 128 0 is_stmt 0 discriminator 1
	lui	$3,%hi(l2tpInfo)
	addiu	$2,$3,%lo(l2tpInfo)
	lhu	$5,20($2)
	lhu	$4,0($4)
	.set	noreorder
	.set	nomacro
	bne	$5,$4,$L45
	lw	$19,32($sp)
	.set	macro
	.set	reorder

	.loc 1 134 0 is_stmt 1
	lui	$4,%hi($LC0)
$LBB79 = .
	.loc 1 130 0
	sw	$0,%lo(l2tpInfo)($3)
$LBE79 = .
	.loc 1 134 0
	addiu	$4,$4,%lo($LC0)
	li	$5,2			# 0x2
$LBB80 = .
	.loc 1 130 0
	sw	$0,4($2)
	sw	$0,8($2)
	sw	$0,12($2)
	sw	$0,16($2)
	sw	$0,20($2)
	sw	$0,24($2)
	sw	$0,28($2)
	sw	$0,32($2)
$LBE80 = .
	.loc 1 134 0
	.set	noreorder
	.set	nomacro
	jal	rtl865x_setNetifType
	sw	$0,36($2)
	.set	macro
	.set	reorder

	.loc 1 136 0
	lui	$2,%hi(state)
	.set	noreorder
	.set	nomacro
	j	$L8
	sw	$0,%lo(state)($2)
	.set	macro
	.set	reorder

$L15:
	.loc 1 139 0
	.set	noreorder
	.set	nomacro
	bne	$3,$5,$L18
	lui	$18,%hi(state)
	.set	macro
	.set	reorder

$LBB81 = .
	.loc 1 149 0
	lw	$2,%lo(state)($18)
	.set	noreorder
	.set	nomacro
	bne	$2,$0,$L44
	lw	$31,36($sp)
	.set	macro
	.set	reorder

	.loc 1 150 0 discriminator 1
	lui	$19,%hi(rtl865x_curOpMode)
	lw	$2,%lo(rtl865x_curOpMode)($19)
	.loc 1 149 0 discriminator 1
	.set	noreorder
	.set	nomacro
	bne	$2,$0,$L46
	li	$3,2			# 0x2
	.set	macro
	.set	reorder

	.loc 1 150 0
	.set	noreorder
	.set	nomacro
	jal	rtl_get_skb_dev_name
	move	$4,$16
	.set	macro
	.set	reorder

	lui	$5,%hi($LC1)
	move	$4,$2
	addiu	$5,$5,%lo($LC1)
	.set	noreorder
	.set	nomacro
	jal	memcmp
	li	$6,4			# 0x4
	.set	macro
	.set	reorder

	.set	noreorder
	.set	nomacro
	bne	$2,$0,$L20
	lw	$2,%lo(rtl865x_curOpMode)($19)
	.set	macro
	.set	reorder

$L21:
	.loc 1 155 0
	.set	noreorder
	.set	nomacro
	jal	rtl_get_skb_dev
	move	$4,$16
	.set	macro
	.set	reorder

	lui	$3,%hi(l2tpInfo)
	sw	$2,%lo(l2tpInfo)($3)
$LBB82 = .
	.loc 1 156 0
	addiu	$3,$17,-8
	lwl	$5,3($3)
	lui	$6,%hi(l2tpInfo+24)
	addiu	$7,$6,%lo(l2tpInfo+24)
	lwr	$5,0($3)
$LBE82 = .
$LBB83 = .
	.loc 1 157 0
	addiu	$2,$17,-14
	lui	$4,%hi(l2tpInfo+30)
$LBE83 = .
$LBB84 = .
	.loc 1 156 0
	sw	$5,%lo(l2tpInfo+24)($6)
	lbu	$8,4($3)
$LBE84 = .
$LBB85 = .
	.loc 1 157 0
	addiu	$5,$4,%lo(l2tpInfo+30)
$LBE85 = .
$LBB86 = .
	.loc 1 158 0
	lui	$6,%hi(l2tpInfo+36)
$LBE86 = .
$LBB87 = .
	.loc 1 156 0
	sb	$8,4($7)
	lbu	$3,5($3)
$LBE87 = .
$LBB88 = .
	.loc 1 158 0
	addiu	$8,$6,%lo(l2tpInfo+36)
$LBE88 = .
$LBB89 = .
	.loc 1 156 0
	sb	$3,5($7)
$LBE89 = .
$LBB90 = .
	.loc 1 157 0
	lwl	$3,3($2)
	lwr	$3,0($2)
	swl	$3,3($5)
	swr	$3,%lo(l2tpInfo+30)($4)
	lbu	$3,4($2)
	sb	$3,4($5)
	lbu	$2,5($2)
$LBE90 = .
	.loc 1 160 0
	li	$3,1			# 0x1
$LBB91 = .
	.loc 1 157 0
	sb	$2,5($5)
$LBE91 = .
$LBB92 = .
	.loc 1 158 0
	lbu	$2,-2($17)
	sb	$2,%lo(l2tpInfo+36)($6)
	lbu	$2,-1($17)
$LBE92 = .
	.loc 1 160 0
	sw	$3,%lo(state)($18)
$LBE81 = .
	.loc 1 158 0
	.set	noreorder
	.set	nomacro
	j	$L8
	sb	$2,1($8)
	.set	macro
	.set	reorder

$L20:
$LBB93 = .
	.loc 1 151 0
	li	$3,2			# 0x2
$L46:
	.set	noreorder
	.set	nomacro
	bne	$2,$3,$L44
	lw	$31,36($sp)
	.set	macro
	.set	reorder

	.loc 1 151 0 is_stmt 0 discriminator 1
	.set	noreorder
	.set	nomacro
	jal	rtl_get_skb_dev_name
	move	$4,$16
	.set	macro
	.set	reorder

	lui	$5,%hi($LC2)
	move	$4,$2
	addiu	$5,$5,%lo($LC2)
	.set	noreorder
	.set	nomacro
	jal	memcmp
	li	$6,4			# 0x4
	.set	macro
	.set	reorder

	.set	noreorder
	.set	nomacro
	beq	$2,$0,$L21
	lw	$31,36($sp)
	.set	macro
	.set	reorder

$LBE93 = .
	.loc 1 246 0 is_stmt 1
	.set	noreorder
	.set	nomacro
	j	$L45
	lw	$19,32($sp)
	.set	macro
	.set	reorder

$L18:
	.loc 1 164 0
	li	$5,3072			# 0xc00
	.set	noreorder
	.set	nomacro
	bne	$3,$5,$L44
	lw	$31,36($sp)
	.set	macro
	.set	reorder

	.loc 1 164 0 is_stmt 0 discriminator 1
	lhu	$3,2($4)
	.set	noreorder
	.set	nomacro
	beq	$3,$0,$L44
	lui	$16,%hi(state)
	.set	macro
	.set	reorder

	.loc 1 167 0 is_stmt 1
	lw	$3,%lo(state)($16)
	sltu	$3,$3,2
	.set	noreorder
	.set	nomacro
	beq	$3,$0,$L45
	lw	$19,32($sp)
	.set	macro
	.set	reorder

	.loc 1 169 0
	lhu	$3,0($4)
	lui	$17,%hi(l2tpInfo)
	addiu	$17,$17,%lo(l2tpInfo)
	sh	$3,20($17)
	.loc 1 170 0
	lhu	$3,2($4)
	sh	$3,22($17)
	.loc 1 171 0
	lw	$3,12($2)
	sw	$3,16($17)
	.loc 1 172 0
	lw	$2,16($2)
	.loc 1 174 0
	move	$4,$2
	.set	noreorder
	.set	nomacro
	jal	filter_addconnect
	sw	$2,12($17)
	.set	macro
	.set	reorder

	.loc 1 179 0
	lui	$4,%hi($LC0)
	.loc 1 176 0
	li	$2,1			# 0x1
	.loc 1 179 0
	addiu	$4,$4,%lo($LC0)
	li	$5,4			# 0x4
	.set	noreorder
	.set	nomacro
	jal	rtl865x_setNetifType
	sh	$2,38($17)
	.set	macro
	.set	reorder

	.loc 1 182 0
	li	$2,2			# 0x2
	.set	noreorder
	.set	nomacro
	j	$L8
	sw	$2,%lo(state)($16)
	.set	macro
	.set	reorder

$L43:
	.loc 1 199 0
	.set	noreorder
	.set	nomacro
	jal	filter_addconnect
	lw	$4,12($17)
	.set	macro
	.set	reorder

$L23:
	.loc 1 203 0
	lhu	$3,6($16)
	li	$2,8640			# 0x21c0
	.set	noreorder
	.set	nomacro
	bne	$3,$2,$L44
	lw	$31,36($sp)
	.set	macro
	.set	reorder

	.loc 1 206 0
	lbu	$2,8($16)
	li	$3,5			# 0x5
	.set	noreorder
	.set	nomacro
	bne	$2,$3,$L47
	li	$3,6			# 0x6
	.set	macro
	.set	reorder

$LBB94 = .
	.loc 1 208 0
	sw	$0,%lo(l2tpInfo)($18)
	sw	$0,4($17)
	sw	$0,8($17)
	sw	$0,12($17)
	sw	$0,16($17)
	sw	$0,20($17)
	sw	$0,24($17)
	sw	$0,28($17)
	sw	$0,32($17)
	sw	$0,36($17)
	lbu	$2,8($16)
$LBE94 = .
	.loc 1 209 0
	lui	$3,%hi(state)
	sw	$0,%lo(state)($3)
	.loc 1 212 0
	li	$3,6			# 0x6
$L47:
	.set	noreorder
	.set	nomacro
	bne	$2,$3,$L48
	li	$3,1			# 0x1
	.set	macro
	.set	reorder

	.loc 1 214 0
	lhu	$3,20($17)
	lhu	$2,0($16)
	.set	noreorder
	.set	nomacro
	bne	$3,$2,$L44
	lw	$31,36($sp)
	.set	macro
	.set	reorder

	.loc 1 214 0 is_stmt 0 discriminator 1
	lhu	$3,22($17)
	lhu	$2,2($16)
	.set	noreorder
	.set	nomacro
	bne	$3,$2,$L45
	lw	$19,32($sp)
	.set	macro
	.set	reorder

$LBB95 = .
	.loc 1 216 0 is_stmt 1
	move	$4,$17
	move	$5,$0
	.set	noreorder
	.set	nomacro
	jal	memset
	li	$6,40			# 0x28
	.set	macro
	.set	reorder

	lbu	$2,8($16)
$LBE95 = .
	.loc 1 217 0
	lui	$3,%hi(state)
	sw	$0,%lo(state)($3)
	.loc 1 222 0
	li	$3,1			# 0x1
$L48:
	.set	noreorder
	.set	nomacro
	bne	$2,$3,$L8
	li	$2,4			# 0x4
	.set	macro
	.set	reorder

$LBB96 = .
$LBB97 = .
$LBB98 = .
$LBB99 = .
	.file 2 "/home/extra_home/marklee/rtk_OpenWRT_BB/BB_v1407_branch_v25/v25_relase_source_test_0830/rtk_OpenWRT_v2.5_Branch_20160603/build_dir/target-mipsel_24kec_uClibc-0.9.33.2/linux-rtkmipsel_rtl8197f/linux-3.10.49/arch/mips/include/uapi/asm/swab.h"
	.loc 2 20 0
	lhu	$6,10($16)
#APP
 # 20 "/home/extra_home/marklee/rtk_OpenWRT_BB/BB_v1407_branch_v25/v25_relase_source_test_0830/rtk_OpenWRT_v2.5_Branch_20160603/build_dir/target-mipsel_24kec_uClibc-0.9.33.2/linux-rtkmipsel_rtl8197f/linux-3.10.49/arch/mips/include/uapi/asm/swab.h" 1
		wsbh	$6, $6			

 # 0 "" 2
#NO_APP
$LBE99 = .
$LBE98 = .
$LBE97 = .
	.loc 1 224 0
	addiu	$16,$16,8
$LBB102 = .
$LBB101 = .
$LBB100 = .
	.loc 2 20 0
	andi	$6,$6,0xffff
$LBE100 = .
$LBE101 = .
$LBE102 = .
	.loc 1 229 0
	.set	noreorder
	.set	nomacro
	j	$L26
	li	$7,5			# 0x5
	.set	macro
	.set	reorder

$L28:
	.loc 1 233 0
	lbu	$4,0($3)
	.set	noreorder
	.set	nomacro
	bne	$4,$7,$L27
	lbu	$5,1($3)
	.set	macro
	.set	reorder

	.loc 1 235 0
	lw	$3,2($3)
	lui	$2,%hi(l2tp_ppp_imagic)
	.loc 1 236 0
	.set	noreorder
	.set	nomacro
	j	$L8
	sw	$3,%lo(l2tp_ppp_imagic)($2)
	.set	macro
	.set	reorder

$L27:
	.loc 1 238 0
	addu	$2,$2,$5
$L26:
	.loc 1 229 0 discriminator 1
	slt	$4,$2,$6
	.set	noreorder
	.set	nomacro
	bne	$4,$0,$L28
	addu	$3,$16,$2
	.set	macro
	.set	reorder

$LBE96 = .
	.loc 1 246 0
	.set	noreorder
	.set	nomacro
	j	$L44
	lw	$31,36($sp)
	.set	macro
	.set	reorder

$L12:
	.loc 1 198 0
	lui	$18,%hi(l2tpInfo)
	addiu	$17,$18,%lo(l2tpInfo)
	lw	$4,12($17)
	.loc 1 194 0
	addiu	$16,$3,12
	.loc 1 191 0
	andi	$5,$5,0x40
	.loc 1 194 0
	addiu	$3,$3,10
	.loc 1 198 0
	.set	noreorder
	.set	nomacro
	jal	filter_checkConnect
	movz	$16,$3,$5
	.set	macro
	.set	reorder

	beq	$2,$0,$L23
	j	$L43
$L8:
	.loc 1 246 0
	lw	$31,36($sp)
$L44:
	lw	$19,32($sp)
$L45:
	lw	$18,28($sp)
	lw	$17,24($sp)
	lw	$16,20($sp)
	.set	noreorder
	.set	nomacro
	j	$31
	addiu	$sp,$sp,40
	.set	macro
	.set	reorder

	.cfi_def_cfa_offset 0
	.cfi_restore 16
	.cfi_restore 17
	.cfi_restore 18
	.cfi_restore 19
	.cfi_restore 31
	.end	l2tp_tx_id
	.cfi_endproc
$LFE3052:
	.size	l2tp_tx_id, .-l2tp_tx_id
	.align	2
	.globl	fastpath_l2tp_single_open
$LFB3059 = .
	.loc 1 747 0
	.cfi_startproc
	.set	nomips16
	.ent	fastpath_l2tp_single_open
	.type	fastpath_l2tp_single_open, @function
fastpath_l2tp_single_open:
	.frame	$sp,0,$31		# vars= 0, regs= 0/0, args= 0, gp= 0
	.mask	0x00000000,0
	.fmask	0x00000000,0
	.set	noreorder
	.set	nomacro
	.loc 1 748 0
	move	$4,$5
	lui	$5,%hi(l2tp_read_proc)
	move	$6,$0
	j	single_open
	addiu	$5,$5,%lo(l2tp_read_proc)

	.set	macro
	.set	reorder
	.end	fastpath_l2tp_single_open
	.cfi_endproc
$LFE3059:
	.size	fastpath_l2tp_single_open, .-fastpath_l2tp_single_open
	.section	.rodata.str1.4
	.align	2
$LC3:
	.ascii	"%c\012\000"
	.text
	.align	2
$LFB3058 = .
	.loc 1 740 0
	.cfi_startproc
	.set	nomips16
	.ent	l2tp_read_proc
	.type	l2tp_read_proc, @function
l2tp_read_proc:
	.frame	$sp,24,$31		# vars= 0, regs= 1/0, args= 16, gp= 0
	.mask	0x80000000,-4
	.fmask	0x00000000,0
	.set	noreorder
	.set	nomacro
	.loc 1 741 0
	lui	$2,%hi(fast_l2tp_fw)
	lw	$6,%lo(fast_l2tp_fw)($2)
	lui	$5,%hi($LC3)
	.loc 1 740 0
	addiu	$sp,$sp,-24
	.cfi_def_cfa_offset 24
	.loc 1 741 0
	addiu	$5,$5,%lo($LC3)
	.loc 1 740 0
	sw	$31,20($sp)
	.cfi_offset 31, -4
	.loc 1 741 0
	jal	seq_printf
	addiu	$6,$6,48

	.loc 1 744 0
	lw	$31,20($sp)
	move	$2,$0
	j	$31
	addiu	$sp,$sp,24

	.cfi_def_cfa_offset 0
	.cfi_restore 31
	.set	macro
	.set	reorder
	.end	l2tp_read_proc
	.cfi_endproc
$LFE3058:
	.size	l2tp_read_proc, .-l2tp_read_proc
	.align	2
$LFB3049 = .
	.loc 1 68 0
	.cfi_startproc
	.set	nomips16
	.ent	is_l2tp_device
	.type	is_l2tp_device, @function
is_l2tp_device:
	.frame	$sp,24,$31		# vars= 0, regs= 2/0, args= 16, gp= 0
	.mask	0x80010000,-4
	.fmask	0x00000000,0
	.loc 1 69 0
	lui	$2,%hi(l2tpInfo+4)
	lw	$2,%lo(l2tpInfo+4)($2)
	beq	$2,$0,$L54
	.loc 1 68 0 discriminator 1
	addiu	$sp,$sp,-24
	.cfi_def_cfa_offset 24
	sw	$16,16($sp)
	.cfi_offset 16, -8
	move	$16,$4
	sw	$31,20($sp)
	.cfi_offset 31, -4
	.loc 1 69 0 discriminator 1
	.set	noreorder
	.set	nomacro
	jal	rtl_get_ppp_dev_name
	move	$4,$2
	.set	macro
	.set	reorder

$LBB103 = .
$LBB104 = .
	.file 3 "/home/extra_home/marklee/rtk_OpenWRT_BB/BB_v1407_branch_v25/v25_relase_source_test_0830/rtk_OpenWRT_v2.5_Branch_20160603/build_dir/target-mipsel_24kec_uClibc-0.9.33.2/linux-rtkmipsel_rtl8197f/linux-3.10.49/arch/mips/include/asm/string.h"
	.loc 3 77 0 discriminator 1
	move	$4,$16
#APP
 # 77 "/home/extra_home/marklee/rtk_OpenWRT_BB/BB_v1407_branch_v25/v25_relase_source_test_0830/rtk_OpenWRT_v2.5_Branch_20160603/build_dir/target-mipsel_24kec_uClibc-0.9.33.2/linux-rtkmipsel_rtl8197f/linux-3.10.49/arch/mips/include/asm/string.h" 1
	.set	noreorder
	.set	noat
	lbu	$3,($2)
1:	lbu	$1,($4)
	addiu	$2,1
	bne	$1,$3,2f
	addiu	$4,1
	bnez	$3,1b
	lbu	$3,($2)
	move	$3,$1
2:	subu	$3,$1
3:	.set	at
	.set	reorder
 # 0 "" 2
#NO_APP
$LBE104 = .
$LBE103 = .
	.loc 1 69 0 discriminator 1
	sltu	$2,$3,1
	.loc 1 75 0 discriminator 1
	lw	$31,20($sp)
	lw	$16,16($sp)
	.set	noreorder
	.set	nomacro
	j	$31
	addiu	$sp,$sp,24
	.set	macro
	.set	reorder

	.cfi_def_cfa_offset 0
	.cfi_restore 16
	.cfi_restore 31
$L54:
	.loc 1 74 0
	.set	noreorder
	.set	nomacro
	j	$31
	move	$2,$0
	.set	macro
	.set	reorder

	.end	is_l2tp_device
	.cfi_endproc
$LFE3049:
	.size	is_l2tp_device, .-is_l2tp_device
	.align	2
$LFB3050 = .
	.loc 1 78 0
	.cfi_startproc
	.set	nomips16
	.ent	set_l2tp_device
	.type	set_l2tp_device, @function
set_l2tp_device:
	.frame	$sp,24,$31		# vars= 0, regs= 1/0, args= 16, gp= 0
	.mask	0x80000000,-4
	.fmask	0x00000000,0
	.set	noreorder
	.set	nomacro
	.loc 1 79 0
	lui	$2,%hi(fast_l2tp_fw)
	lw	$2,%lo(fast_l2tp_fw)($2)
	beq	$2,$0,$L64
	nop

	.loc 1 78 0
	addiu	$sp,$sp,-24
	.cfi_def_cfa_offset 24
	sw	$31,20($sp)
	.cfi_offset 31, -4
$LBB107 = .
$LBB108 = .
	.loc 1 82 0
	jal	rtl_get_dev_by_name
	nop

	lui	$3,%hi(l2tpInfo+4)
$LBE108 = .
$LBE107 = .
	.loc 1 84 0
	lw	$31,20($sp)
$LBB110 = .
$LBB109 = .
	.loc 1 82 0
	sw	$2,%lo(l2tpInfo+4)($3)
$LBE109 = .
$LBE110 = .
	.loc 1 84 0
	addiu	$sp,$sp,24
	.cfi_restore 31
	.cfi_def_cfa_offset 0
$L64:
	j	$31
	nop

	.set	macro
	.set	reorder
	.end	set_l2tp_device
	.cfi_endproc
$LFE3050:
	.size	set_l2tp_device, .-set_l2tp_device
	.align	2
$LFB3060 = .
	.loc 1 753 0
	.cfi_startproc
	.set	nomips16
	.ent	fastpath_l2tp_single_write
	.type	fastpath_l2tp_single_write, @function
fastpath_l2tp_single_write:
	.frame	$sp,16,$31		# vars= 8, regs= 1/0, args= 0, gp= 0
	.mask	0x80000000,-4
	.fmask	0x00000000,0
$LBB119 = .
$LBB120 = .
	.loc 1 719 0
	sltu	$4,$6,2
	.set	noreorder
	.set	nomacro
	beq	$4,$0,$L66
	move	$2,$6
	.set	macro
	.set	reorder

$LBE120 = .
$LBE119 = .
	.loc 1 720 0
	.set	noreorder
	.set	nomacro
	j	$31
	li	$2,-14			# 0xfffffffffffffff2
	.set	macro
	.set	reorder

$L68:
	.cfi_def_cfa_offset 16
	.cfi_offset 31, -4
	.set	noreorder
	.set	nomacro
	j	$L67
	li	$2,-14			# 0xfffffffffffffff2
	.set	macro
	.set	reorder

$L66:
	.cfi_def_cfa_offset 0
	.cfi_restore 31
$LBB129 = .
$LBB125 = .
	.loc 1 722 0
	.set	noreorder
	.set	nomacro
	beq	$5,$0,$L75
	addiu	$4,$5,1
	.set	macro
	.set	reorder

$LBE125 = .
$LBE129 = .
	.loc 1 753 0
	addiu	$sp,$sp,-16
	.cfi_def_cfa_offset 16
	sw	$31,12($sp)
	.cfi_offset 31, -4
$LBB130 = .
$LBB126 = .
$LBB121 = .
$LBB122 = .
	.loc 1 722 0
	or	$3,$4,$5
	lw	$4,24($28)
	and	$3,$3,$4
$LBE122 = .
	.set	noreorder
	.set	nomacro
	bne	$3,$0,$L68
	move	$4,$sp
	.set	macro
	.set	reorder

$LBB123 = .
	li	$6,1			# 0x1
#APP
 # 722 "/home/extra_home/marklee/rtk_OpenWRT_BB/BB_v1407_branch_v25/v25_relase_source_test_0830/rtk_OpenWRT_v2.5_Branch_20160603/build_dir/target-mipsel_24kec_uClibc-0.9.33.2/linux-rtkmipsel_rtl8197f/fastpath-0.1/fast_l2tp_core.c" 1
	.set	noreorder
	.set	noat
	la	$1, __copy_user
	jalr	$1
	.set	at
	.set	noat
	addu	$1, $5, $6
	.set	at
	.set	reorder
 # 0 "" 2
#NO_APP
$LBE123 = .
$LBE121 = .
	.set	noreorder
	.set	nomacro
	bne	$6,$0,$L68
	lb	$3,0($sp)
	.set	macro
	.set	reorder

	.loc 1 723 0
	lui	$4,%hi(fast_l2tp_fw)
	addiu	$3,$3,-48
	sw	$3,%lo(fast_l2tp_fw)($4)
	.loc 1 724 0
	li	$4,1			# 0x1
	.set	noreorder
	.set	nomacro
	bne	$3,$4,$L69
	lui	$3,%hi(l2tp_tx_id_hook)
	.set	macro
	.set	reorder

	.loc 1 725 0
	lui	$4,%hi(l2tp_tx_id)
	addiu	$4,$4,%lo(l2tp_tx_id)
$LBE126 = .
$LBE130 = .
	.set	noreorder
	.set	nomacro
	j	$L70
	sw	$4,%lo(l2tp_tx_id_hook)($3)
	.set	macro
	.set	reorder

$L69:
$LBB131 = .
$LBB127 = .
	.loc 1 729 0
	sw	$0,%lo(l2tp_tx_id_hook)($3)
$L70:
$LBB124 = .
	.loc 1 732 0
	lui	$4,%hi(l2tpInfo)
	addiu	$3,$4,%lo(l2tpInfo)
	sw	$0,%lo(l2tpInfo)($4)
	sw	$0,4($3)
	sw	$0,8($3)
	sw	$0,12($3)
	sw	$0,16($3)
	sw	$0,20($3)
	sw	$0,24($3)
	sw	$0,28($3)
	sw	$0,32($3)
	sw	$0,36($3)
$LBE124 = .
	.loc 1 733 0
	lui	$3,%hi(state)
	sw	$0,%lo(state)($3)
$L67:
$LBE127 = .
$LBE131 = .
	.loc 1 755 0
	lw	$31,12($sp)
	.set	noreorder
	.set	nomacro
	j	$31
	addiu	$sp,$sp,16
	.set	macro
	.set	reorder

	.cfi_def_cfa_offset 0
	.cfi_restore 31
$L75:
$LBB132 = .
$LBB128 = .
	.loc 1 720 0
	li	$2,-14			# 0xfffffffffffffff2
$LBE128 = .
$LBE132 = .
	.loc 1 755 0
	j	$31
	.end	fastpath_l2tp_single_write
	.cfi_endproc
$LFE3060:
	.size	fastpath_l2tp_single_write, .-fastpath_l2tp_single_write
	.align	2
$LFB3056 = .
	.loc 1 485 0
	.cfi_startproc
	.set	nomips16
	.ent	fast_l2tp_to_wan
	.type	fast_l2tp_to_wan, @function
fast_l2tp_to_wan:
	.frame	$sp,88,$31		# vars= 40, regs= 8/0, args= 16, gp= 0
	.mask	0x807f0000,-4
	.fmask	0x00000000,0
	.loc 1 493 0
	lui	$2,%hi(fast_l2tp_fw)
	lw	$3,%lo(fast_l2tp_fw)($2)
	.set	noreorder
	.set	nomacro
	beq	$3,$0,$L104
	move	$2,$0
	.set	macro
	.set	reorder

	.loc 1 485 0 discriminator 1
	addiu	$sp,$sp,-88
	.cfi_def_cfa_offset 88
	sw	$17,60($sp)
	.cfi_offset 17, -28
	.loc 1 493 0 discriminator 1
	lui	$17,%hi(l2tpInfo)
	.loc 1 485 0 discriminator 1
	sw	$16,56($sp)
	sw	$31,84($sp)
	sw	$22,80($sp)
	sw	$21,76($sp)
	sw	$20,72($sp)
	sw	$19,68($sp)
	sw	$18,64($sp)
	.cfi_offset 16, -32
	.cfi_offset 31, -4
	.cfi_offset 22, -8
	.cfi_offset 21, -12
	.cfi_offset 20, -16
	.cfi_offset 19, -20
	.cfi_offset 18, -24
	.loc 1 493 0 discriminator 1
	addiu	$16,$17,%lo(l2tpInfo)
	lhu	$3,20($16)
	beq	$3,$0,$L78
	lhu	$3,22($16)
	.set	noreorder
	.set	nomacro
	beq	$3,$0,$L78
	lw	$3,%lo(l2tpInfo)($17)
	.set	macro
	.set	reorder

	.set	noreorder
	.set	nomacro
	beq	$3,$0,$L78
	li	$3,1			# 0x1
	.set	macro
	.set	reorder

	.loc 1 496 0
	lhu	$5,38($16)
	.set	noreorder
	.set	nomacro
	bne	$5,$3,$L107
	lw	$31,84($sp)
	.set	macro
	.set	reorder

$LBB154 = .
$LBB155 = .
	.loc 1 499 0
	.set	noreorder
	.set	nomacro
	jal	rtl_ip_hdr
	move	$18,$4
	.set	macro
	.set	reorder

	.loc 1 502 0
	move	$4,$18
$LBB156 = .
$LBB157 = .
$LBB158 = .
	.loc 2 20 0
	lhu	$21,2($2)
$LBE158 = .
$LBE157 = .
$LBE156 = .
	.loc 1 502 0
	.set	noreorder
	.set	nomacro
	jal	rtl_skb_headroom
	move	$20,$2
	.set	macro
	.set	reorder

	sltu	$2,$2,52
$LBB161 = .
$LBB160 = .
$LBB159 = .
	.loc 2 20 0
#APP
 # 20 "/home/extra_home/marklee/rtk_OpenWRT_BB/BB_v1407_branch_v25/v25_relase_source_test_0830/rtk_OpenWRT_v2.5_Branch_20160603/build_dir/target-mipsel_24kec_uClibc-0.9.33.2/linux-rtkmipsel_rtl8197f/linux-3.10.49/arch/mips/include/uapi/asm/swab.h" 1
		wsbh	$21, $21			

 # 0 "" 2
#NO_APP
$LBE159 = .
$LBE160 = .
$LBE161 = .
	.loc 1 502 0
	.set	noreorder
	.set	nomacro
	beq	$2,$0,$L79
	andi	$21,$21,0xffff
	.set	macro
	.set	reorder

$LBB162 = .
	.loc 1 504 0
	move	$4,$18
$L106:
	.set	noreorder
	.set	nomacro
	jal	skb_realloc_headroom
	li	$5,52			# 0x34
	.set	macro
	.set	reorder

	.loc 1 505 0
	.set	noreorder
	.set	nomacro
	bne	$2,$0,$L101
	move	$19,$2
	.set	macro
	.set	reorder

$LBE162 = .
$LBE155 = .
$LBE154 = .
	.loc 1 507 0
	.set	noreorder
	.set	nomacro
	j	$L105
	move	$2,$0
	.set	macro
	.set	reorder

$L79:
$LBB194 = .
$LBB191 = .
	.loc 1 502 0
	.set	noreorder
	.set	nomacro
	jal	rtl_skb_cloned
	move	$4,$18
	.set	macro
	.set	reorder

	.set	noreorder
	.set	nomacro
	bne	$2,$0,$L106
	move	$4,$18
	.set	macro
	.set	reorder

	.set	noreorder
	.set	nomacro
	jal	rtl_skb_shared
	move	$4,$18
	.set	macro
	.set	reorder

	.set	noreorder
	.set	nomacro
	beq	$2,$0,$L83
	move	$19,$18
	.set	macro
	.set	reorder

$LBE191 = .
$LBE194 = .
	.loc 1 504 0
	.set	noreorder
	.set	nomacro
	j	$L106
	move	$4,$18
	.set	macro
	.set	reorder

$L101:
$LBB195 = .
$LBB192 = .
$LBB163 = .
	.loc 1 509 0
	.set	noreorder
	.set	nomacro
	jal	consume_skb
	move	$4,$18
	.set	macro
	.set	reorder

$L83:
$LBE163 = .
$LBB164 = .
	.loc 1 516 0
	move	$4,$19
	li	$5,52			# 0x34
	.set	noreorder
	.set	nomacro
	jal	skb_push
	lbu	$22,1($20)
	.set	macro
	.set	reorder

	lw	$5,24($16)
	move	$3,$2
	lw	$4,28($16)
	lw	$2,32($16)
	swl	$5,3($3)
	swr	$5,0($3)
	swl	$4,7($3)
	swr	$4,4($3)
	swl	$2,11($3)
	swr	$2,8($3)
	lbu	$2,36($16)
$LBE164 = .
	.loc 1 520 0
	lbu	$6,16($sp)
	li	$4,4			# 0x4
$LBB165 = .
	.loc 1 516 0
	sb	$2,12($3)
	lbu	$2,37($16)
$LBE165 = .
	.loc 1 520 0
	ins	$6,$4,4,4
	.loc 1 529 0
	move	$5,$0
$LBB166 = .
	.loc 1 516 0
	sb	$2,13($3)
$LBE166 = .
	.loc 1 526 0
	lw	$18,12($16)
	.loc 1 527 0
	lw	$20,16($16)
	.loc 1 521 0
	li	$3,5			# 0x5
	ins	$6,$3,0,4
	.loc 1 523 0
	li	$2,64			# 0x40
	.loc 1 524 0
	li	$3,17			# 0x11
	.loc 1 529 0
	move	$4,$19
	.loc 1 521 0
	sb	$6,16($sp)
	.loc 1 524 0
	sb	$3,25($sp)
	.loc 1 523 0
	sh	$2,22($sp)
	.loc 1 526 0
	sw	$18,32($sp)
	.loc 1 527 0
	sw	$20,28($sp)
	.loc 1 528 0
	sb	$2,24($sp)
	.loc 1 529 0
	.set	noreorder
	.set	nomacro
	jal	rtl_set_skb_ip_summed
	sb	$22,17($sp)
	.set	macro
	.set	reorder

	.loc 1 530 0
	.set	noreorder
	.set	nomacro
	jal	rtl_get_skb_len
	move	$4,$19
	.set	macro
	.set	reorder

	addiu	$2,$2,-14
	.loc 1 531 0
	sh	$0,20($sp)
$LBB167 = .
$LBB168 = .
$LBB169 = .
	.loc 2 20 0
#APP
 # 20 "/home/extra_home/marklee/rtk_OpenWRT_BB/BB_v1407_branch_v25/v25_relase_source_test_0830/rtk_OpenWRT_v2.5_Branch_20160603/build_dir/target-mipsel_24kec_uClibc-0.9.33.2/linux-rtkmipsel_rtl8197f/linux-3.10.49/arch/mips/include/uapi/asm/swab.h" 1
		wsbh	$2, $2			

 # 0 "" 2
#NO_APP
$LBE169 = .
$LBE168 = .
$LBE167 = .
	.loc 1 530 0
	sh	$2,18($sp)
$LBB170 = .
$LBB171 = .
	.file 4 "/home/extra_home/marklee/rtk_OpenWRT_BB/BB_v1407_branch_v25/v25_relase_source_test_0830/rtk_OpenWRT_v2.5_Branch_20160603/build_dir/target-mipsel_24kec_uClibc-0.9.33.2/linux-rtkmipsel_rtl8197f/linux-3.10.49/arch/mips/include/asm/checksum.h"
	.loc 4 109 0
	lw	$3,20($sp)
$LBE171 = .
$LBE170 = .
	.loc 1 533 0
	sh	$0,26($sp)
$LBB177 = .
$LBB174 = .
	.loc 4 109 0
	lw	$4,16($sp)
	.loc 4 113 0
	lw	$2,24($sp)
$LBE174 = .
$LBE177 = .
	.loc 1 539 0
	addiu	$21,$21,18
$LBB178 = .
$LBB175 = .
	.loc 4 109 0
	addu	$4,$3,$4
	.loc 4 110 0
	sltu	$3,$4,$3
	.loc 4 111 0
	addu	$4,$4,$2
	.loc 4 113 0
	addu	$3,$4,$3
	.loc 4 114 0
	sltu	$2,$3,$2
	.loc 4 115 0
	addu	$3,$3,$20
	.loc 4 117 0
	addu	$2,$3,$2
	.loc 4 118 0
	sltu	$20,$2,$20
	.loc 4 119 0
	addu	$2,$2,$18
	.loc 4 123 0
	addu	$20,$2,$20
$LBE175 = .
$LBE178 = .
$LBB179 = .
	.loc 1 535 0
	move	$4,$19
$LBE179 = .
$LBB180 = .
$LBB176 = .
	.loc 4 124 0
	sltu	$18,$20,$18
	.loc 4 125 0
	addu	$18,$18,$20
$LBB172 = .
$LBB173 = .
	.loc 4 78 0
#APP
 # 78 "/home/extra_home/marklee/rtk_OpenWRT_BB/BB_v1407_branch_v25/v25_relase_source_test_0830/rtk_OpenWRT_v2.5_Branch_20160603/build_dir/target-mipsel_24kec_uClibc-0.9.33.2/linux-rtkmipsel_rtl8197f/linux-3.10.49/arch/mips/include/asm/checksum.h" 1
		.set	push		# csum_fold
	.set	noat		
	sll	$1, $18, 16	
	addu	$18, $1		
	sltu	$1, $18, $1	
	srl	$18, $18, 16	
	addu	$18, $1		
	xori	$18, 0xffff	
	.set	pop
 # 0 "" 2
#NO_APP
$LBE173 = .
$LBE172 = .
$LBE176 = .
$LBE180 = .
$LBB181 = .
	.loc 1 535 0
	.set	noreorder
	.set	nomacro
	jal	rtl_get_skb_data
	sh	$18,26($sp)
	.set	macro
	.set	reorder

	lw	$5,16($sp)
	lw	$4,20($sp)
	addiu	$3,$2,14
	swl	$5,17($2)
	swr	$5,0($3)
	lw	$5,24($sp)
	swl	$4,7($3)
	swr	$4,4($3)
	lw	$4,28($sp)
	swl	$5,11($3)
	swr	$5,8($3)
	lw	$2,32($sp)
	swl	$4,15($3)
	swr	$4,12($3)
	swl	$2,19($3)
$LBE181 = .
	.loc 1 537 0
	li	$4,-23290			# 0xffffffffffffa506
$LBB182 = .
	.loc 1 535 0
	swr	$2,16($3)
$LBE182 = .
	.loc 1 537 0
	sh	$4,36($sp)
	.loc 1 538 0
	sh	$4,38($sp)
$LBB183 = .
$LBB184 = .
$LBB185 = .
	.loc 2 20 0
#APP
 # 20 "/home/extra_home/marklee/rtk_OpenWRT_BB/BB_v1407_branch_v25/v25_relase_source_test_0830/rtk_OpenWRT_v2.5_Branch_20160603/build_dir/target-mipsel_24kec_uClibc-0.9.33.2/linux-rtkmipsel_rtl8197f/linux-3.10.49/arch/mips/include/uapi/asm/swab.h" 1
		wsbh	$21, $21			

 # 0 "" 2
#NO_APP
$LBE185 = .
$LBE184 = .
$LBE183 = .
	.loc 1 539 0
	sh	$21,40($sp)
	.loc 1 540 0
	sh	$0,42($sp)
	.loc 1 543 0
	lhu	$2,22($16)
	.loc 1 542 0
	lhu	$3,20($16)
	.loc 1 541 0
	li	$5,512			# 0x200
	.loc 1 543 0
	sh	$2,48($sp)
	.loc 1 544 0
	li	$2,1023			# 0x3ff
$LBB186 = .
	.loc 1 546 0
	move	$4,$19
$LBE186 = .
	.loc 1 544 0
	sh	$2,50($sp)
	.loc 1 545 0
	li	$2,8448			# 0x2100
	.loc 1 542 0
	sh	$3,46($sp)
	.loc 1 541 0
	sh	$5,44($sp)
$LBB187 = .
	.loc 1 546 0
	.set	noreorder
	.set	nomacro
	jal	rtl_get_skb_data
	sh	$2,52($sp)
	.set	macro
	.set	reorder

	lw	$5,36($sp)
	lw	$4,40($sp)
	addiu	$3,$2,34
	swl	$5,37($2)
	swr	$5,0($3)
	lw	$5,44($sp)
	swl	$4,7($3)
	swr	$4,4($3)
	lw	$2,48($sp)
	swl	$5,11($3)
	lbu	$7,52($sp)
	lbu	$6,53($sp)
	swr	$5,8($3)
$LBE187 = .
	.loc 1 548 0
	lw	$5,%lo(l2tpInfo)($17)
$LBB188 = .
	.loc 1 546 0
	swl	$2,15($3)
	swr	$2,12($3)
$LBE188 = .
	.loc 1 548 0
	move	$4,$19
$LBB189 = .
	.loc 1 546 0
	sb	$7,16($3)
$LBE189 = .
	.loc 1 548 0
	.set	noreorder
	.set	nomacro
	jal	rtl_set_skb_dev
	sb	$6,17($3)
	.set	macro
	.set	reorder

	.loc 1 552 0
	.set	noreorder
	.set	nomacro
	jal	rtl_get_skb_data
	move	$4,$19
	.set	macro
	.set	reorder

	.loc 1 554 0
	.set	noreorder
	.set	nomacro
	jal	timeoutCheck_skipp_pkt
	addiu	$4,$2,52
	.set	macro
	.set	reorder

	li	$3,1			# 0x1
	.set	noreorder
	.set	nomacro
	beq	$2,$3,$L84
	lui	$2,%hi(jiffies)
	.set	macro
	.set	reorder

	.loc 1 555 0
	lw	$2,%lo(jiffies)($2)
	sw	$2,8($16)
$L84:
$LBB190 = .
	.loc 1 562 0
	lw	$4,4($16)
	.set	noreorder
	.set	nomacro
	beq	$4,$0,$L108
	lui	$2,%hi(gQosEnabled)
	.set	macro
	.set	reorder

	jal	rtl_get_ppp_dev_priv
	.set	noreorder
	.set	nomacro
	beq	$2,$0,$L108
	lui	$2,%hi(gQosEnabled)
	.set	macro
	.set	reorder

	.loc 1 563 0
	.set	noreorder
	.set	nomacro
	jal	rtl_get_ppp_dev_priv
	lw	$4,4($16)
	.set	macro
	.set	reorder

	.loc 1 564 0
	move	$4,$19
	.set	noreorder
	.set	nomacro
	jal	rtl_get_skb_len
	move	$16,$2
	.set	macro
	.set	reorder

	move	$6,$2
	move	$4,$16
	.set	noreorder
	.set	nomacro
	jal	rtl_inc_ppp_stats
	li	$5,1			# 0x1
	.set	macro
	.set	reorder

$LBE190 = .
	.loc 1 572 0
	lui	$2,%hi(gQosEnabled)
$L108:
	lw	$2,%lo(gQosEnabled)($2)
	.set	noreorder
	.set	nomacro
	beq	$2,$0,$L88
	move	$4,$19
	.set	macro
	.set	reorder

	.loc 1 575 0
	jal	dev_queue_xmit
$LBE192 = .
$LBE195 = .
	.loc 1 576 0
	.set	noreorder
	.set	nomacro
	j	$L78
	li	$2,1			# 0x1
	.set	macro
	.set	reorder

$L88:
$LBB196 = .
$LBB193 = .
	.loc 1 582 0
	jal	rtl_call_skb_ndo_start_xmit
	li	$2,1			# 0x1
$L105:
$L78:
$LBE193 = .
$LBE196 = .
	.loc 1 584 0
	lw	$31,84($sp)
$L107:
	lw	$22,80($sp)
	lw	$21,76($sp)
	lw	$20,72($sp)
	lw	$19,68($sp)
	lw	$18,64($sp)
	lw	$17,60($sp)
	lw	$16,56($sp)
	addiu	$sp,$sp,88
	.cfi_restore 16
	.cfi_restore 17
	.cfi_restore 18
	.cfi_restore 19
	.cfi_restore 20
	.cfi_restore 21
	.cfi_restore 22
	.cfi_restore 31
	.cfi_def_cfa_offset 0
$L104:
	j	$31
	.end	fast_l2tp_to_wan
	.cfi_endproc
$LFE3056:
	.size	fast_l2tp_to_wan, .-fast_l2tp_to_wan
	.align	2
$LFB3051 = .
	.loc 1 88 0
	.cfi_startproc
	.set	nomips16
	.ent	event_ppp_dev_down
	.type	event_ppp_dev_down, @function
event_ppp_dev_down:
	.frame	$sp,32,$31		# vars= 0, regs= 4/0, args= 16, gp= 0
	.mask	0x80070000,-4
	.fmask	0x00000000,0
	addiu	$sp,$sp,-32
	.cfi_def_cfa_offset 32
	sw	$17,20($sp)
	.cfi_offset 17, -12
	.loc 1 89 0
	lui	$17,%hi(l2tpInfo)
	.loc 1 88 0
	sw	$16,16($sp)
	.cfi_offset 16, -16
	.loc 1 89 0
	addiu	$16,$17,%lo(l2tpInfo)
	lhu	$2,38($16)
	.loc 1 88 0
	sw	$31,28($sp)
	.cfi_offset 31, -4
	.loc 1 89 0
	.set	noreorder
	.set	nomacro
	beq	$2,$0,$L109
	sw	$18,24($sp)
	.set	macro
	.set	reorder

	.cfi_offset 18, -8
	move	$18,$4
	.loc 1 91 0
	lw	$4,4($16)
	.set	noreorder
	.set	nomacro
	beq	$4,$0,$L117
	lw	$31,28($sp)
	.set	macro
	.set	reorder

	.loc 1 91 0 is_stmt 0 discriminator 1
	jal	rtl_get_ppp_dev_name
$LBB204 = .
$LBB205 = .
	.loc 3 77 0 is_stmt 1 discriminator 1
	move	$4,$18
#APP
 # 77 "/home/extra_home/marklee/rtk_OpenWRT_BB/BB_v1407_branch_v25/v25_relase_source_test_0830/rtk_OpenWRT_v2.5_Branch_20160603/build_dir/target-mipsel_24kec_uClibc-0.9.33.2/linux-rtkmipsel_rtl8197f/linux-3.10.49/arch/mips/include/asm/string.h" 1
	.set	noreorder
	.set	noat
	lbu	$3,($2)
1:	lbu	$1,($4)
	addiu	$2,1
	bne	$1,$3,2f
	addiu	$4,1
	bnez	$3,1b
	lbu	$3,($2)
	move	$3,$1
2:	subu	$3,$1
3:	.set	at
	.set	reorder
 # 0 "" 2
#NO_APP
$LBE205 = .
$LBE204 = .
	.loc 1 91 0 discriminator 1
	.set	noreorder
	.set	nomacro
	bne	$3,$0,$L117
	lw	$31,28($sp)
	.set	macro
	.set	reorder

$LBB206 = .
$LBB207 = .
	.loc 1 94 0
	lui	$2,%hi(state)
$LBB208 = .
	.loc 1 93 0
	sw	$0,%lo(l2tpInfo)($17)
$LBE208 = .
	.loc 1 94 0
	sw	$0,%lo(state)($2)
$LBB209 = .
	.loc 1 93 0
	sw	$0,4($16)
	sw	$0,8($16)
	sw	$0,12($16)
	sw	$0,16($16)
	sw	$0,20($16)
	sw	$0,24($16)
	sw	$0,28($16)
	sw	$0,32($16)
	sw	$0,36($16)
$L109:
$LBE209 = .
$LBE207 = .
$LBE206 = .
	.loc 1 97 0
	lw	$31,28($sp)
$L117:
	lw	$18,24($sp)
	lw	$17,20($sp)
	lw	$16,16($sp)
	.set	noreorder
	.set	nomacro
	j	$31
	addiu	$sp,$sp,32
	.set	macro
	.set	reorder

	.cfi_def_cfa_offset 0
	.cfi_restore 16
	.cfi_restore 17
	.cfi_restore 18
	.cfi_restore 31
	.end	event_ppp_dev_down
	.cfi_endproc
$LFE3051:
	.size	event_ppp_dev_down, .-event_ppp_dev_down
	.align	2
	.globl	fast_l2tp_rx
$LFB3053 = .
	.loc 1 353 0
	.cfi_startproc
	.set	nomips16
	.ent	fast_l2tp_rx
	.type	fast_l2tp_rx, @function
fast_l2tp_rx:
	.frame	$sp,40,$31		# vars= 0, regs= 6/0, args= 16, gp= 0
	.mask	0x801f0000,-4
	.fmask	0x00000000,0
	.set	noreorder
	.set	nomacro
	addiu	$sp,$sp,-40
	.cfi_def_cfa_offset 40
	sw	$31,36($sp)
	sw	$19,28($sp)
	sw	$18,24($sp)
	sw	$17,20($sp)
	sw	$16,16($sp)
	sw	$20,32($sp)
	.cfi_offset 31, -4
	.cfi_offset 19, -12
	.cfi_offset 18, -16
	.cfi_offset 17, -20
	.cfi_offset 16, -24
	.cfi_offset 20, -8
	.loc 1 354 0
	jal	rtl_ip_hdr
	move	$16,$4

	move	$17,$2
	.loc 1 355 0
	lw	$2,0($2)
	.loc 1 363 0
	move	$4,$16
	jal	rtl_get_skb_data
	andi	$18,$2,0xf

	.loc 1 365 0
	move	$4,$16
	jal	rtl_get_skb_len
	move	$19,$2

	sltu	$2,$2,40
	bne	$2,$0,$L149
	sll	$18,$18,2

	.loc 1 355 0
	addu	$18,$17,$18
	.loc 1 368 0
	lhu	$3,0($18)
	li	$5,42246			# 0xa506
	bne	$3,$5,$L120
	move	$2,$0

	.loc 1 368 0 is_stmt 0 discriminator 1
	lhu	$2,2($18)
	bne	$2,$3,$L120
	move	$2,$0

	.loc 1 369 0 is_stmt 1
	lui	$20,%hi(l2tpInfo)
	lw	$2,%lo(l2tpInfo)($20)
	bne	$2,$0,$L122
	nop

	.loc 1 370 0
	jal	l2tp_tx_id
	move	$4,$16

$L122:
	.loc 1 379 0
	lbu	$2,28($19)
	.loc 1 356 0
	li	$3,2			# 0x2
	.loc 1 402 0
	move	$4,$19
	.loc 1 379 0
	andi	$18,$2,0x40
	.loc 1 356 0
	movz	$3,$0,$18
	.loc 1 382 0
	andi	$2,$2,0x2
	.loc 1 383 0
	addu	$18,$3,$2
	.loc 1 402 0
	move	$5,$18
	jal	fast_l2tp_tx_lcp_echo_reply
	move	$6,$16

	li	$3,1			# 0x1
	beq	$2,$3,$L120
	addiu	$20,$20,%lo(l2tpInfo)

	.loc 1 404 0
	lhu	$2,20($20)
	beq	$2,$0,$L120
	move	$2,$0

	.loc 1 404 0 is_stmt 0 discriminator 1
	lhu	$2,22($20)
	beq	$2,$0,$L149
	addu	$2,$19,$18

	lbu	$3,36($2)
	bne	$3,$0,$L149
	nop

	lbu	$3,37($2)
	li	$2,33			# 0x21
	bne	$3,$2,$L120
	move	$2,$0

	lui	$2,%hi(l2tpInfo)
	lw	$2,%lo(l2tpInfo)($2)
	beq	$2,$0,$L120
	move	$2,$0

	.loc 1 405 0 is_stmt 1
	lw	$3,16($20)
	lw	$2,16($17)
	bne	$3,$2,$L120
	move	$2,$0

	.loc 1 415 0
	lw	$2,4($20)
	bne	$2,$0,$L150
	addiu	$18,$18,38

	addiu	$18,$18,-38
	.loc 1 417 0
	lui	$4,%hi($LC0)
	jal	rtl_get_dev_by_name
	addiu	$4,$4,%lo($LC0)

	.loc 1 420 0
	beq	$2,$0,$L149
	sw	$2,4($20)

	.loc 1 421 0
	addiu	$18,$18,38
$L150:
	addu	$19,$19,$18
	lbu	$3,9($19)
	li	$4,6			# 0x6
	beq	$3,$4,$L126
	andi	$5,$3,0xef

	.loc 1 422 0
	li	$4,1			# 0x1
	beq	$5,$4,$L126
	li	$4,47			# 0x2f

	.loc 1 423 0
	bne	$3,$4,$L149
	nop

$L126:
	.loc 1 426 0
	move	$5,$2
	jal	rtl_set_skb_dev
	move	$4,$16

	.loc 1 427 0
	move	$5,$18
	jal	skb_pull
	move	$4,$16

	.loc 1 428 0
	jal	rtl_skb_reset_network_header
	move	$4,$16

	.loc 1 429 0
	jal	rtl_skb_reset_transport_header
	move	$4,$16

$LBB210 = .
	.loc 1 434 0
	lw	$4,4($20)
	beq	$4,$0,$L120
	move	$2,$0

	.loc 1 434 0 is_stmt 0 discriminator 1
	jal	rtl_get_ppp_dev_priv
	nop

	beq	$2,$0,$L120
	move	$2,$0

	.loc 1 435 0 is_stmt 1
	jal	rtl_get_ppp_dev_priv
	lw	$4,4($20)

	.loc 1 436 0
	move	$4,$16
	jal	rtl_get_skb_len
	move	$17,$2

	move	$6,$2
	move	$4,$17
	jal	rtl_inc_ppp_stats
	move	$5,$0

$L149:
$LBE210 = .
	.loc 1 450 0
	move	$2,$0
$L120:
	.loc 1 452 0
	lw	$31,36($sp)
	lw	$20,32($sp)
	lw	$19,28($sp)
	lw	$18,24($sp)
	lw	$17,20($sp)
	lw	$16,16($sp)
	j	$31
	addiu	$sp,$sp,40

	.cfi_def_cfa_offset 0
	.cfi_restore 16
	.cfi_restore 17
	.cfi_restore 18
	.cfi_restore 19
	.cfi_restore 20
	.cfi_restore 31
	.set	macro
	.set	reorder
	.end	fast_l2tp_rx
	.cfi_endproc
$LFE3053:
	.size	fast_l2tp_rx, .-fast_l2tp_rx
	.section	.rodata.str1.4
	.align	2
$LC4:
	.ascii	"fast_l2tp\000"
	.section	.init.text,"ax",@progbits
	.align	2
	.globl	fast_l2tp_init
$LFB3061 = .
	.loc 1 796 0
	.cfi_startproc
	.set	nomips16
	.ent	fast_l2tp_init
	.type	fast_l2tp_init, @function
fast_l2tp_init:
	.frame	$sp,32,$31		# vars= 0, regs= 1/0, args= 24, gp= 0
	.mask	0x80000000,-4
	.fmask	0x00000000,0
	.set	noreorder
	.set	nomacro
	.loc 1 797 0
	lui	$3,%hi(event_ppp_dev_down)
	addiu	$3,$3,%lo(event_ppp_dev_down)
	lui	$2,%hi(event_ppp_dev_down_fphook)
	sw	$3,%lo(event_ppp_dev_down_fphook)($2)
	.loc 1 798 0
	lui	$3,%hi(set_l2tp_device)
	addiu	$3,$3,%lo(set_l2tp_device)
	lui	$2,%hi(set_l2tp_device_fphook)
	sw	$3,%lo(set_l2tp_device_fphook)($2)
	.loc 1 799 0
	lui	$3,%hi(get_fast_l2tp_lastxmit)
	addiu	$3,$3,%lo(get_fast_l2tp_lastxmit)
	lui	$2,%hi(get_fast_l2tp_lastxmit_fphook)
	sw	$3,%lo(get_fast_l2tp_lastxmit_fphook)($2)
	.loc 1 800 0
	lui	$3,%hi(is_l2tp_device)
	addiu	$3,$3,%lo(is_l2tp_device)
	lui	$2,%hi(is_l2tp_device_fphook)
	sw	$3,%lo(is_l2tp_device_fphook)($2)
	.loc 1 801 0
	lui	$3,%hi(check_for_fast_l2tp_to_wan)
	addiu	$3,$3,%lo(check_for_fast_l2tp_to_wan)
	lui	$2,%hi(check_for_fast_l2tp_to_wan_fphook)
	.loc 1 796 0
	addiu	$sp,$sp,-32
	.cfi_def_cfa_offset 32
	.loc 1 801 0
	sw	$3,%lo(check_for_fast_l2tp_to_wan_fphook)($2)
	.loc 1 806 0
	lui	$4,%hi($LC4)
	lui	$6,%hi(proc_root)
	lui	$7,%hi(fastpath_l2tp_proc_fops)
	.loc 1 802 0
	lui	$3,%hi(fast_l2tp_to_wan)
	addiu	$3,$3,%lo(fast_l2tp_to_wan)
	.loc 1 806 0
	addiu	$4,$4,%lo($LC4)
	move	$5,$0
	addiu	$6,$6,%lo(proc_root)
	addiu	$7,$7,%lo(fastpath_l2tp_proc_fops)
	sw	$0,16($sp)
	.loc 1 802 0
	lui	$2,%hi(fast_l2tp_to_wan_fphook)
	.loc 1 796 0
	sw	$31,28($sp)
	.cfi_offset 31, -4
	.loc 1 806 0
	jal	proc_create_data
	sw	$3,%lo(fast_l2tp_to_wan_fphook)($2)

	lui	$3,%hi(res1)
	sw	$2,%lo(res1)($3)
	.loc 1 817 0
	lui	$2,%hi(l2tp_tx_id_hook)
	sw	$0,%lo(l2tp_tx_id_hook)($2)
$LBB211 = .
	.loc 1 820 0
	lui	$4,%hi(l2tpInfo)
$LBE211 = .
	.loc 1 818 0
	lui	$2,%hi(fast_l2tp_fw)
	sw	$0,%lo(fast_l2tp_fw)($2)
$LBB212 = .
	.loc 1 820 0
	addiu	$4,$4,%lo(l2tpInfo)
$LBE212 = .
	.loc 1 819 0
	lui	$2,%hi(state)
$LBB213 = .
	.loc 1 820 0
	move	$5,$0
	li	$6,40			# 0x28
	jal	memset
	sw	$0,%lo(state)($2)

$LBE213 = .
	.loc 1 822 0
	lw	$31,28($sp)
	move	$2,$0
	j	$31
	addiu	$sp,$sp,32

	.cfi_def_cfa_offset 0
	.cfi_restore 31
	.set	macro
	.set	reorder
	.end	fast_l2tp_init
	.cfi_endproc
$LFE3061:
	.size	fast_l2tp_init, .-fast_l2tp_init
	.section	.exit.text,"ax",@progbits
	.align	2
	.globl	fast_l2tp_exit
$LFB3062 = .
	.loc 1 825 0
	.cfi_startproc
	.set	nomips16
	.ent	fast_l2tp_exit
	.type	fast_l2tp_exit, @function
fast_l2tp_exit:
	.frame	$sp,24,$31		# vars= 0, regs= 2/0, args= 16, gp= 0
	.mask	0x80010000,-4
	.fmask	0x00000000,0
	.set	noreorder
	.set	nomacro
	.loc 1 826 0
	lui	$3,%hi(event_ppp_dev_down_fphook)
	sw	$0,%lo(event_ppp_dev_down_fphook)($3)
	.loc 1 827 0
	lui	$3,%hi(set_l2tp_device_fphook)
	.loc 1 825 0
	addiu	$sp,$sp,-24
	.cfi_def_cfa_offset 24
	.loc 1 827 0
	sw	$0,%lo(set_l2tp_device_fphook)($3)
	.loc 1 828 0
	lui	$3,%hi(get_fast_l2tp_lastxmit_fphook)
	sw	$0,%lo(get_fast_l2tp_lastxmit_fphook)($3)
	.loc 1 825 0
	sw	$16,16($sp)
	.loc 1 829 0
	lui	$3,%hi(is_l2tp_device_fphook)
	.cfi_offset 16, -8
	.loc 1 834 0
	lui	$16,%hi(res1)
	.loc 1 829 0
	sw	$0,%lo(is_l2tp_device_fphook)($3)
	.loc 1 834 0
	lw	$2,%lo(res1)($16)
	.loc 1 830 0
	lui	$3,%hi(check_for_fast_l2tp_to_wan_fphook)
	sw	$0,%lo(check_for_fast_l2tp_to_wan_fphook)($3)
	.loc 1 831 0
	lui	$3,%hi(fast_l2tp_to_wan_fphook)
	sw	$0,%lo(fast_l2tp_to_wan_fphook)($3)
	.loc 1 832 0
	lui	$3,%hi(fast_l2tp_fw)
	.loc 1 825 0
	sw	$31,20($sp)
	.cfi_offset 31, -4
	.loc 1 834 0
	beq	$2,$0,$L153
	sw	$0,%lo(fast_l2tp_fw)($3)

	.loc 1 836 0
	lui	$4,%hi($LC4)
	lui	$5,%hi(proc_root)
	addiu	$4,$4,%lo($LC4)
	jal	remove_proc_entry
	addiu	$5,$5,%lo(proc_root)

	.loc 1 840 0
	sw	$0,%lo(res1)($16)
$L153:
	.loc 1 843 0
	lw	$31,20($sp)
	lw	$16,16($sp)
	j	$31
	addiu	$sp,$sp,24

	.cfi_def_cfa_offset 0
	.cfi_restore 16
	.cfi_restore 31
	.set	macro
	.set	reorder
	.end	fast_l2tp_exit
	.cfi_endproc
$LFE3062:
	.size	fast_l2tp_exit, .-fast_l2tp_exit
	.local	res1
	.comm	res1,4,4
	.globl	fastpath_l2tp_proc_fops
	.data
	.align	2
	.type	fastpath_l2tp_proc_fops, @object
	.size	fastpath_l2tp_proc_fops, 108
fastpath_l2tp_proc_fops:
	.space	4
	.word	seq_lseek
	.word	seq_read
	.word	fastpath_l2tp_single_write
	.space	28
	.word	fastpath_l2tp_single_open
	.space	4
	.word	single_release
	.space	52
	.globl	l2tp_ppp_imagic
	.section	.bss,"aw",@nobits
	.align	2
	.type	l2tp_ppp_imagic, @object
	.size	l2tp_ppp_imagic, 4
l2tp_ppp_imagic:
	.space	4
	.globl	l2tpInfo
	.align	2
	.type	l2tpInfo, @object
	.size	l2tpInfo, 40
l2tpInfo:
	.space	40
	.globl	l2tp_tx_id_hook
	.align	2
	.type	l2tp_tx_id_hook, @object
	.size	l2tp_tx_id_hook, 4
l2tp_tx_id_hook:
	.space	4
	.text
$Letext0:
	.file 5 "include/uapi/asm-generic/int-ll64.h"
	.file 6 "include/asm-generic/int-ll64.h"
	.file 7 "/home/extra_home/marklee/rtk_OpenWRT_BB/BB_v1407_branch_v25/v25_relase_source_test_0830/rtk_OpenWRT_v2.5_Branch_20160603/build_dir/target-mipsel_24kec_uClibc-0.9.33.2/linux-rtkmipsel_rtl8197f/linux-3.10.49/include/uapi/asm-generic/posix_types.h"
	.file 8 "include/uapi/linux/types.h"
	.file 9 "include/linux/types.h"
	.file 10 "include/asm-generic/atomic-long.h"
	.file 11 "/home/extra_home/marklee/rtk_OpenWRT_BB/BB_v1407_branch_v25/v25_relase_source_test_0830/rtk_OpenWRT_v2.5_Branch_20160603/build_dir/target-mipsel_24kec_uClibc-0.9.33.2/linux-rtkmipsel_rtl8197f/linux-3.10.49/arch/mips/include/asm/page.h"
	.file 12 "include/uapi/linux/in.h"
	.file 13 "include/uapi/linux/if_link.h"
	.file 14 "include/uapi/linux/rtnetlink.h"
	.file 15 "include/net/ndisc.h"
	.file 16 "include/net/rtl/rtl_types.h"
	.file 17 "include/uapi/linux/swab.h"
	.file 18 "/home/extra_home/marklee/rtk_OpenWRT_BB/BB_v1407_branch_v25/v25_relase_source_test_0830/rtk_OpenWRT_v2.5_Branch_20160603/build_dir/target-mipsel_24kec_uClibc-0.9.33.2/linux-rtkmipsel_rtl8197f/linux-3.10.49/arch/mips/include/asm/thread_info.h"
	.file 19 "include/net/inet_frag.h"
	.file 20 "include/linux/etherdevice.h"
	.file 21 "include/linux/export.h"
	.file 22 "/home/extra_home/marklee/rtk_OpenWRT_BB/BB_v1407_branch_v25/v25_relase_source_test_0830/rtk_OpenWRT_v2.5_Branch_20160603/build_dir/target-mipsel_24kec_uClibc-0.9.33.2/linux-rtkmipsel_rtl8197f/linux-3.10.49/arch/mips/include/asm/cpu-info.h"
	.file 23 "include/linux/printk.h"
	.file 24 "include/linux/kernel.h"
	.file 25 "include/linux/cpumask.h"
	.file 26 "include/linux/time.h"
	.file 27 "include/linux/highuid.h"
	.file 28 "include/linux/seq_file.h"
	.file 29 "/home/extra_home/marklee/rtk_OpenWRT_BB/BB_v1407_branch_v25/v25_relase_source_test_0830/rtk_OpenWRT_v2.5_Branch_20160603/build_dir/target-mipsel_24kec_uClibc-0.9.33.2/linux-rtkmipsel_rtl8197f/linux-3.10.49/arch/mips/include/asm/io.h"
	.file 30 "include/linux/mm.h"
	.file 31 "include/linux/mmzone.h"
	.file 32 "include/linux/jiffies.h"
	.file 33 "include/linux/workqueue.h"
	.file 34 "include/linux/sched.h"
	.file 35 "include/linux/quota.h"
	.file 36 "include/linux/interrupt.h"
	.file 37 "include/linux/kernel_stat.h"
	.file 38 "include/linux/slab.h"
	.file 39 "include/linux/ioport.h"
	.file 40 "include/linux/debug_locks.h"
	.file 41 "/home/extra_home/marklee/rtk_OpenWRT_BB/BB_v1407_branch_v25/v25_relase_source_test_0830/rtk_OpenWRT_v2.5_Branch_20160603/build_dir/target-mipsel_24kec_uClibc-0.9.33.2/linux-rtkmipsel_rtl8197f/linux-3.10.49/arch/mips/include/asm/pgtable-32.h"
	.file 42 "/home/extra_home/marklee/rtk_OpenWRT_BB/BB_v1407_branch_v25/v25_relase_source_test_0830/rtk_OpenWRT_v2.5_Branch_20160603/build_dir/target-mipsel_24kec_uClibc-0.9.33.2/linux-rtkmipsel_rtl8197f/linux-3.10.49/arch/mips/include/asm/pgtable.h"
	.file 43 "include/asm-generic/pgtable.h"
	.file 44 "include/linux/vmstat.h"
	.file 45 "include/linux/netfilter.h"
	.file 46 "include/net/net_namespace.h"
	.file 47 "include/net/sock.h"
	.file 48 "include/net/inet_sock.h"
	.file 49 "include/net/ip.h"
	.file 50 "include/net/inet_connection_sock.h"
	.file 51 "include/net/route.h"
	.file 52 "include/net/arp.h"
	.file 53 "include/net/rtl/fastpath/fastpath_core.h"
	.file 54 "/home/extra_home/marklee/rtk_OpenWRT_BB/BB_v1407_branch_v25/v25_relase_source_test_0830/rtk_OpenWRT_v2.5_Branch_20160603/build_dir/target-mipsel_24kec_uClibc-0.9.33.2/linux-rtkmipsel_rtl8197f/fastpath-0.1/fast_l2tp_core.h"