	.section .mdebug.abi32
	.previous
	.gnu_attribute 4, 3
	.text
$Ltext0:
	.cfi_sections	.debug_frame
	.align	2
	.globl	sync_tx_pptp_gre_seqno
$LFB3083 = .
	.file 1 "/home/extra_home/marklee/rtk_OpenWRT_BB/BB_v1407_branch_v25/v25_relase_source_test_0830/rtk_OpenWRT_v2.5_Branch_20160603/build_dir/target-mipsel_24kec_uClibc-0.9.33.2/linux-rtkmipsel_rtl8197f/fastpath-0.1/fast_pptp_core.c"
	.loc 1 801 0
	.cfi_startproc
	.set	nomips16
	.ent	sync_tx_pptp_gre_seqno
	.type	sync_tx_pptp_gre_seqno, @function
sync_tx_pptp_gre_seqno:
	.frame	$sp,40,$31		# vars= 8, regs= 4/0, args= 16, gp= 0
	.mask	0x80070000,-4
	.fmask	0x00000000,0
	addiu	$sp,$sp,-40
	.cfi_def_cfa_offset 40
	sw	$18,32($sp)
	sw	$31,36($sp)
	sw	$17,28($sp)
	sw	$16,24($sp)
	.cfi_offset 18, -8
	.cfi_offset 31, -4
	.cfi_offset 17, -12
	.cfi_offset 16, -16
	.loc 1 802 0
	.set	noreorder
	.set	nomacro
	jal	rtl_get_skb_data
	move	$18,$4
	.set	macro
	.set	reorder

	.loc 1 808 0
	lui	$3,%hi(fast_pptp_fw)
	lw	$3,%lo(fast_pptp_fw)($3)
	.set	noreorder
	.set	nomacro
	beq	$3,$0,$L1
	move	$17,$2
	.set	macro
	.set	reorder

$LBB238 = .
$LBB239 = .
	.file 2 "/home/extra_home/marklee/rtk_OpenWRT_BB/BB_v1407_branch_v25/v25_relase_source_test_0830/rtk_OpenWRT_v2.5_Branch_20160603/build_dir/target-mipsel_24kec_uClibc-0.9.33.2/linux-rtkmipsel_rtl8197f/linux-3.10.49/arch/mips/include/asm/irqflags.h"
	.loc 2 39 0
#APP
 # 39 "/home/extra_home/marklee/rtk_OpenWRT_BB/BB_v1407_branch_v25/v25_relase_source_test_0830/rtk_OpenWRT_v2.5_Branch_20160603/build_dir/target-mipsel_24kec_uClibc-0.9.33.2/linux-rtkmipsel_rtl8197f/linux-3.10.49/arch/mips/include/asm/irqflags.h" 1
		.set	push						
	.set	reorder						
	.set	noat						
	di	$16					
	andi	$16, 1					
	sll $0, $0, 3			
	.set	pop						

 # 0 "" 2
#NO_APP
$LBE239 = .
$LBE238 = .
	.loc 1 813 0
	lbu	$3,23($2)
	li	$2,47			# 0x2f
	bne	$3,$2,$L4
	.loc 1 813 0 is_stmt 0 discriminator 1
	.set	noreorder
	.set	nomacro
	jal	rtl_get_skb_len
	move	$4,$18
	.set	macro
	.set	reorder

	sltu	$2,$2,35
	bne	$2,$0,$L4
$LBB240 = .
	.loc 1 821 0 is_stmt 1
	.set	noreorder
	.set	nomacro
	jal	rtl_get_skb_data
	move	$4,$18
	.set	macro
	.set	reorder

	lw	$3,14($17)
	andi	$3,$3,0xf
	sll	$3,$3,2
	addiu	$3,$3,14
	addu	$2,$2,$3
$LBB241 = .
$LBB242 = .
	.loc 1 93 0
	lbu	$4,3($2)
$LBE242 = .
$LBE241 = .
	.loc 1 824 0
	lbu	$3,1($2)
$LBB244 = .
$LBB243 = .
	.loc 1 93 0
	lbu	$6,2($2)
	sb	$4,21($sp)
$LBE243 = .
$LBE244 = .
	.loc 1 824 0
	andi	$5,$3,0x7
	li	$4,1			# 0x1
	.set	noreorder
	.set	nomacro
	bne	$5,$4,$L4
	sb	$6,20($sp)
	.set	macro
	.set	reorder

$LBB245 = .
$LBB246 = .
$LBB247 = .
	.file 3 "/home/extra_home/marklee/rtk_OpenWRT_BB/BB_v1407_branch_v25/v25_relase_source_test_0830/rtk_OpenWRT_v2.5_Branch_20160603/build_dir/target-mipsel_24kec_uClibc-0.9.33.2/linux-rtkmipsel_rtl8197f/linux-3.10.49/arch/mips/include/uapi/asm/swab.h"
	.loc 3 20 0
	lhu	$5,20($sp)
$LBE247 = .
$LBE246 = .
$LBE245 = .
	.loc 1 824 0
	li	$4,34827			# 0x880b
$LBB250 = .
$LBB249 = .
$LBB248 = .
	.loc 3 20 0
#APP
 # 20 "/home/extra_home/marklee/rtk_OpenWRT_BB/BB_v1407_branch_v25/v25_relase_source_test_0830/rtk_OpenWRT_v2.5_Branch_20160603/build_dir/target-mipsel_24kec_uClibc-0.9.33.2/linux-rtkmipsel_rtl8197f/linux-3.10.49/arch/mips/include/uapi/asm/swab.h" 1
		wsbh	$5, $5			

 # 0 "" 2
#NO_APP
	andi	$5,$5,0xffff
$LBE248 = .
$LBE249 = .
$LBE250 = .
	.loc 1 824 0
	bne	$5,$4,$L4
	.loc 1 861 0
	lbu	$4,0($2)
	andi	$4,$4,0x10
	.set	noreorder
	.set	nomacro
	beq	$4,$0,$L9
	move	$5,$0
	.set	macro
	.set	reorder

	.loc 1 862 0
	lui	$4,%hi(pptpAccInfo)
	addiu	$4,$4,%lo(pptpAccInfo)
	lhu	$6,18($17)
	lhu	$5,46($4)
	beq	$6,$5,$L17
	.loc 1 863 0
	lhu	$7,6($2)
	lhu	$6,18($4)
	.set	noreorder
	.set	nomacro
	bne	$7,$6,$L9
	li	$5,1			# 0x1
	.set	macro
	.set	reorder

	.loc 1 863 0 is_stmt 0 discriminator 1
	lw	$7,32($4)
	lw	$6,30($17)
	bne	$7,$6,$L9
	.loc 1 868 0 is_stmt 1
	lw	$3,36($4)
$LBB251 = .
$LBB252 = .
$LBB253 = .
	.loc 3 31 0
	lw	$5,8($2)
#APP
 # 31 "/home/extra_home/marklee/rtk_OpenWRT_BB/BB_v1407_branch_v25/v25_relase_source_test_0830/rtk_OpenWRT_v2.5_Branch_20160603/build_dir/target-mipsel_24kec_uClibc-0.9.33.2/linux-rtkmipsel_rtl8197f/linux-3.10.49/arch/mips/include/uapi/asm/swab.h" 1
		wsbh	$5, $5			
	rotr	$5, $5, 16		

 # 0 "" 2
#NO_APP
$LBE253 = .
$LBE252 = .
$LBE251 = .
	.loc 1 868 0
	addiu	$6,$3,1
$LBB254 = .
$LBB255 = .
	.loc 1 93 0
	srl	$9,$5,8
	srl	$8,$5,16
	srl	$7,$5,24
	sb	$5,48($4)
$LBE255 = .
$LBE254 = .
	.loc 1 868 0
	sw	$6,36($4)
$LBB257 = .
$LBB256 = .
	.loc 1 93 0
	sb	$9,49($4)
	sb	$8,50($4)
	sb	$7,51($4)
$LBE256 = .
$LBE257 = .
$LBB258 = .
$LBB259 = .
$LBB260 = .
	.loc 3 31 0
#APP
 # 31 "/home/extra_home/marklee/rtk_OpenWRT_BB/BB_v1407_branch_v25/v25_relase_source_test_0830/rtk_OpenWRT_v2.5_Branch_20160603/build_dir/target-mipsel_24kec_uClibc-0.9.33.2/linux-rtkmipsel_rtl8197f/linux-3.10.49/arch/mips/include/uapi/asm/swab.h" 1
		wsbh	$3, $3			
	rotr	$3, $3, 16		

 # 0 "" 2
#NO_APP
$LBE260 = .
$LBE259 = .
$LBE258 = .
$LBB261 = .
$LBB262 = .
	.loc 1 93 0
	srl	$5,$3,16
	srl	$6,$3,8
	srl	$4,$3,24
$LBE262 = .
$LBE261 = .
	.loc 1 868 0
	sw	$3,16($sp)
$LBB264 = .
$LBB263 = .
	.loc 1 93 0
	sb	$3,8($2)
	sb	$5,10($2)
	sb	$6,9($2)
	sb	$4,11($2)
	lbu	$3,1($2)
$LBE263 = .
$LBE264 = .
$LBE240 = .
	.loc 1 815 0
	.set	noreorder
	.set	nomacro
	j	$L9
	move	$5,$0
	.set	macro
	.set	reorder

$L17:
$LBB285 = .
	.loc 1 873 0
	li	$5,1			# 0x1
$L9:
	.loc 1 875 0
	seb	$3,$3
	.set	noreorder
	.set	nomacro
	bltz	$3,$L10
	lui	$3,%hi(pptpAccInfo)
	.set	macro
	.set	reorder

$L12:
	.loc 1 884 0
	.set	noreorder
	.set	nomacro
	beq	$5,$0,$L11
	addiu	$8,$17,14
	.set	macro
	.set	reorder

	j	$L4
$L10:
	.loc 1 876 0
	addiu	$3,$3,%lo(pptpAccInfo)
	lhu	$6,6($2)
	lhu	$4,18($3)
	bne	$6,$4,$L4
	.loc 1 876 0 is_stmt 0 discriminator 1
	lw	$6,32($3)
	lw	$4,30($17)
	bne	$6,$4,$L4
$LBB265 = .
$LBB266 = .
$LBB267 = .
	.loc 3 31 0 is_stmt 1
	lw	$3,40($3)
#APP
 # 31 "/home/extra_home/marklee/rtk_OpenWRT_BB/BB_v1407_branch_v25/v25_relase_source_test_0830/rtk_OpenWRT_v2.5_Branch_20160603/build_dir/target-mipsel_24kec_uClibc-0.9.33.2/linux-rtkmipsel_rtl8197f/linux-3.10.49/arch/mips/include/uapi/asm/swab.h" 1
		wsbh	$3, $3			
	rotr	$3, $3, 16		

 # 0 "" 2
#NO_APP
$LBE267 = .
$LBE266 = .
$LBE265 = .
$LBB268 = .
$LBB269 = .
	.loc 1 93 0
	srl	$7,$3,8
	srl	$6,$3,16
	srl	$4,$3,24
$LBE269 = .
$LBE268 = .
	.loc 1 879 0
	sw	$3,16($sp)
$LBB271 = .
$LBB270 = .
	.loc 1 93 0
	sb	$3,12($2)
	sb	$7,13($2)
	sb	$6,14($2)
$LBE270 = .
$LBE271 = .
$LBE285 = .
	.set	noreorder
	.set	nomacro
	j	$L12
	sb	$4,15($2)
	.set	macro
	.set	reorder

$L11:
$LBB286 = .
	.loc 1 885 0
	lui	$4,%hi(pptpAccInfo)
	addiu	$4,$4,%lo(pptpAccInfo)
	lhu	$3,44($4)
$LBB272 = .
$LBB273 = .
	.file 4 "/home/extra_home/marklee/rtk_OpenWRT_BB/BB_v1407_branch_v25/v25_relase_source_test_0830/rtk_OpenWRT_v2.5_Branch_20160603/build_dir/target-mipsel_24kec_uClibc-0.9.33.2/linux-rtkmipsel_rtl8197f/linux-3.10.49/arch/mips/include/asm/checksum.h"
	.loc 4 121 0
	addiu	$2,$17,30
$LBE273 = .
$LBE272 = .
	.loc 1 885 0
	addiu	$3,$3,1
	andi	$3,$3,0xffff
	sh	$3,44($4)
$LBB279 = .
$LBB280 = .
$LBB281 = .
	.loc 3 20 0
#APP
 # 20 "/home/extra_home/marklee/rtk_OpenWRT_BB/BB_v1407_branch_v25/v25_relase_source_test_0830/rtk_OpenWRT_v2.5_Branch_20160603/build_dir/target-mipsel_24kec_uClibc-0.9.33.2/linux-rtkmipsel_rtl8197f/linux-3.10.49/arch/mips/include/uapi/asm/swab.h" 1
		wsbh	$3, $3			

 # 0 "" 2
#NO_APP
$LBE281 = .
$LBE280 = .
$LBE279 = .
	.loc 1 885 0
	sh	$3,18($17)
	.loc 1 887 0
	lw	$5,14($17)
$LBB282 = .
$LBB276 = .
	.loc 4 109 0
	lw	$6,18($17)
$LBE276 = .
$LBE282 = .
	.loc 1 886 0
	sh	$0,24($17)
$LBB283 = .
$LBB277 = .
	.loc 4 113 0
	lw	$3,22($17)
	.loc 4 109 0
	addu	$7,$6,$5
	.loc 4 117 0
	lw	$4,26($17)
	.loc 4 110 0
	sltu	$6,$7,$6
	.loc 4 111 0
	addu	$7,$7,$3
	.loc 4 113 0
	addu	$6,$7,$6
	.loc 4 114 0
	sltu	$3,$6,$3
	.loc 4 115 0
	addu	$6,$6,$4
	.loc 4 117 0
	addu	$3,$6,$3
$LBE277 = .
$LBE283 = .
	.loc 1 887 0
	andi	$5,$5,0xf
$LBB284 = .
$LBB278 = .
	.loc 4 104 0
	sll	$5,$5,2
	.loc 4 118 0
	sltu	$4,$3,$4
	.loc 4 104 0
	addu	$5,$8,$5
	.loc 4 119 0
	addu	$3,$4,$3
$L14:
	.loc 4 123 0
	lw	$4,0($2)
	.loc 4 126 0
	addiu	$2,$2,4
	.loc 4 123 0
	addu	$3,$3,$4
	.loc 4 124 0
	sltu	$4,$3,$4
	.loc 4 127 0
	.set	noreorder
	.set	nomacro
	bne	$5,$2,$L14
	addu	$3,$4,$3
	.set	macro
	.set	reorder

$LBB274 = .
$LBB275 = .
	.loc 4 78 0
#APP
 # 78 "/home/extra_home/marklee/rtk_OpenWRT_BB/BB_v1407_branch_v25/v25_relase_source_test_0830/rtk_OpenWRT_v2.5_Branch_20160603/build_dir/target-mipsel_24kec_uClibc-0.9.33.2/linux-rtkmipsel_rtl8197f/linux-3.10.49/arch/mips/include/asm/checksum.h" 1
		.set	push		# csum_fold
	.set	noat		
	sll	$1, $3, 16	
	addu	$3, $1		
	sltu	$1, $3, $1	
	srl	$3, $3, 16	
	addu	$3, $1		
	xori	$3, 0xffff	
	.set	pop
 # 0 "" 2
	.loc 4 91 0
#NO_APP
	sh	$3,24($17)
$L4:
$LBE275 = .
$LBE274 = .
$LBE278 = .
$LBE284 = .
$LBE286 = .
$LBB287 = .
$LBB288 = .
	.loc 2 58 0
#APP
 # 58 "/home/extra_home/marklee/rtk_OpenWRT_BB/BB_v1407_branch_v25/v25_relase_source_test_0830/rtk_OpenWRT_v2.5_Branch_20160603/build_dir/target-mipsel_24kec_uClibc-0.9.33.2/linux-rtkmipsel_rtl8197f/linux-3.10.49/arch/mips/include/asm/irqflags.h" 1
		.set	push						
	.set	noreorder					
	.set	noat						
	beqz	$16, 1f					
	di							
	ei							
1:								
	sll $0, $0, 3			
	.set	pop						

 # 0 "" 2
#NO_APP
$L1:
$LBE288 = .
$LBE287 = .
	.loc 1 894 0
	lw	$31,36($sp)
	lw	$18,32($sp)
	lw	$17,28($sp)
	lw	$16,24($sp)
	.set	noreorder
	.set	nomacro
	j	$31
	addiu	$sp,$sp,40
	.set	macro
	.set	reorder

	.cfi_def_cfa_offset 0
	.cfi_restore 16
	.cfi_restore 17
	.cfi_restore 18
	.cfi_restore 31
	.end	sync_tx_pptp_gre_seqno
	.cfi_endproc
$LFE3083:
	.size	sync_tx_pptp_gre_seqno, .-sync_tx_pptp_gre_seqno
	.section	.rodata.str1.4,"aMS",@progbits,1
	.align	2
$LC0:
	.ascii	"%d\012\000"
	.text
	.align	2
	.globl	ppfw_read_proc
$LFB3087 = .
	.loc 1 993 0
	.cfi_startproc
	.set	nomips16
	.ent	ppfw_read_proc
	.type	ppfw_read_proc, @function
ppfw_read_proc:
	.frame	$sp,24,$31		# vars= 0, regs= 1/0, args= 16, gp= 0
	.mask	0x80000000,-4
	.fmask	0x00000000,0
	.set	noreorder
	.set	nomacro
	.loc 1 994 0
	lui	$2,%hi(fast_pptp_fw)
	lw	$6,%lo(fast_pptp_fw)($2)
	lui	$5,%hi($LC0)
	.loc 1 993 0
	addiu	$sp,$sp,-24
	.cfi_def_cfa_offset 24
	sw	$31,20($sp)
	.cfi_offset 31, -4
	.loc 1 994 0
	jal	seq_printf
	addiu	$5,$5,%lo($LC0)

	.loc 1 997 0
	lw	$31,20($sp)
	move	$2,$0
	j	$31
	addiu	$sp,$sp,24

	.cfi_def_cfa_offset 0
	.cfi_restore 31
	.set	macro
	.set	reorder
	.end	ppfw_read_proc
	.cfi_endproc
$LFE3087:
	.size	ppfw_read_proc, .-ppfw_read_proc
	.align	2
	.globl	pptpconn_read_proc
$LFB3088 = .
	.loc 1 1000 0
	.cfi_startproc
	.set	nomips16
	.ent	pptpconn_read_proc
	.type	pptpconn_read_proc, @function
pptpconn_read_proc:
	.frame	$sp,24,$31		# vars= 0, regs= 1/0, args= 16, gp= 0
	.mask	0x80000000,-4
	.fmask	0x00000000,0
	.set	noreorder
	.set	nomacro
	.loc 1 1001 0
	lui	$2,%hi(pptp_conn_check)
	lw	$6,%lo(pptp_conn_check)($2)
	lui	$5,%hi($LC0)
	.loc 1 1000 0
	addiu	$sp,$sp,-24
	.cfi_def_cfa_offset 24
	sw	$31,20($sp)
	.cfi_offset 31, -4
	.loc 1 1001 0
	jal	seq_printf
	addiu	$5,$5,%lo($LC0)

	.loc 1 1004 0
	lw	$31,20($sp)
	move	$2,$0
	j	$31
	addiu	$sp,$sp,24

	.cfi_def_cfa_offset 0
	.cfi_restore 31
	.set	macro
	.set	reorder
	.end	pptpconn_read_proc
	.cfi_endproc
$LFE3088:
	.size	pptpconn_read_proc, .-pptpconn_read_proc
	.align	2
	.globl	fastpath_pptp_single_open
$LFB3089 = .
	.loc 1 1007 0
	.cfi_startproc
	.set	nomips16
	.ent	fastpath_pptp_single_open
	.type	fastpath_pptp_single_open, @function
fastpath_pptp_single_open:
	.frame	$sp,0,$31		# vars= 0, regs= 0/0, args= 0, gp= 0
	.mask	0x00000000,0
	.fmask	0x00000000,0
	.set	noreorder
	.set	nomacro
	.loc 1 1008 0
	move	$4,$5
	lui	$5,%hi(ppfw_read_proc)
	move	$6,$0
	j	single_open
	addiu	$5,$5,%lo(ppfw_read_proc)

	.set	macro
	.set	reorder
	.end	fastpath_pptp_single_open
	.cfi_endproc
$LFE3089:
	.size	fastpath_pptp_single_open, .-fastpath_pptp_single_open
	.align	2
	.globl	pptp_conn_single_open
$LFB3091 = .
	.loc 1 1027 0
	.cfi_startproc
	.set	nomips16
	.ent	pptp_conn_single_open
	.type	pptp_conn_single_open, @function
pptp_conn_single_open:
	.frame	$sp,0,$31		# vars= 0, regs= 0/0, args= 0, gp= 0
	.mask	0x00000000,0
	.fmask	0x00000000,0
	.set	noreorder
	.set	nomacro
	.loc 1 1028 0
	move	$4,$5
	lui	$5,%hi(pptpconn_read_proc)
	move	$6,$0
	j	single_open
	addiu	$5,$5,%lo(pptpconn_read_proc)

	.set	macro
	.set	reorder
	.end	pptp_conn_single_open
	.cfi_endproc
$LFE3091:
	.size	pptp_conn_single_open, .-pptp_conn_single_open
	.align	2
$LFB3080 = .
	.loc 1 646 0
	.cfi_startproc
	.set	nomips16
	.ent	get_fastpptp_lastxmit
	.type	get_fastpptp_lastxmit, @function
get_fastpptp_lastxmit:
	.frame	$sp,0,$31		# vars= 0, regs= 0/0, args= 0, gp= 0
	.mask	0x00000000,0
	.fmask	0x00000000,0
	.set	noreorder
	.set	nomacro
	.loc 1 647 0
	lui	$2,%hi(fast_pptp_fw)
	lw	$3,%lo(fast_pptp_fw)($2)
	beq	$3,$0,$L38
	move	$2,$0

$LBB291 = .
$LBB292 = .
	lui	$3,%hi(pptpAccInfo)
	addiu	$2,$3,%lo(pptpAccInfo)
	lw	$2,4($2)
	.loc 1 648 0
	lw	$3,%lo(pptpAccInfo)($3)
	xori	$2,$2,0x1
	movn	$3,$0,$2
	move	$2,$3
$L38:
$LBE292 = .
$LBE291 = .
	.loc 1 651 0
	j	$31
	nop

	.set	macro
	.set	reorder
	.end	get_fastpptp_lastxmit
	.cfi_endproc
$LFE3080:
	.size	get_fastpptp_lastxmit, .-get_fastpptp_lastxmit
	.align	2
$LFB3075 = .
	.loc 1 81 0
	.cfi_startproc
	.set	nomips16
	.ent	set_pptp_device
	.type	set_pptp_device, @function
set_pptp_device:
	.frame	$sp,24,$31		# vars= 0, regs= 1/0, args= 16, gp= 0
	.mask	0x80000000,-4
	.fmask	0x00000000,0
	.set	noreorder
	.set	nomacro
	.loc 1 82 0
	lui	$2,%hi(fast_pptp_fw)
	lw	$2,%lo(fast_pptp_fw)($2)
	beq	$2,$0,$L46
	nop

	.loc 1 81 0
	addiu	$sp,$sp,-24
	.cfi_def_cfa_offset 24
	sw	$31,20($sp)
	.cfi_offset 31, -4
$LBB295 = .
$LBB296 = .
	.loc 1 85 0
	jal	rtl_get_dev_by_name
	nop

	lui	$3,%hi(pptpAccInfo+56)
$LBE296 = .
$LBE295 = .
	.loc 1 87 0
	lw	$31,20($sp)
$LBB298 = .
$LBB297 = .
	.loc 1 85 0
	sw	$2,%lo(pptpAccInfo+56)($3)
$LBE297 = .
$LBE298 = .
	.loc 1 87 0
	addiu	$sp,$sp,24
	.cfi_restore 31
	.cfi_def_cfa_offset 0
$L46:
	j	$31
	nop

	.set	macro
	.set	reorder
	.end	set_pptp_device
	.cfi_endproc
$LFE3075:
	.size	set_pptp_device, .-set_pptp_device
	.align	2
	.globl	Get_fast_pptp_fw
$LFB3073 = .
	.loc 1 57 0
	.cfi_startproc
	.set	nomips16
	.ent	Get_fast_pptp_fw
	.type	Get_fast_pptp_fw, @function
Get_fast_pptp_fw:
	.frame	$sp,0,$31		# vars= 0, regs= 0/0, args= 0, gp= 0
	.mask	0x00000000,0
	.fmask	0x00000000,0
	.set	noreorder
	.set	nomacro
	.loc 1 58 0
	lui	$2,%hi(fast_pptp_fw)
	.loc 1 60 0
	j	$31
	lw	$2,%lo(fast_pptp_fw)($2)

	.set	macro
	.set	reorder
	.end	Get_fast_pptp_fw
	.cfi_endproc
$LFE3073:
	.size	Get_fast_pptp_fw, .-Get_fast_pptp_fw
	.align	2
	.globl	is_pptp_device
$LFB3074 = .
	.loc 1 71 0
	.cfi_startproc
	.set	nomips16
	.ent	is_pptp_device
	.type	is_pptp_device, @function
is_pptp_device:
	.frame	$sp,24,$31		# vars= 0, regs= 2/0, args= 16, gp= 0
	.mask	0x80010000,-4
	.fmask	0x00000000,0
	.loc 1 72 0
	lui	$2,%hi(pptpAccInfo+56)
	lw	$2,%lo(pptpAccInfo+56)($2)
	beq	$2,$0,$L50
	.loc 1 71 0 discriminator 1
	addiu	$sp,$sp,-24
	.cfi_def_cfa_offset 24
	sw	$16,16($sp)
	.cfi_offset 16, -8
	move	$16,$4
	sw	$31,20($sp)
	.cfi_offset 31, -4
	.loc 1 72 0 discriminator 1
	.set	noreorder
	.set	nomacro
	jal	rtl_get_ppp_dev_name
	move	$4,$2
	.set	macro
	.set	reorder

$LBB299 = .
$LBB300 = .
	.file 5 "/home/extra_home/marklee/rtk_OpenWRT_BB/BB_v1407_branch_v25/v25_relase_source_test_0830/rtk_OpenWRT_v2.5_Branch_20160603/build_dir/target-mipsel_24kec_uClibc-0.9.33.2/linux-rtkmipsel_rtl8197f/linux-3.10.49/arch/mips/include/asm/string.h"
	.loc 5 77 0 discriminator 1
	move	$4,$16
#APP
 # 77 "/home/extra_home/marklee/rtk_OpenWRT_BB/BB_v1407_branch_v25/v25_relase_source_test_0830/rtk_OpenWRT_v2.5_Branch_20160603/build_dir/target-mipsel_24kec_uClibc-0.9.33.2/linux-rtkmipsel_rtl8197f/linux-3.10.49/arch/mips/include/asm/string.h" 1
	.set	noreorder
	.set	noat
	lbu	$3,($2)
1:	lbu	$1,($4)
	addiu	$2,1
	bne	$1,$3,2f
	addiu	$4,1
	bnez	$3,1b
	lbu	$3,($2)
	move	$3,$1
2:	subu	$3,$1
3:	.set	at
	.set	reorder
 # 0 "" 2
#NO_APP
$LBE300 = .
$LBE299 = .
	.loc 1 72 0 discriminator 1
	sltu	$2,$3,1
	.loc 1 78 0 discriminator 1
	lw	$31,20($sp)
	lw	$16,16($sp)
	.set	noreorder
	.set	nomacro
	j	$31
	addiu	$sp,$sp,24
	.set	macro
	.set	reorder

	.cfi_def_cfa_offset 0
	.cfi_restore 16
	.cfi_restore 31
$L50:
	.loc 1 77 0
	.set	noreorder
	.set	nomacro
	j	$31
	move	$2,$0
	.set	macro
	.set	reorder

	.end	is_pptp_device
	.cfi_endproc
$LFE3074:
	.size	is_pptp_device, .-is_pptp_device
	.align	2
	.globl	Check_GRE_rx_net_device
$LFB3077 = .
	.loc 1 97 0
	.cfi_startproc
	.set	nomips16
	.ent	Check_GRE_rx_net_device
	.type	Check_GRE_rx_net_device, @function
Check_GRE_rx_net_device:
	.frame	$sp,40,$31		# vars= 0, regs= 6/0, args= 16, gp= 0
	.mask	0x801f0000,-4
	.fmask	0x00000000,0
	.set	noreorder
	.set	nomacro
	addiu	$sp,$sp,-40
	.cfi_def_cfa_offset 40
	sw	$31,36($sp)
	sw	$20,32($sp)
	sw	$18,24($sp)
	sw	$17,20($sp)
	sw	$16,16($sp)
	.cfi_offset 31, -4
	.cfi_offset 20, -8
	.cfi_offset 18, -16
	.cfi_offset 17, -20
	.cfi_offset 16, -24
	move	$17,$4
	sw	$19,28($sp)
	.cfi_offset 19, -12
	.loc 1 100 0
	jal	rtl_ip_hdr
	lui	$18,%hi(pptpAccInfo)

	move	$16,$2
	.loc 1 101 0
	move	$4,$17
	jal	rtl_get_skb_data
	addiu	$18,$18,%lo(pptpAccInfo)

	lw	$3,0($16)
	.loc 1 103 0
	lw	$16,8($18)
	beq	$16,$0,$L55
	andi	$20,$3,0xf

	.loc 1 106 0
	move	$4,$17
	jal	rtl_get_skb_dev
	move	$19,$2

	bne	$16,$2,$L54
	move	$3,$0

	.loc 1 106 0 is_stmt 0 discriminator 1
	sll	$20,$20,2
	addu	$19,$19,$20
	lhu	$3,6($19)
	lhu	$2,30($18)
	xor	$3,$3,$2
	j	$L54
	sltu	$3,$3,1

$L55:
	.loc 1 111 0 is_stmt 1
	move	$3,$0
$L54:
	.loc 1 112 0
	lw	$31,36($sp)
	lw	$20,32($sp)
	lw	$19,28($sp)
	lw	$18,24($sp)
	lw	$17,20($sp)
	lw	$16,16($sp)
	move	$2,$3
	j	$31
	addiu	$sp,$sp,40

	.cfi_def_cfa_offset 0
	.cfi_restore 16
	.cfi_restore 17
	.cfi_restore 18
	.cfi_restore 19
	.cfi_restore 20
	.cfi_restore 31
	.set	macro
	.set	reorder
	.end	Check_GRE_rx_net_device
	.cfi_endproc
$LFE3077:
	.size	Check_GRE_rx_net_device, .-Check_GRE_rx_net_device
	.align	2
	.globl	fast_pptp_filter
$LFB3078 = .
	.loc 1 116 0
	.cfi_startproc
	.set	nomips16
	.ent	fast_pptp_filter
	.type	fast_pptp_filter, @function
fast_pptp_filter:
	.frame	$sp,40,$31		# vars= 0, regs= 5/0, args= 16, gp= 0
	.mask	0x800f0000,-4
	.fmask	0x00000000,0
	addiu	$sp,$sp,-40
	.cfi_def_cfa_offset 40
	sw	$17,24($sp)
	.cfi_offset 17, -16
	move	$17,$4
	sw	$31,36($sp)
	sw	$16,20($sp)
	sw	$19,32($sp)
	.cfi_offset 31, -4
	.cfi_offset 16, -20
	.cfi_offset 19, -8
	.cfi_offset 18, -12
	.loc 1 124 0
	.set	noreorder
	.set	nomacro
	jal	rtl_ip_hdr
	sw	$18,28($sp)
	.set	macro
	.set	reorder

	.loc 1 126 0
	move	$4,$17
	.set	noreorder
	.set	nomacro
	jal	rtl_get_skb_len
	move	$16,$2
	.set	macro
	.set	reorder

	sltu	$2,$2,56
	.set	noreorder
	.set	nomacro
	bne	$2,$0,$L87
	lw	$31,36($sp)
	.set	macro
	.set	reorder

$LBB301 = .
	.loc 1 127 0
	lw	$2,0($16)
	.loc 1 129 0
	lbu	$3,9($16)
	.loc 1 127 0
	andi	$4,$2,0xf
	.loc 1 129 0
	li	$2,6			# 0x6
	.set	noreorder
	.set	nomacro
	bne	$3,$2,$L87
	sll	$4,$4,2
	.set	macro
	.set	reorder

	.loc 1 127 0 discriminator 1
	addu	$4,$16,$4
	.loc 1 129 0 discriminator 1
	lhu	$3,0($4)
	li	$2,47878			# 0xbb06
	.set	noreorder
	.set	nomacro
	bne	$3,$2,$L87
	li	$5,1			# 0x1
	.set	macro
	.set	reorder

	.loc 1 130 0
	lw	$2,12($4)
	ext	$2,$2,4,4
	sll	$2,$2,2
	addu	$4,$4,$2
	.loc 1 134 0
	lhu	$2,2($4)
$LBB302 = .
$LBB303 = .
$LBB304 = .
	.loc 3 20 0
#APP
 # 20 "/home/extra_home/marklee/rtk_OpenWRT_BB/BB_v1407_branch_v25/v25_relase_source_test_0830/rtk_OpenWRT_v2.5_Branch_20160603/build_dir/target-mipsel_24kec_uClibc-0.9.33.2/linux-rtkmipsel_rtl8197f/linux-3.10.49/arch/mips/include/uapi/asm/swab.h" 1
		wsbh	$3, $2			

 # 0 "" 2
#NO_APP
	andi	$3,$3,0xffff
$LBE304 = .
$LBE303 = .
$LBE302 = .
	.loc 1 134 0
	.set	noreorder
	.set	nomacro
	bne	$3,$5,$L61
	li	$5,8			# 0x8
	.set	macro
	.set	reorder

$LBB305 = .
$LBB306 = .
$LBB307 = .
	.loc 3 20 0 discriminator 1
	lhu	$6,8($4)
#APP
 # 20 "/home/extra_home/marklee/rtk_OpenWRT_BB/BB_v1407_branch_v25/v25_relase_source_test_0830/rtk_OpenWRT_v2.5_Branch_20160603/build_dir/target-mipsel_24kec_uClibc-0.9.33.2/linux-rtkmipsel_rtl8197f/linux-3.10.49/arch/mips/include/uapi/asm/swab.h" 1
		wsbh	$6, $6			

 # 0 "" 2
#NO_APP
	andi	$6,$6,0xffff
$LBE307 = .
$LBE306 = .
$LBE305 = .
	.loc 1 135 0 discriminator 1
	bne	$6,$5,$L61
	lbu	$5,16($4)
	.set	noreorder
	.set	nomacro
	bne	$5,$3,$L61
	lui	$18,%hi(pptpAccInfo)
	.set	macro
	.set	reorder

	.loc 1 143 0
	addiu	$18,$18,%lo(pptpAccInfo)
	lw	$2,36($18)
	beq	$2,$0,$L86
	.loc 1 143 0 is_stmt 0 discriminator 1
	lw	$2,20($18)
	beq	$2,$0,$L86
	lw	$2,32($18)
	bne	$2,$0,$L83
$L86:
	.set	noreorder
	.set	nomacro
	j	$L62
	lhu	$2,12($4)
	.set	macro
	.set	reorder

$L83:
	.loc 1 144 0 is_stmt 1
	lhu	$3,18($18)
	lhu	$2,12($4)
	.set	noreorder
	.set	nomacro
	bne	$3,$2,$L87
	lw	$31,36($sp)
	.set	macro
	.set	reorder

	.loc 1 144 0 is_stmt 0 discriminator 1
	lhu	$5,30($18)
	lhu	$3,14($4)
	.set	noreorder
	.set	nomacro
	bne	$5,$3,$L88
	lw	$19,32($sp)
	.set	macro
	.set	reorder

$L62:
	.loc 1 151 0 is_stmt 1
	sh	$2,18($18)
	.loc 1 152 0
	lhu	$2,14($4)
	.loc 1 150 0
	lui	$3,%hi(pptp_tcp_finished)
	li	$19,1			# 0x1
	.loc 1 152 0
	sh	$2,30($18)
	.loc 1 156 0
	lw	$2,16($16)
	.loc 1 159 0
	move	$4,$17
	.loc 1 150 0
	sw	$19,%lo(pptp_tcp_finished)($3)
	.loc 1 156 0
	sw	$2,20($18)
	.loc 1 157 0
	lw	$2,12($16)
	.loc 1 158 0
	sw	$19,36($18)
	.loc 1 159 0
	.set	noreorder
	.set	nomacro
	jal	rtl_get_skb_dev
	sw	$2,32($18)
	.set	macro
	.set	reorder

$LBB308 = .
	.loc 1 162 0
	move	$4,$17
	.set	noreorder
	.set	nomacro
	jal	rtl_get_skb_data
	sw	$2,8($18)
	.set	macro
	.set	reorder

	addiu	$2,$2,-8
	lwl	$3,3($2)
	lui	$6,%hi(pptpAccInfo+24)
	addiu	$5,$6,%lo(pptpAccInfo+24)
	lwr	$3,0($2)
$LBE308 = .
$LBB309 = .
	.loc 1 163 0
	move	$4,$17
$LBE309 = .
$LBB310 = .
	.loc 1 162 0
	sw	$3,%lo(pptpAccInfo+24)($6)
	lbu	$3,4($2)
	sb	$3,4($5)
	lbu	$2,5($2)
$LBE310 = .
$LBB311 = .
	.loc 1 163 0
	.set	noreorder
	.set	nomacro
	jal	rtl_get_skb_data
	sb	$2,5($5)
	.set	macro
	.set	reorder

	addiu	$2,$2,-14
	lwl	$3,3($2)
	lui	$5,%hi(pptpAccInfo+12)
	addiu	$4,$5,%lo(pptpAccInfo+12)
	lwr	$3,0($2)
	sw	$3,%lo(pptpAccInfo+12)($5)
	lbu	$3,4($2)
	sb	$3,4($4)
	lbu	$2,5($2)
$LBE311 = .
	.loc 1 182 0
	sw	$19,4($18)
	.set	noreorder
	.set	nomacro
	j	$L58
	sb	$2,5($4)
	.set	macro
	.set	reorder

$L61:
$LBB312 = .
$LBB313 = .
$LBB314 = .
	.loc 3 20 0 discriminator 2
#APP
 # 20 "/home/extra_home/marklee/rtk_OpenWRT_BB/BB_v1407_branch_v25/v25_relase_source_test_0830/rtk_OpenWRT_v2.5_Branch_20160603/build_dir/target-mipsel_24kec_uClibc-0.9.33.2/linux-rtkmipsel_rtl8197f/linux-3.10.49/arch/mips/include/uapi/asm/swab.h" 1
		wsbh	$2, $2			

 # 0 "" 2
#NO_APP
$LBE314 = .
$LBE313 = .
$LBE312 = .
	.loc 1 189 0 discriminator 2
	li	$3,1			# 0x1
$LBB317 = .
$LBB316 = .
$LBB315 = .
	.loc 3 20 0 discriminator 2
	andi	$2,$2,0xffff
$LBE315 = .
$LBE316 = .
$LBE317 = .
	.loc 1 189 0 discriminator 2
	.set	noreorder
	.set	nomacro
	bne	$2,$3,$L58
	li	$2,13			# 0xd
	.set	macro
	.set	reorder

$LBB318 = .
$LBB319 = .
$LBB320 = .
	.loc 3 20 0
	lhu	$3,8($4)
#APP
 # 20 "/home/extra_home/marklee/rtk_OpenWRT_BB/BB_v1407_branch_v25/v25_relase_source_test_0830/rtk_OpenWRT_v2.5_Branch_20160603/build_dir/target-mipsel_24kec_uClibc-0.9.33.2/linux-rtkmipsel_rtl8197f/linux-3.10.49/arch/mips/include/uapi/asm/swab.h" 1
		wsbh	$3, $3			

 # 0 "" 2
#NO_APP
	andi	$3,$3,0xffff
$LBE320 = .
$LBE319 = .
$LBE318 = .
	.loc 1 189 0
	.set	noreorder
	.set	nomacro
	bne	$3,$2,$L58
	lui	$18,%hi(pptpAccInfo)
	.set	macro
	.set	reorder

	.loc 1 195 0
	addiu	$18,$18,%lo(pptpAccInfo)
	lw	$2,36($18)
	.set	noreorder
	.set	nomacro
	beq	$2,$0,$L89
	lui	$2,%hi(pptp_tcp_finished)
	.set	macro
	.set	reorder

	.loc 1 195 0 is_stmt 0 discriminator 1
	lw	$2,20($18)
	.set	noreorder
	.set	nomacro
	beq	$2,$0,$L89
	lui	$2,%hi(pptp_tcp_finished)
	.set	macro
	.set	reorder

	lw	$2,32($18)
	.set	noreorder
	.set	nomacro
	beq	$2,$0,$L89
	lui	$2,%hi(pptp_tcp_finished)
	.set	macro
	.set	reorder

	.loc 1 196 0 is_stmt 1
	lhu	$3,18($18)
	lhu	$2,12($4)
	.set	noreorder
	.set	nomacro
	bne	$3,$2,$L87
	lw	$31,36($sp)
	.set	macro
	.set	reorder

	.loc 1 201 0
	lui	$2,%hi(pptp_tcp_finished)
$L89:
	sw	$0,%lo(pptp_tcp_finished)($2)
	.loc 1 202 0
	sw	$0,4($18)
$L58:
$LBE301 = .
	.loc 1 293 0
	lw	$31,36($sp)
$L87:
	lw	$19,32($sp)
$L88:
	lw	$18,28($sp)
	lw	$17,24($sp)
	lw	$16,20($sp)
	.set	noreorder
	.set	nomacro
	j	$31
	addiu	$sp,$sp,40
	.set	macro
	.set	reorder

	.cfi_def_cfa_offset 0
	.cfi_restore 16
	.cfi_restore 17
	.cfi_restore 18
	.cfi_restore 19
	.cfi_restore 31
	.end	fast_pptp_filter
	.cfi_endproc
$LFE3078:
	.size	fast_pptp_filter, .-fast_pptp_filter
	.align	2
	.globl	fast_pptp_to_lan
$LFB3079 = .
	.loc 1 469 0
	.cfi_startproc
	.set	nomips16
	.ent	fast_pptp_to_lan
	.type	fast_pptp_to_lan, @function
fast_pptp_to_lan:
	.frame	$sp,48,$31		# vars= 0, regs= 7/0, args= 16, gp= 0
	.mask	0x803f0000,-4
	.fmask	0x00000000,0
	addiu	$sp,$sp,-48
	.cfi_def_cfa_offset 48
	sw	$18,28($sp)
	sw	$17,24($sp)
	sw	$31,44($sp)
	sw	$21,40($sp)
	sw	$20,36($sp)
	sw	$19,32($sp)
	sw	$16,20($sp)
	.cfi_offset 18, -20
	.cfi_offset 17, -24
	.cfi_offset 31, -4
	.cfi_offset 21, -8
	.cfi_offset 20, -12
	.cfi_offset 19, -16
	.cfi_offset 16, -28
	.loc 1 474 0
	lw	$16,0($4)
	.loc 1 483 0
	lui	$17,%hi(pptpAccInfo)
	.loc 1 469 0
	move	$18,$4
	.loc 1 483 0
	addiu	$17,$17,%lo(pptpAccInfo)
	.set	noreorder
	.set	nomacro
	jal	rtl_get_skb_dev
	move	$4,$16
	.set	macro
	.set	reorder

	lw	$3,8($17)
	beq	$3,$2,$L91
$L93:
	.loc 1 484 0
	.set	noreorder
	.set	nomacro
	j	$L128
	move	$2,$0
	.set	macro
	.set	reorder

$L91:
	.loc 1 483 0 discriminator 1
	.set	noreorder
	.set	nomacro
	jal	rtl_ip_hdr
	move	$4,$16
	.set	macro
	.set	reorder

	lbu	$3,9($2)
	li	$2,47			# 0x2f
	.set	noreorder
	.set	nomacro
	bne	$3,$2,$L128
	move	$2,$0
	.set	macro
	.set	reorder

	.set	noreorder
	.set	nomacro
	jal	rtl_get_skb_len
	move	$4,$16
	.set	macro
	.set	reorder

	sltu	$2,$2,20
	.set	noreorder
	.set	nomacro
	bne	$2,$0,$L128
	move	$2,$0
	.set	macro
	.set	reorder

	.loc 1 486 0
	.set	noreorder
	.set	nomacro
	jal	rtl_ip_hdr
	move	$4,$16
	.set	macro
	.set	reorder

	move	$19,$2
	.loc 1 487 0
	.set	noreorder
	.set	nomacro
	jal	rtl_get_skb_data
	move	$4,$16
	.set	macro
	.set	reorder

	.loc 1 488 0
	lw	$3,0($19)
	andi	$3,$3,0xf
	sll	$3,$3,2
	addu	$3,$2,$3
	.loc 1 490 0
	lbu	$4,1($3)
	li	$2,1			# 0x1
	andi	$4,$4,0x7
	.set	noreorder
	.set	nomacro
	bne	$4,$2,$L128
	move	$2,$0
	.set	macro
	.set	reorder

$LBB321 = .
$LBB322 = .
$LBB323 = .
	.loc 3 20 0
	lhu	$4,2($3)
$LBE323 = .
$LBE322 = .
$LBE321 = .
	.loc 1 490 0
	li	$2,34827			# 0x880b
$LBB326 = .
$LBB325 = .
$LBB324 = .
	.loc 3 20 0
#APP
 # 20 "/home/extra_home/marklee/rtk_OpenWRT_BB/BB_v1407_branch_v25/v25_relase_source_test_0830/rtk_OpenWRT_v2.5_Branch_20160603/build_dir/target-mipsel_24kec_uClibc-0.9.33.2/linux-rtkmipsel_rtl8197f/linux-3.10.49/arch/mips/include/uapi/asm/swab.h" 1
		wsbh	$4, $4			

 # 0 "" 2
#NO_APP
	andi	$4,$4,0xffff
$LBE324 = .
$LBE325 = .
$LBE326 = .
	.loc 1 490 0
	.set	noreorder
	.set	nomacro
	bne	$4,$2,$L128
	move	$2,$0
	.set	macro
	.set	reorder

$LBB327 = .
	.loc 1 496 0
	lhu	$4,6($3)
	lhu	$2,30($17)
	bne	$4,$2,$L93
	.loc 1 501 0
	lbu	$4,0($3)
	andi	$4,$4,0x10
	.set	noreorder
	.set	nomacro
	beq	$4,$0,$L94
	li	$2,8			# 0x8
	.set	macro
	.set	reorder

$LBB328 = .
$LBB329 = .
$LBB330 = .
	.loc 3 31 0
	lw	$4,8($3)
$LBE330 = .
$LBE329 = .
$LBE328 = .
	.loc 1 503 0
	li	$2,12			# 0xc
$LBB333 = .
$LBB332 = .
$LBB331 = .
	.loc 3 31 0
#APP
 # 31 "/home/extra_home/marklee/rtk_OpenWRT_BB/BB_v1407_branch_v25/v25_relase_source_test_0830/rtk_OpenWRT_v2.5_Branch_20160603/build_dir/target-mipsel_24kec_uClibc-0.9.33.2/linux-rtkmipsel_rtl8197f/linux-3.10.49/arch/mips/include/uapi/asm/swab.h" 1
		wsbh	$4, $4			
	rotr	$4, $4, 16		

 # 0 "" 2
#NO_APP
$LBE331 = .
$LBE332 = .
$LBE333 = .
	.loc 1 502 0
	sw	$4,40($17)
$L94:
	.loc 1 506 0
	lb	$6,1($3)
	.loc 1 512 0
	lhu	$4,4($3)
	.loc 1 507 0
	addiu	$5,$2,4
	slt	$6,$6,0
	.loc 1 512 0
	.set	noreorder
	.set	nomacro
	beq	$4,$0,$L93
	movn	$2,$5,$6
	.set	macro
	.set	reorder

	.loc 1 509 0
	addu	$3,$3,$2
	.loc 1 540 0
	lbu	$4,0($3)
	bne	$4,$0,$L96
	.loc 1 542 0
	addiu	$3,$3,1
	.set	noreorder
	.set	nomacro
	j	$L97
	li	$5,1			# 0x1
	.set	macro
	.set	reorder

$L96:
	.loc 1 544 0
	li	$6,255			# 0xff
	.set	noreorder
	.set	nomacro
	bne	$4,$6,$L97
	move	$5,$0
	.set	macro
	.set	reorder

	.loc 1 544 0 is_stmt 0 discriminator 1
	lbu	$5,1($3)
	li	$4,3			# 0x3
	bne	$5,$4,$L93
	.loc 1 547 0 is_stmt 1
	lbu	$5,2($3)
	.set	noreorder
	.set	nomacro
	bne	$5,$0,$L110
	addiu	$4,$3,2
	.set	macro
	.set	reorder

	.loc 1 549 0
	addiu	$3,$3,3
$LBE327 = .
	.loc 1 548 0
	.set	noreorder
	.set	nomacro
	j	$L97
	li	$5,3			# 0x3
	.set	macro
	.set	reorder

$L110:
$LBB335 = .
	.loc 1 546 0
	move	$3,$4
	.loc 1 545 0
	li	$5,2			# 0x2
$L97:
	.loc 1 552 0
	lbu	$3,0($3)
	li	$4,33			# 0x21
	.set	noreorder
	.set	nomacro
	beq	$3,$4,$L98
	move	$4,$16
	.set	macro
	.set	reorder

	.loc 1 552 0 is_stmt 0 discriminator 1
	li	$4,253			# 0xfd
	bne	$3,$4,$L93
$LBE335 = .
	.loc 1 563 0 is_stmt 1
	.set	noreorder
	.set	nomacro
	j	$L131
	lw	$3,0($19)
	.set	macro
	.set	reorder

$L129:
$LBB336 = .
	.loc 1 566 0 discriminator 1
	jal	rtl_get_ppp_dev_priv
	.set	noreorder
	.set	nomacro
	beq	$2,$0,$L93
	addiu	$5,$19,-2
	.set	macro
	.set	reorder

	.loc 1 569 0
	.set	noreorder
	.set	nomacro
	jal	skb_pull
	move	$4,$16
	.set	macro
	.set	reorder

	.loc 1 570 0
	.set	noreorder
	.set	nomacro
	jal	rtl_get_skb_data
	move	$4,$16
	.set	macro
	.set	reorder

	.loc 1 572 0
	li	$3,-3			# 0xfffffffffffffffd
	sb	$3,1($2)
	.loc 1 571 0
	sb	$0,0($2)
	.loc 1 573 0
	.set	noreorder
	.set	nomacro
	jal	rtl_get_ppp_dev_priv
	lw	$4,56($17)
	.set	macro
	.set	reorder

	.loc 1 575 0
	move	$4,$2
	move	$5,$16
	.set	noreorder
	.set	nomacro
	jal	rtl_ppp_receive_nonmp_frame
	li	$6,1			# 0x1
	.set	macro
	.set	reorder

	.loc 1 576 0
	.set	noreorder
	.set	nomacro
	beq	$2,$0,$L111
	move	$16,$2
	.set	macro
	.set	reorder

	.loc 1 580 0
	sw	$2,0($18)
	.loc 1 582 0
	li	$19,1			# 0x1
$L107:
	.loc 1 593 0
	.set	noreorder
	.set	nomacro
	jal	rtl_get_skb_data
	move	$4,$16
	.set	macro
	.set	reorder

	andi	$18,$2,0x3
	.loc 1 594 0
	beq	$18,$0,$L101
	.loc 1 595 0
	.set	noreorder
	.set	nomacro
	jal	rtl_skb_headroom
	move	$4,$16
	.set	macro
	.set	reorder

	sltu	$2,$2,$18
	bne	$2,$0,$L101
$LBB334 = .
	.loc 1 597 0
	.set	noreorder
	.set	nomacro
	jal	rtl_get_skb_len
	move	$4,$16
	.set	macro
	.set	reorder

	move	$4,$16
	.set	noreorder
	.set	nomacro
	jal	rtl_get_skb_data
	move	$20,$2
	.set	macro
	.set	reorder

	move	$4,$16
	.set	noreorder
	.set	nomacro
	jal	rtl_get_skb_data
	subu	$21,$2,$18
	.set	macro
	.set	reorder

	move	$5,$2
	move	$4,$21
	.set	noreorder
	.set	nomacro
	jal	memmove
	move	$6,$20
	.set	macro
	.set	reorder

$LBE334 = .
	.loc 1 598 0
	move	$4,$16
	move	$5,$18
	.set	noreorder
	.set	nomacro
	jal	rtl_set_skb_data
	li	$6,1			# 0x1
	.set	macro
	.set	reorder

	.loc 1 599 0
	move	$4,$16
	move	$5,$18
	.set	noreorder
	.set	nomacro
	jal	rtl_set_skb_tail
	li	$6,1			# 0x1
	.set	macro
	.set	reorder

$L101:
	.loc 1 605 0
	.set	noreorder
	.set	nomacro
	jal	rtl_skb_reset_network_header
	move	$4,$16
	.set	macro
	.set	reorder

	.loc 1 606 0
	.set	noreorder
	.set	nomacro
	jal	rtl_skb_reset_transport_header
	move	$4,$16
	.set	macro
	.set	reorder

	.loc 1 612 0
	lw	$4,56($17)
	.set	noreorder
	.set	nomacro
	beq	$4,$0,$L128
	move	$2,$0
	.set	macro
	.set	reorder

	.loc 1 614 0
	bne	$19,$0,$L104
	.loc 1 615 0
	jal	rtl_get_ppp_dev_priv
	beq	$2,$0,$L104
	.loc 1 616 0
	.set	noreorder
	.set	nomacro
	jal	rtl_get_ppp_dev_priv
	lw	$4,56($17)
	.set	macro
	.set	reorder

	.loc 1 617 0
	move	$4,$16
	.set	noreorder
	.set	nomacro
	jal	rtl_get_skb_len
	move	$18,$2
	.set	macro
	.set	reorder

	addiu	$6,$2,-2
	move	$4,$18
	.set	noreorder
	.set	nomacro
	jal	rtl_inc_ppp_stats
	move	$5,$0
	.set	macro
	.set	reorder

$L104:
	.loc 1 625 0
	lw	$5,56($17)
	.set	noreorder
	.set	nomacro
	jal	rtl_set_skb_dev
	move	$4,$16
	.set	macro
	.set	reorder

	.loc 1 626 0
	.set	noreorder
	.set	nomacro
	j	$L128
	li	$2,1			# 0x1
	.set	macro
	.set	reorder

$L111:
$LBE336 = .
	.loc 1 578 0
	.set	noreorder
	.set	nomacro
	j	$L128
	li	$2,-2			# 0xfffffffffffffffe
	.set	macro
	.set	reorder

$L131:
$LBB337 = .
	.loc 1 566 0
	lw	$4,56($17)
	.loc 1 553 0
	addiu	$5,$5,1
	.loc 1 563 0
	andi	$3,$3,0xf
	sll	$3,$3,2
	addu	$2,$3,$2
	.loc 1 566 0
	.set	noreorder
	.set	nomacro
	bne	$4,$0,$L129
	addu	$19,$5,$2
	.set	macro
	.set	reorder

	.set	noreorder
	.set	nomacro
	j	$L128
	move	$2,$0
	.set	macro
	.set	reorder

$L98:
	.loc 1 563 0
	lw	$3,0($19)
	.loc 1 553 0
	addiu	$5,$5,1
	.loc 1 563 0
	andi	$3,$3,0xf
	sll	$3,$3,2
	addu	$2,$3,$2
	.loc 1 586 0
	.set	noreorder
	.set	nomacro
	jal	skb_pull
	addu	$5,$5,$2
	.set	macro
	.set	reorder

$LBE337 = .
	.loc 1 477 0
	.set	noreorder
	.set	nomacro
	j	$L107
	move	$19,$0
	.set	macro
	.set	reorder

$L128:
	.loc 1 643 0
	lw	$31,44($sp)
	lw	$21,40($sp)
	lw	$20,36($sp)
	lw	$19,32($sp)
	lw	$18,28($sp)
	lw	$17,24($sp)
	lw	$16,20($sp)
	.set	noreorder
	.set	nomacro
	j	$31
	addiu	$sp,$sp,48
	.set	macro
	.set	reorder

	.cfi_def_cfa_offset 0
	.cfi_restore 16
	.cfi_restore 17
	.cfi_restore 18
	.cfi_restore 19
	.cfi_restore 20
	.cfi_restore 21
	.cfi_restore 31
	.end	fast_pptp_to_lan
	.cfi_endproc
$LFE3079:
	.size	fast_pptp_to_lan, .-fast_pptp_to_lan
	.section	.rodata.str1.4
	.align	2
$LC1:
	.ascii	"ppp0\000"
	.align	2
$LC2:
	.ascii	"pptpInfo.ppp0_dev == NULL\012\000"
	.align	2
$LC3:
	.ascii	"RTL\000"
	.align	2
$LC4:
	.ascii	"pptpInfo.ppp0_dev->priv == NULL\012\000"
	.text
	.align	2
	.globl	fast_pptp_to_wan
$LFB3081 = .
	.loc 1 656 0
	.cfi_startproc
	.set	nomips16
	.ent	fast_pptp_to_wan
	.type	fast_pptp_to_wan, @function
fast_pptp_to_wan:
	.frame	$sp,88,$31		# vars= 40, regs= 7/0, args= 16, gp= 0
	.mask	0x803f0000,-4
	.fmask	0x00000000,0
	addiu	$sp,$sp,-88
	.cfi_def_cfa_offset 88
	sw	$17,64($sp)
	.cfi_offset 17, -24
	move	$17,$4
	sw	$31,84($sp)
	sw	$18,68($sp)
	sw	$16,60($sp)
	sw	$21,80($sp)
	sw	$20,76($sp)
	.cfi_offset 31, -4
	.cfi_offset 18, -20
	.cfi_offset 16, -28
	.cfi_offset 21, -8
	.cfi_offset 20, -12
	.cfi_offset 19, -16
	.loc 1 665 0
	.set	noreorder
	.set	nomacro
	jal	rtl_ip_hdr
	sw	$19,72($sp)
	.set	macro
	.set	reorder

	.loc 1 666 0
	move	$4,$17
	.set	noreorder
	.set	nomacro
	jal	rtl_ip_hdr
	lbu	$16,12($2)
	.set	macro
	.set	reorder

	.loc 1 667 0
	move	$4,$17
	.set	noreorder
	.set	nomacro
	jal	rtl_ip_hdr
	lw	$18,12($2)
	.set	macro
	.set	reorder

	lw	$3,12($2)
	.loc 1 668 0
	li	$2,10			# 0xa
	.set	noreorder
	.set	nomacro
	bne	$16,$2,$L133
	andi	$18,$18,0xff00
	.set	macro
	.set	reorder

	.loc 1 668 0 is_stmt 0 discriminator 1
	li	$2,16384			# 0x4000
	.set	noreorder
	.set	nomacro
	bne	$18,$2,$L133
	li	$2,16711680			# 0xff0000
	.set	macro
	.set	reorder

	.loc 1 667 0 is_stmt 1 discriminator 1
	and	$3,$3,$2
	.loc 1 668 0 discriminator 1
	li	$2,4194304			# 0x400000
	.set	noreorder
	.set	nomacro
	bne	$3,$2,$L165
	lui	$18,%hi(pptpAccInfo)
	.set	macro
	.set	reorder

	lui	$2,%hi(pptp_conn_check)
	lw	$3,%lo(pptp_conn_check)($2)
	li	$2,3			# 0x3
	.set	noreorder
	.set	nomacro
	beq	$3,$2,$L134
	move	$2,$0
	.set	macro
	.set	reorder

$L133:
	.loc 1 674 0
	lui	$18,%hi(pptpAccInfo)
$L165:
	addiu	$16,$18,%lo(pptpAccInfo)
	lw	$4,56($16)
	.set	noreorder
	.set	nomacro
	beq	$4,$0,$L134
	move	$2,$0
	.set	macro
	.set	reorder

	.loc 1 674 0 is_stmt 0 discriminator 1
	jal	rtl_get_ppp_dev_name
	.set	noreorder
	.set	nomacro
	beq	$2,$0,$L134
	move	$2,$0
	.set	macro
	.set	reorder

	.set	noreorder
	.set	nomacro
	jal	rtl_get_ppp_dev_name
	lw	$4,56($16)
	.set	macro
	.set	reorder

$LBB338 = .
$LBB339 = .
	.loc 5 77 0 is_stmt 1 discriminator 1
	lui	$3,%hi($LC1)
	addiu	$3,$3,%lo($LC1)
#APP
 # 77 "/home/extra_home/marklee/rtk_OpenWRT_BB/BB_v1407_branch_v25/v25_relase_source_test_0830/rtk_OpenWRT_v2.5_Branch_20160603/build_dir/target-mipsel_24kec_uClibc-0.9.33.2/linux-rtkmipsel_rtl8197f/linux-3.10.49/arch/mips/include/asm/string.h" 1
	.set	noreorder
	.set	noat
	lbu	$4,($2)
1:	lbu	$1,($3)
	addiu	$2,1
	bne	$1,$4,2f
	addiu	$3,1
	bnez	$4,1b
	lbu	$4,($2)
	move	$4,$1
2:	subu	$4,$1
3:	.set	at
	.set	reorder
 # 0 "" 2
#NO_APP
$LBE339 = .
$LBE338 = .
	.loc 1 674 0 discriminator 1
	.set	noreorder
	.set	nomacro
	bne	$4,$0,$L134
	move	$2,$0
	.set	macro
	.set	reorder

	.loc 1 677 0
	lw	$2,4($16)
	beq	$2,$0,$L136
	.loc 1 677 0 is_stmt 0 discriminator 1
	lw	$4,56($16)
	bne	$4,$0,$L137
$L143:
	.loc 1 762 0 is_stmt 1
	lui	$4,%hi($LC2)
	.set	noreorder
	.set	nomacro
	jal	printk
	addiu	$4,$4,%lo($LC2)
	.set	macro
	.set	reorder

$L162:
	.set	noreorder
	.set	nomacro
	j	$L134
	move	$2,$0
	.set	macro
	.set	reorder

$L137:
	.loc 1 677 0 discriminator 1
	jal	rtl_get_ppp_dev_priv
	beq	$2,$0,$L136
$LBB340 = .
	.loc 1 680 0
	.set	noreorder
	.set	nomacro
	jal	rtl_get_ppp_dev_priv
	lw	$4,56($16)
	.set	macro
	.set	reorder

	.loc 1 683 0
	move	$4,$2
	.set	noreorder
	.set	nomacro
	jal	rtl_ppp_vj_check
	move	$19,$2
	.set	macro
	.set	reorder

	li	$3,1			# 0x1
	.set	noreorder
	.set	nomacro
	beq	$2,$3,$L134
	move	$2,$0
	.set	macro
	.set	reorder

	.loc 1 688 0
	.set	noreorder
	.set	nomacro
	jal	rtl_ip_hdr
	move	$4,$17
	.set	macro
	.set	reorder

	.loc 1 690 0
	move	$4,$19
	.set	noreorder
	.set	nomacro
	jal	rtl_get_ppp_xmit_pending
	lbu	$20,1($2)
	.set	macro
	.set	reorder

	.set	noreorder
	.set	nomacro
	bne	$2,$0,$L134
	move	$2,$0
	.set	macro
	.set	reorder

	.loc 1 694 0
	lui	$5,%hi($LC3)
	move	$4,$17
	addiu	$5,$5,%lo($LC3)
	.set	noreorder
	.set	nomacro
	jal	rtl_set_skb_cb
	li	$6,3			# 0x3
	.set	macro
	.set	reorder

	.loc 1 695 0
	lw	$5,56($16)
	.set	noreorder
	.set	nomacro
	jal	rtl_ppp_start_xmit
	move	$4,$17
	.set	macro
	.set	reorder

	.loc 1 696 0
	.set	noreorder
	.set	nomacro
	jal	rtl_get_ppp_xmit_pending
	move	$4,$19
	.set	macro
	.set	reorder

	.set	noreorder
	.set	nomacro
	beq	$2,$0,$L144
	li	$2,1			# 0x1
	.set	macro
	.set	reorder

	.loc 1 701 0
	.set	noreorder
	.set	nomacro
	jal	rtl_get_ppp_xmit_pending
	move	$4,$19
	.set	macro
	.set	reorder

	move	$21,$2
	.loc 1 703 0
	move	$4,$19
	.set	noreorder
	.set	nomacro
	jal	rtl_set_ppp_xmit_pending
	move	$5,$0
	.set	macro
	.set	reorder

	.loc 1 706 0
	.set	noreorder
	.set	nomacro
	jal	rtl_skb_headroom
	move	$4,$21
	.set	macro
	.set	reorder

	sltu	$2,$2,50
	.set	noreorder
	.set	nomacro
	beq	$2,$0,$L138
	move	$4,$21
	.set	macro
	.set	reorder

$L164:
$LBB341 = .
	.loc 1 707 0
	.set	noreorder
	.set	nomacro
	jal	skb_realloc_headroom
	li	$5,50			# 0x32
	.set	macro
	.set	reorder

	.loc 1 708 0
	.set	noreorder
	.set	nomacro
	bne	$2,$0,$L160
	move	$17,$2
	.set	macro
	.set	reorder

	j	$L163
$L138:
$LBE341 = .
	.loc 1 706 0 discriminator 1
	.set	noreorder
	.set	nomacro
	jal	rtl_skb_cloned
	move	$4,$21
	.set	macro
	.set	reorder

	.set	noreorder
	.set	nomacro
	bne	$2,$0,$L164
	move	$4,$21
	.set	macro
	.set	reorder

	.set	noreorder
	.set	nomacro
	jal	rtl_skb_shared
	move	$4,$21
	.set	macro
	.set	reorder

	.set	noreorder
	.set	nomacro
	beq	$2,$0,$L142
	move	$17,$21
	.set	macro
	.set	reorder

$LBE340 = .
	.loc 1 707 0
	.set	noreorder
	.set	nomacro
	j	$L164
	move	$4,$21
	.set	macro
	.set	reorder

$L163:
$LBB387 = .
$LBB342 = .
	.loc 1 710 0
	.set	noreorder
	.set	nomacro
	jal	consume_skb
	move	$4,$21
	.set	macro
	.set	reorder

	.loc 1 711 0
	.set	noreorder
	.set	nomacro
	j	$L134
	li	$2,1			# 0x1
	.set	macro
	.set	reorder

$L160:
	.loc 1 713 0
	.set	noreorder
	.set	nomacro
	jal	consume_skb
	move	$4,$21
	.set	macro
	.set	reorder

$L142:
$LBE342 = .
	.loc 1 719 0
	move	$4,$17
	.set	noreorder
	.set	nomacro
	jal	skb_push
	li	$5,50			# 0x32
	.set	macro
	.set	reorder

$LBB343 = .
	.loc 1 720 0
	lw	$3,24($16)
$LBE343 = .
	.loc 1 726 0
	lbu	$6,16($sp)
	li	$4,4			# 0x4
$LBB344 = .
	.loc 1 720 0
	swl	$3,3($2)
	swr	$3,0($2)
	lbu	$3,28($16)
$LBE344 = .
	.loc 1 726 0
	ins	$6,$4,4,4
	.loc 1 722 0
	li	$8,8			# 0x8
$LBB345 = .
	.loc 1 720 0
	sb	$3,4($2)
	lbu	$3,29($16)
$LBE345 = .
	.loc 1 734 0
	move	$5,$0
	.loc 1 730 0
	sb	$20,17($sp)
$LBB346 = .
	.loc 1 720 0
	sb	$3,5($2)
$LBE346 = .
$LBB347 = .
	.loc 1 721 0
	lw	$4,12($16)
$LBE347 = .
	.loc 1 728 0
	li	$3,64			# 0x40
	sh	$3,22($sp)
$LBB348 = .
	.loc 1 721 0
	swl	$4,9($2)
	swr	$4,6($2)
	lbu	$7,16($16)
$LBE348 = .
	.loc 1 734 0
	move	$4,$17
	.loc 1 733 0
	sb	$3,24($sp)
$LBB349 = .
	.loc 1 721 0
	sb	$7,10($2)
	lbu	$7,17($16)
$LBE349 = .
	.loc 1 722 0
	sb	$8,12($2)
	sb	$0,13($2)
$LBB350 = .
	.loc 1 721 0
	sb	$7,11($2)
$LBE350 = .
	.loc 1 731 0
	lw	$19,32($16)
	.loc 1 732 0
	lw	$21,20($16)
	.loc 1 727 0
	li	$2,5			# 0x5
	ins	$6,$2,0,4
	.loc 1 729 0
	li	$2,47			# 0x2f
	.loc 1 727 0
	sb	$6,16($sp)
	.loc 1 729 0
	sb	$2,25($sp)
	.loc 1 731 0
	sw	$19,32($sp)
	.loc 1 734 0
	.set	noreorder
	.set	nomacro
	jal	rtl_set_skb_ip_summed
	sw	$21,28($sp)
	.set	macro
	.set	reorder

	.loc 1 735 0
	.set	noreorder
	.set	nomacro
	jal	rtl_get_skb_len
	move	$4,$17
	.set	macro
	.set	reorder

	.loc 1 736 0
	lhu	$3,44($16)
	.loc 1 735 0
	addiu	$2,$2,-14
$LBB351 = .
$LBB352 = .
$LBB353 = .
	.loc 3 20 0
#APP
 # 20 "/home/extra_home/marklee/rtk_OpenWRT_BB/BB_v1407_branch_v25/v25_relase_source_test_0830/rtk_OpenWRT_v2.5_Branch_20160603/build_dir/target-mipsel_24kec_uClibc-0.9.33.2/linux-rtkmipsel_rtl8197f/linux-3.10.49/arch/mips/include/uapi/asm/swab.h" 1
		wsbh	$2, $2			

 # 0 "" 2
#NO_APP
$LBE353 = .
$LBE352 = .
$LBE351 = .
	.loc 1 736 0
	addiu	$3,$3,1
	andi	$5,$3,0xffff
	.loc 1 735 0
	sh	$2,18($sp)
$LBB354 = .
$LBB355 = .
$LBB356 = .
	.loc 3 20 0
#APP
 # 20 "/home/extra_home/marklee/rtk_OpenWRT_BB/BB_v1407_branch_v25/v25_relase_source_test_0830/rtk_OpenWRT_v2.5_Branch_20160603/build_dir/target-mipsel_24kec_uClibc-0.9.33.2/linux-rtkmipsel_rtl8197f/linux-3.10.49/arch/mips/include/uapi/asm/swab.h" 1
		wsbh	$3, $5			

 # 0 "" 2
#NO_APP
$LBE356 = .
$LBE355 = .
$LBE354 = .
	.loc 1 736 0
	sh	$3,20($sp)
$LBB357 = .
$LBB358 = .
	.loc 4 109 0
	lw	$2,20($sp)
$LBE358 = .
$LBE357 = .
	.loc 1 737 0
	sh	$0,26($sp)
$LBB365 = .
$LBB361 = .
	.loc 4 109 0
	lw	$6,16($sp)
	.loc 4 113 0
	lw	$4,24($sp)
$LBE361 = .
$LBE365 = .
	.loc 1 736 0
	sh	$5,44($16)
$LBB366 = .
$LBB362 = .
	.loc 4 109 0
	addu	$6,$2,$6
	.loc 4 110 0
	sltu	$2,$6,$2
	.loc 4 111 0
	addu	$6,$6,$4
	.loc 4 113 0
	addu	$2,$6,$2
	.loc 4 114 0
	sltu	$4,$2,$4
	.loc 4 115 0
	addu	$2,$2,$21
	.loc 4 117 0
	addu	$4,$2,$4
	.loc 4 119 0
	addu	$2,$4,$19
	.loc 4 118 0
	sltu	$21,$4,$21
	.loc 4 123 0
	addu	$2,$2,$21
$LBE362 = .
$LBE366 = .
$LBB367 = .
	.loc 1 740 0
	move	$4,$17
$LBE367 = .
$LBB368 = .
$LBB363 = .
	.loc 4 124 0
	sltu	$19,$2,$19
$LBE363 = .
$LBE368 = .
	.loc 1 739 0
	sh	$3,46($16)
$LBB369 = .
$LBB364 = .
	.loc 4 125 0
	addu	$2,$19,$2
$LBB359 = .
$LBB360 = .
	.loc 4 78 0
#APP
 # 78 "/home/extra_home/marklee/rtk_OpenWRT_BB/BB_v1407_branch_v25/v25_relase_source_test_0830/rtk_OpenWRT_v2.5_Branch_20160603/build_dir/target-mipsel_24kec_uClibc-0.9.33.2/linux-rtkmipsel_rtl8197f/linux-3.10.49/arch/mips/include/asm/checksum.h" 1
		.set	push		# csum_fold
	.set	noat		
	sll	$1, $2, 16	
	addu	$2, $1		
	sltu	$1, $2, $1	
	srl	$2, $2, 16	
	addu	$2, $1		
	xori	$2, 0xffff	
	.set	pop
 # 0 "" 2
#NO_APP
$LBE360 = .
$LBE359 = .
$LBE364 = .
$LBE369 = .
$LBB370 = .
	.loc 1 740 0
	.set	noreorder
	.set	nomacro
	jal	rtl_get_skb_data
	sh	$2,26($sp)
	.set	macro
	.set	reorder

	lw	$5,16($sp)
	lw	$4,20($sp)
	addiu	$3,$2,14
	swl	$5,17($2)
	swr	$5,0($3)
	lw	$5,24($sp)
	swl	$4,7($3)
	swr	$4,4($3)
	lw	$4,28($sp)
	swl	$5,11($3)
	swr	$5,8($3)
	lw	$2,32($sp)
	swl	$4,15($3)
	swr	$4,12($3)
	swl	$2,19($3)
	swr	$2,16($3)
$LBE370 = .
	.loc 1 744 0
	li	$2,48			# 0x30
	sb	$2,36($sp)
	.loc 1 745 0
	li	$2,-127			# 0xffffffffffffff81
	.loc 1 748 0
	move	$4,$17
	.loc 1 745 0
	sb	$2,37($sp)
	.loc 1 746 0
	li	$2,2952			# 0xb88
	.loc 1 748 0
	.set	noreorder
	.set	nomacro
	jal	rtl_get_skb_len
	sh	$2,38($sp)
	.set	macro
	.set	reorder

	.loc 1 750 0
	lw	$3,36($16)
	.loc 1 749 0
	lhu	$7,18($16)
$LBB371 = .
	.loc 1 752 0
	move	$4,$17
$LBE371 = .
	.loc 1 750 0
	addiu	$6,$3,1
	.loc 1 749 0
	sh	$7,42($sp)
$LBB372 = .
$LBB373 = .
$LBB374 = .
	.loc 3 31 0
#APP
 # 31 "/home/extra_home/marklee/rtk_OpenWRT_BB/BB_v1407_branch_v25/v25_relase_source_test_0830/rtk_OpenWRT_v2.5_Branch_20160603/build_dir/target-mipsel_24kec_uClibc-0.9.33.2/linux-rtkmipsel_rtl8197f/linux-3.10.49/arch/mips/include/uapi/asm/swab.h" 1
		wsbh	$3, $3			
	rotr	$3, $3, 16		

 # 0 "" 2
#NO_APP
$LBE374 = .
$LBE373 = .
$LBE372 = .
$LBB375 = .
$LBB376 = .
$LBB377 = .
	lw	$5,40($16)
$LBE377 = .
$LBE376 = .
$LBE375 = .
	.loc 1 750 0
	sw	$6,36($16)
$LBB380 = .
$LBB379 = .
$LBB378 = .
	.loc 3 31 0
#APP
 # 31 "/home/extra_home/marklee/rtk_OpenWRT_BB/BB_v1407_branch_v25/v25_relase_source_test_0830/rtk_OpenWRT_v2.5_Branch_20160603/build_dir/target-mipsel_24kec_uClibc-0.9.33.2/linux-rtkmipsel_rtl8197f/linux-3.10.49/arch/mips/include/uapi/asm/swab.h" 1
		wsbh	$5, $5			
	rotr	$5, $5, 16		

 # 0 "" 2
#NO_APP
$LBE378 = .
$LBE379 = .
$LBE380 = .
	.loc 1 750 0
	sw	$3,44($sp)
	.loc 1 751 0
	sw	$5,48($sp)
	.loc 1 748 0
	addiu	$2,$2,-50
$LBB381 = .
$LBB382 = .
$LBB383 = .
	.loc 3 20 0
#APP
 # 20 "/home/extra_home/marklee/rtk_OpenWRT_BB/BB_v1407_branch_v25/v25_relase_source_test_0830/rtk_OpenWRT_v2.5_Branch_20160603/build_dir/target-mipsel_24kec_uClibc-0.9.33.2/linux-rtkmipsel_rtl8197f/linux-3.10.49/arch/mips/include/uapi/asm/swab.h" 1
		wsbh	$2, $2			

 # 0 "" 2
#NO_APP
$LBE383 = .
$LBE382 = .
$LBE381 = .
$LBB384 = .
	.loc 1 752 0
	.set	noreorder
	.set	nomacro
	jal	rtl_get_skb_data
	sh	$2,40($sp)
	.set	macro
	.set	reorder

	lw	$5,36($sp)
	lw	$4,40($sp)
	addiu	$3,$2,34
	swl	$5,37($2)
	swr	$5,0($3)
	lw	$5,44($sp)
	swl	$4,7($3)
	swr	$4,4($3)
	swl	$5,11($3)
	lw	$2,48($sp)
	swr	$5,8($3)
$LBE384 = .
	.loc 1 753 0
	lui	$4,%hi(jiffies)
	lw	$6,%lo(jiffies)($4)
	.loc 1 756 0
	lw	$5,8($16)
$LBB385 = .
	.loc 1 752 0
	swl	$2,15($3)
$LBE385 = .
	.loc 1 756 0
	move	$4,$17
$LBB386 = .
	.loc 1 752 0
	swr	$2,12($3)
$LBE386 = .
	.loc 1 756 0
	.set	noreorder
	.set	nomacro
	jal	rtl_set_skb_dev
	sw	$6,%lo(pptpAccInfo)($18)
	.set	macro
	.set	reorder

	.loc 1 757 0
	.set	noreorder
	.set	nomacro
	jal	dev_queue_xmit
	move	$4,$17
	.set	macro
	.set	reorder

	.loc 1 758 0
	.set	noreorder
	.set	nomacro
	j	$L134
	li	$2,1			# 0x1
	.set	macro
	.set	reorder

$L136:
$LBE387 = .
	.loc 1 761 0
	lw	$4,56($16)
	beq	$4,$0,$L143
	.loc 1 763 0
	jal	rtl_get_ppp_dev_priv
	bne	$2,$0,$L162
	.loc 1 764 0
	lui	$4,%hi($LC4)
	.set	noreorder
	.set	nomacro
	jal	printk
	addiu	$4,$4,%lo($LC4)
	.set	macro
	.set	reorder

	move	$2,$0
$L144:
$L134:
	.loc 1 768 0
	lw	$31,84($sp)
	lw	$21,80($sp)
	lw	$20,76($sp)
	lw	$19,72($sp)
	lw	$18,68($sp)
	lw	$17,64($sp)
	lw	$16,60($sp)
	.set	noreorder
	.set	nomacro
	j	$31
	addiu	$sp,$sp,88
	.set	macro
	.set	reorder

	.cfi_def_cfa_offset 0
	.cfi_restore 16
	.cfi_restore 17
	.cfi_restore 18
	.cfi_restore 19
	.cfi_restore 20
	.cfi_restore 21
	.cfi_restore 31
	.end	fast_pptp_to_wan
	.cfi_endproc
$LFE3081:
	.size	fast_pptp_to_wan, .-fast_pptp_to_wan
	.align	2
	.globl	fast_pptp_sync_rx_seq
$LFB3082 = .
	.loc 1 773 0
	.cfi_startproc
	.set	nomips16
	.ent	fast_pptp_sync_rx_seq
	.type	fast_pptp_sync_rx_seq, @function
fast_pptp_sync_rx_seq:
	.frame	$sp,24,$31		# vars= 0, regs= 1/0, args= 16, gp= 0
	.mask	0x80000000,-4
	.fmask	0x00000000,0
	addiu	$sp,$sp,-24
	.cfi_def_cfa_offset 24
	sw	$31,20($sp)
	.cfi_offset 31, -4
	.loc 1 775 0
	jal	rtl_ip_hdr
	.loc 1 779 0
	lbu	$3,21($2)
	li	$4,1			# 0x1
	andi	$5,$3,0x7
	.set	noreorder
	.set	nomacro
	bne	$5,$4,$L175
	lw	$31,20($sp)
	.set	macro
	.set	reorder

$LBB388 = .
$LBB389 = .
$LBB390 = .
	.loc 3 20 0
	lhu	$5,22($2)
$LBE390 = .
$LBE389 = .
$LBE388 = .
	.loc 1 779 0
	li	$4,34827			# 0x880b
$LBB393 = .
$LBB392 = .
$LBB391 = .
	.loc 3 20 0
#APP
 # 20 "/home/extra_home/marklee/rtk_OpenWRT_BB/BB_v1407_branch_v25/v25_relase_source_test_0830/rtk_OpenWRT_v2.5_Branch_20160603/build_dir/target-mipsel_24kec_uClibc-0.9.33.2/linux-rtkmipsel_rtl8197f/linux-3.10.49/arch/mips/include/uapi/asm/swab.h" 1
		wsbh	$5, $5			

 # 0 "" 2
#NO_APP
	andi	$5,$5,0xffff
$LBE391 = .
$LBE392 = .
$LBE393 = .
	.loc 1 779 0
	bne	$5,$4,$L175
	.loc 1 785 0
	lbu	$4,20($2)
	andi	$4,$4,0x10
	.set	noreorder
	.set	nomacro
	beq	$4,$0,$L176
	seb	$3,$3
	.set	macro
	.set	reorder

	.loc 1 787 0
	lui	$3,%hi(pptpAccInfo)
	addiu	$3,$3,%lo(pptpAccInfo)
	lw	$4,52($3)
$LBB394 = .
$LBB395 = .
$LBB396 = .
	.loc 3 31 0
#APP
 # 31 "/home/extra_home/marklee/rtk_OpenWRT_BB/BB_v1407_branch_v25/v25_relase_source_test_0830/rtk_OpenWRT_v2.5_Branch_20160603/build_dir/target-mipsel_24kec_uClibc-0.9.33.2/linux-rtkmipsel_rtl8197f/linux-3.10.49/arch/mips/include/uapi/asm/swab.h" 1
		wsbh	$5, $4			
	rotr	$5, $5, 16		

 # 0 "" 2
#NO_APP
$LBE396 = .
$LBE395 = .
$LBE394 = .
	.loc 1 787 0
	addiu	$4,$4,1
	sw	$4,52($3)
	lbu	$3,21($2)
	sw	$5,28($2)
	.loc 1 789 0
	seb	$3,$3
$L176:
	.set	noreorder
	.set	nomacro
	bgez	$3,$L175
	lw	$31,20($sp)
	.set	macro
	.set	reorder

	.loc 1 791 0
	lui	$3,%hi(pptpAccInfo+48)
$LBB397 = .
$LBB398 = .
$LBB399 = .
	.loc 3 31 0
	lw	$3,%lo(pptpAccInfo+48)($3)
#APP
 # 31 "/home/extra_home/marklee/rtk_OpenWRT_BB/BB_v1407_branch_v25/v25_relase_source_test_0830/rtk_OpenWRT_v2.5_Branch_20160603/build_dir/target-mipsel_24kec_uClibc-0.9.33.2/linux-rtkmipsel_rtl8197f/linux-3.10.49/arch/mips/include/uapi/asm/swab.h" 1
		wsbh	$3, $3			
	rotr	$3, $3, 16		

 # 0 "" 2
#NO_APP
$LBE399 = .
$LBE398 = .
$LBE397 = .
	.loc 1 791 0
	sw	$3,32($2)
	.loc 1 795 0
	lw	$31,20($sp)
$L175:
	.set	noreorder
	.set	nomacro
	j	$31
	addiu	$sp,$sp,24
	.set	macro
	.set	reorder

	.cfi_def_cfa_offset 0
	.cfi_restore 31
	.end	fast_pptp_sync_rx_seq
	.cfi_endproc
$LFE3082:
	.size	fast_pptp_sync_rx_seq, .-fast_pptp_sync_rx_seq
	.align	2
	.globl	pptpconn_write_proc
$LFB3085 = .
	.loc 1 910 0
	.cfi_startproc
	.set	nomips16
	.ent	pptpconn_write_proc
	.type	pptpconn_write_proc, @function
pptpconn_write_proc:
	.frame	$sp,208,$31		# vars= 200, regs= 1/0, args= 0, gp= 0
	.mask	0x80000000,-4
	.fmask	0x00000000,0
	.loc 1 913 0
	sltu	$4,$6,2
	bne	$4,$0,$L187
	.loc 1 916 0
	.set	noreorder
	.set	nomacro
	beq	$5,$0,$L187
	or	$4,$6,$5
	.set	macro
	.set	reorder

	.loc 1 910 0 discriminator 1
	addiu	$sp,$sp,-208
	.cfi_def_cfa_offset 208
$LBB400 = .
$LBB401 = .
	.loc 1 916 0 discriminator 1
	addu	$2,$6,$5
$LBE401 = .
$LBE400 = .
	.loc 1 910 0 discriminator 1
	sw	$31,204($sp)
	.cfi_offset 31, -4
$LBB404 = .
$LBB402 = .
	.loc 1 916 0 discriminator 1
	or	$2,$4,$2
	lw	$4,24($28)
	and	$2,$2,$4
$LBE402 = .
	.set	noreorder
	.set	nomacro
	bne	$2,$0,$L188
	lw	$31,204($sp)
	.set	macro
	.set	reorder

$LBB403 = .
	move	$4,$sp
#APP
 # 916 "/home/extra_home/marklee/rtk_OpenWRT_BB/BB_v1407_branch_v25/v25_relase_source_test_0830/rtk_OpenWRT_v2.5_Branch_20160603/build_dir/target-mipsel_24kec_uClibc-0.9.33.2/linux-rtkmipsel_rtl8197f/fastpath-0.1/fast_pptp_core.c" 1
	.set	noreorder
	.set	noat
	la	$1, __copy_user
	jalr	$1
	.set	at
	.set	noat
	addu	$1, $5, $6
	.set	at
	.set	reorder
 # 0 "" 2
#NO_APP
$LBE403 = .
$LBE404 = .
	.set	noreorder
	.set	nomacro
	beq	$6,$0,$L181
	move	$3,$sp
	.set	macro
	.set	reorder

	.loc 1 920 0
	.set	noreorder
	.set	nomacro
	j	$L188
	lw	$31,204($sp)
	.set	macro
	.set	reorder

$L182:
$LBB405 = .
$LBB406 = .
	.loc 1 902 0
	addu	$2,$6,$4
	.loc 1 903 0
	addiu	$3,$3,1
$L181:
	.loc 1 901 0
	lb	$4,0($3)
	.loc 1 902 0
	sll	$7,$2,1
	sll	$6,$2,3
	.loc 1 901 0
	addiu	$5,$4,-48
	andi	$5,$5,0x00ff
	.loc 1 902 0
	addu	$6,$7,$6
	.loc 1 901 0
	sltu	$5,$5,10
	.set	noreorder
	.set	nomacro
	bne	$5,$0,$L182
	addiu	$6,$6,-48
	.set	macro
	.set	reorder

$LBE406 = .
$LBE405 = .
	.loc 1 917 0
	lui	$3,%hi(pptp_conn_check)
	sw	$2,%lo(pptp_conn_check)($3)
	.loc 1 920 0
	lw	$31,204($sp)
$L188:
	li	$2,-14			# 0xfffffffffffffff2
	.set	noreorder
	.set	nomacro
	j	$31
	addiu	$sp,$sp,208
	.set	macro
	.set	reorder

	.cfi_def_cfa_offset 0
	.cfi_restore 31
$L187:
	.set	noreorder
	.set	nomacro
	j	$31
	li	$2,-14			# 0xfffffffffffffff2
	.set	macro
	.set	reorder

	.end	pptpconn_write_proc
	.cfi_endproc
$LFE3085:
	.size	pptpconn_write_proc, .-pptpconn_write_proc
	.align	2
$LFB3092 = .
	.loc 1 1033 0
	.cfi_startproc
	.set	nomips16
	.ent	pptp_conn_single_write
	.type	pptp_conn_single_write, @function
pptp_conn_single_write:
	.frame	$sp,0,$31		# vars= 0, regs= 0/0, args= 0, gp= 0
	.mask	0x00000000,0
	.fmask	0x00000000,0
	.set	noreorder
	.set	nomacro
	.loc 1 1034 0
	j	pptpconn_write_proc
	nop

	.set	macro
	.set	reorder
	.end	pptp_conn_single_write
	.cfi_endproc
$LFE3092:
	.size	pptp_conn_single_write, .-pptp_conn_single_write
	.align	2
	.globl	ppfw_write_proc
$LFB3086 = .
	.loc 1 924 0
	.cfi_startproc
	.set	nomips16
	.ent	ppfw_write_proc
	.type	ppfw_write_proc, @function
ppfw_write_proc:
	.frame	$sp,32,$31		# vars= 0, regs= 4/0, args= 16, gp= 0
	.mask	0x80070000,-4
	.fmask	0x00000000,0
	addiu	$sp,$sp,-32
	.cfi_def_cfa_offset 32
	.loc 1 935 0
	sltu	$2,$6,2
	.loc 1 924 0
	sw	$16,16($sp)
	sw	$31,28($sp)
	sw	$18,24($sp)
	sw	$17,20($sp)
	.cfi_offset 16, -16
	.cfi_offset 31, -4
	.cfi_offset 18, -8
	.cfi_offset 17, -12
	.loc 1 935 0
	.set	noreorder
	.set	nomacro
	bne	$2,$0,$L206
	move	$16,$6
	.set	macro
	.set	reorder

	move	$18,$5
$LBB407 = .
$LBB408 = .
	.file 6 "include/linux/slub_def.h"
	.loc 6 174 0
	addiu	$4,$6,32
	.set	noreorder
	.set	nomacro
	jal	__kmalloc
	li	$5,32			# 0x20
	.set	macro
	.set	reorder

$LBE408 = .
$LBE407 = .
	.loc 1 939 0
	.set	noreorder
	.set	nomacro
	beq	$2,$0,$L206
	move	$17,$2
	.set	macro
	.set	reorder

	.loc 1 942 0
	.set	noreorder
	.set	nomacro
	beq	$18,$0,$L194
	or	$3,$18,$16
	.set	macro
	.set	reorder

$LBB409 = .
$LBB410 = .
	.loc 1 942 0 is_stmt 0 discriminator 1
	addu	$2,$18,$16
	or	$2,$3,$2
	lw	$3,24($28)
	and	$2,$2,$3
$LBE410 = .
	.set	noreorder
	.set	nomacro
	bne	$2,$0,$L194
	move	$4,$17
	.set	macro
	.set	reorder

$LBB411 = .
	move	$5,$18
	move	$6,$16
#APP
 # 942 "/home/extra_home/marklee/rtk_OpenWRT_BB/BB_v1407_branch_v25/v25_relase_source_test_0830/rtk_OpenWRT_v2.5_Branch_20160603/build_dir/target-mipsel_24kec_uClibc-0.9.33.2/linux-rtkmipsel_rtl8197f/fastpath-0.1/fast_pptp_core.c" 1
	.set	noreorder
	.set	noat
	la	$1, __copy_user
	jalr	$1
	.set	at
	.set	noat
	addu	$1, $5, $6
	.set	at
	.set	reorder
 # 0 "" 2
#NO_APP
$LBE411 = .
$LBE409 = .
	.set	noreorder
	.set	nomacro
	bne	$6,$0,$L194
	move	$5,$17
	.set	macro
	.set	reorder

	.loc 1 942 0
	.set	noreorder
	.set	nomacro
	j	$L195
	move	$3,$0
	.set	macro
	.set	reorder

$L196:
$LBB412 = .
$LBB413 = .
	.loc 1 902 0 is_stmt 1
	addu	$3,$9,$7
	.loc 1 903 0
	addiu	$5,$5,1
$L195:
	.loc 1 901 0
	lb	$7,0($5)
	.loc 1 902 0
	sll	$2,$3,1
	sll	$9,$3,3
	.loc 1 901 0
	addiu	$8,$7,-48
	andi	$8,$8,0x00ff
	.loc 1 902 0
	addu	$9,$2,$9
	.loc 1 901 0
	sltu	$8,$8,10
	.set	noreorder
	.set	nomacro
	bne	$8,$0,$L196
	addiu	$9,$9,-48
	.set	macro
	.set	reorder

$LBE413 = .
$LBE412 = .
$LBB414 = .
	.loc 1 946 0
	lui	$4,%hi(pptpAccInfo)
$LBE414 = .
	.loc 1 943 0
	lui	$18,%hi(fast_pptp_fw)
$LBB415 = .
	.loc 1 946 0
	addiu	$4,$4,%lo(pptpAccInfo)
	move	$5,$0
	li	$6,64			# 0x40
	.set	noreorder
	.set	nomacro
	jal	memset
	sw	$3,%lo(fast_pptp_fw)($18)
	.set	macro
	.set	reorder

$LBE415 = .
	.loc 1 973 0
	lw	$2,%lo(fast_pptp_fw)($18)
	.set	noreorder
	.set	nomacro
	beq	$2,$0,$L197
	lui	$3,%hi(sync_tx_pptp_gre_seqno)
	.set	macro
	.set	reorder

	.loc 1 975 0
	addiu	$3,$3,%lo(sync_tx_pptp_gre_seqno)
	lui	$2,%hi(sync_tx_pptp_gre_seqno_hook)
	.set	noreorder
	.set	nomacro
	j	$L198
	sw	$3,%lo(sync_tx_pptp_gre_seqno_hook)($2)
	.set	macro
	.set	reorder

$L197:
	.loc 1 979 0
	lui	$2,%hi(sync_tx_pptp_gre_seqno_hook)
	sw	$0,%lo(sync_tx_pptp_gre_seqno_hook)($2)
$L198:
	.loc 1 982 0
	.set	noreorder
	.set	nomacro
	jal	kfree
	move	$4,$17
	.set	macro
	.set	reorder

	.loc 1 983 0
	.set	noreorder
	.set	nomacro
	j	$L192
	move	$2,$16
	.set	macro
	.set	reorder

$L194:
	.loc 1 986 0
	.set	noreorder
	.set	nomacro
	jal	kfree
	move	$4,$17
	.set	macro
	.set	reorder

$L206:
	.loc 1 987 0
	li	$2,-14			# 0xfffffffffffffff2
$L192:
	.loc 1 988 0
	lw	$31,28($sp)
	lw	$18,24($sp)
	lw	$17,20($sp)
	lw	$16,16($sp)
	.set	noreorder
	.set	nomacro
	j	$31
	addiu	$sp,$sp,32
	.set	macro
	.set	reorder

	.cfi_def_cfa_offset 0
	.cfi_restore 16
	.cfi_restore 17
	.cfi_restore 18
	.cfi_restore 31
	.end	ppfw_write_proc
	.cfi_endproc
$LFE3086:
	.size	ppfw_write_proc, .-ppfw_write_proc
	.align	2
$LFB3090 = .
	.loc 1 1013 0
	.cfi_startproc
	.set	nomips16
	.ent	fastpath_pptp_single_write
	.type	fastpath_pptp_single_write, @function
fastpath_pptp_single_write:
	.frame	$sp,0,$31		# vars= 0, regs= 0/0, args= 0, gp= 0
	.mask	0x00000000,0
	.fmask	0x00000000,0
	.set	noreorder
	.set	nomacro
	.loc 1 1014 0
	j	ppfw_write_proc
	nop

	.set	macro
	.set	reorder
	.end	fastpath_pptp_single_write
	.cfi_endproc
$LFE3090:
	.size	fastpath_pptp_single_write, .-fastpath_pptp_single_write
	.section	.rodata.str1.4
	.align	2
$LC5:
	.ascii	"fast_pptp\000"
	.align	2
$LC6:
	.ascii	"pptp_conn_ck\000"
	.section	.init.text,"ax",@progbits
	.align	2
	.globl	fast_pptp_init
$LFB3093 = .
	.loc 1 1087 0
	.cfi_startproc
	.set	nomips16
	.ent	fast_pptp_init
	.type	fast_pptp_init, @function
fast_pptp_init:
	.frame	$sp,32,$31		# vars= 0, regs= 2/0, args= 24, gp= 0
	.mask	0x80010000,-4
	.fmask	0x00000000,0
	.set	noreorder
	.set	nomacro
	.loc 1 1088 0
	lui	$3,%hi(set_pptp_device)
	.loc 1 1087 0
	addiu	$sp,$sp,-32
	.cfi_def_cfa_offset 32
	.loc 1 1088 0
	addiu	$3,$3,%lo(set_pptp_device)
	lui	$2,%hi(set_pptp_device_fphook)
	sw	$3,%lo(set_pptp_device_fphook)($2)
	.loc 1 1087 0
	sw	$16,24($sp)
	.loc 1 1093 0
	lui	$4,%hi($LC5)
	.cfi_offset 16, -8
	lui	$16,%hi(proc_root)
	lui	$7,%hi(fastpath_pptp_proc_fops)
	.loc 1 1089 0
	lui	$3,%hi(get_fastpptp_lastxmit)
	.loc 1 1093 0
	addiu	$6,$16,%lo(proc_root)
	.loc 1 1089 0
	addiu	$3,$3,%lo(get_fastpptp_lastxmit)
	.loc 1 1093 0
	addiu	$4,$4,%lo($LC5)
	move	$5,$0
	addiu	$7,$7,%lo(fastpath_pptp_proc_fops)
	sw	$0,16($sp)
	.loc 1 1089 0
	lui	$2,%hi(get_fastpptp_lastxmit_fphook)
	.loc 1 1087 0
	sw	$31,28($sp)
	.cfi_offset 31, -4
	.loc 1 1093 0
	jal	proc_create_data
	sw	$3,%lo(get_fastpptp_lastxmit_fphook)($2)

	.loc 1 1096 0
	lui	$4,%hi($LC6)
	lui	$7,%hi(pptp_conn_proc_fops)
	addiu	$6,$16,%lo(proc_root)
	.loc 1 1093 0
	lui	$3,%hi(res1)
	.loc 1 1096 0
	addiu	$4,$4,%lo($LC6)
	move	$5,$0
	addiu	$7,$7,%lo(pptp_conn_proc_fops)
	sw	$0,16($sp)
	jal	proc_create_data
	sw	$2,%lo(res1)($3)

$LBB416 = .
	.loc 1 1113 0
	lui	$4,%hi(pptpAccInfo)
$LBE416 = .
	.loc 1 1096 0
	lui	$3,%hi(res_check_pptp)
$LBB417 = .
	.loc 1 1113 0
	addiu	$4,$4,%lo(pptpAccInfo)
	move	$5,$0
	li	$6,64			# 0x40
	jal	memset
	sw	$2,%lo(res_check_pptp)($3)

$LBE417 = .
	.loc 1 1115 0
	lw	$31,28($sp)
	lw	$16,24($sp)
	move	$2,$0
	j	$31
	addiu	$sp,$sp,32

	.cfi_def_cfa_offset 0
	.cfi_restore 16
	.cfi_restore 31
	.set	macro
	.set	reorder
	.end	fast_pptp_init
	.cfi_endproc
$LFE3093:
	.size	fast_pptp_init, .-fast_pptp_init
	.section	.exit.text,"ax",@progbits
	.align	2
	.globl	fast_pptp_exit
$LFB3094 = .
	.loc 1 1122 0
	.cfi_startproc
	.set	nomips16
	.ent	fast_pptp_exit
	.type	fast_pptp_exit, @function
fast_pptp_exit:
	.frame	$sp,24,$31		# vars= 0, regs= 2/0, args= 16, gp= 0
	.mask	0x80010000,-4
	.fmask	0x00000000,0
	.set	noreorder
	.set	nomacro
	addiu	$sp,$sp,-24
	.cfi_def_cfa_offset 24
	sw	$16,16($sp)
	.cfi_offset 16, -8
	.loc 1 1127 0
	lui	$16,%hi(res1)
	.loc 1 1123 0
	lui	$3,%hi(set_pptp_device_fphook)
	.loc 1 1127 0
	lw	$2,%lo(res1)($16)
	.loc 1 1123 0
	sw	$0,%lo(set_pptp_device_fphook)($3)
	.loc 1 1124 0
	lui	$3,%hi(get_fastpptp_lastxmit_fphook)
	sw	$0,%lo(get_fastpptp_lastxmit_fphook)($3)
	.loc 1 1125 0
	lui	$3,%hi(fast_pptp_fw)
	.loc 1 1122 0
	sw	$31,20($sp)
	.cfi_offset 31, -4
	.loc 1 1127 0
	beq	$2,$0,$L211
	sw	$0,%lo(fast_pptp_fw)($3)

	.loc 1 1129 0
	lui	$4,%hi($LC5)
	lui	$5,%hi(proc_root)
	addiu	$4,$4,%lo($LC5)
	jal	remove_proc_entry
	addiu	$5,$5,%lo(proc_root)

	.loc 1 1133 0
	sw	$0,%lo(res1)($16)
$L211:
	.loc 1 1136 0
	lui	$16,%hi(res_check_pptp)
	lw	$2,%lo(res_check_pptp)($16)
	beq	$2,$0,$L210
	lui	$4,%hi($LC6)

	.loc 1 1138 0
	lui	$5,%hi(proc_root)
	addiu	$4,$4,%lo($LC6)
	jal	remove_proc_entry
	addiu	$5,$5,%lo(proc_root)

	.loc 1 1142 0
	sw	$0,%lo(res_check_pptp)($16)
$L210:
	.loc 1 1145 0
	lw	$31,20($sp)
	lw	$16,16($sp)
	j	$31
	addiu	$sp,$sp,24

	.cfi_def_cfa_offset 0
	.cfi_restore 16
	.cfi_restore 31
	.set	macro
	.set	reorder
	.end	fast_pptp_exit
	.cfi_endproc
$LFE3094:
	.size	fast_pptp_exit, .-fast_pptp_exit
	.local	res_check_pptp
	.comm	res_check_pptp,4,4
	.local	res1
	.comm	res1,4,4
	.globl	pptp_conn_proc_fops
	.data
	.align	2
	.type	pptp_conn_proc_fops, @object
	.size	pptp_conn_proc_fops, 108
pptp_conn_proc_fops:
	.space	4
	.word	seq_lseek
	.word	seq_read
	.word	pptp_conn_single_write
	.space	28
	.word	pptp_conn_single_open
	.space	4
	.word	single_release
	.space	52
	.globl	fastpath_pptp_proc_fops
	.align	2
	.type	fastpath_pptp_proc_fops, @object
	.size	fastpath_pptp_proc_fops, 108
fastpath_pptp_proc_fops:
	.space	4
	.word	seq_lseek
	.word	seq_read
	.word	fastpath_pptp_single_write
	.space	28
	.word	fastpath_pptp_single_open
	.space	4
	.word	single_release
	.space	52
	.local	pptp_conn_check
	.comm	pptp_conn_check,4,4
	.globl	pptp_tcp_finished
	.section	.bss,"aw",@nobits
	.align	2
	.type	pptp_tcp_finished, @object
	.size	pptp_tcp_finished, 4
pptp_tcp_finished:
	.space	4
	.local	pptpAccInfo
	.comm	pptpAccInfo,64,4
	.text
$Letext0:
	.file 7 "include/uapi/asm-generic/int-ll64.h"
	.file 8 "include/asm-generic/int-ll64.h"
	.file 9 "/home/extra_home/marklee/rtk_OpenWRT_BB/BB_v1407_branch_v25/v25_relase_source_test_0830/rtk_OpenWRT_v2.5_Branch_20160603/build_dir/target-mipsel_24kec_uClibc-0.9.33.2/linux-rtkmipsel_rtl8197f/linux-3.10.49/include/uapi/asm-generic/posix_types.h"
	.file 10 "include/uapi/linux/types.h"
	.file 11 "include/linux/types.h"
	.file 12 "include/asm-generic/atomic-long.h"
	.file 13 "include/linux/seqlock.h"
	.file 14 "/home/extra_home/marklee/rtk_OpenWRT_BB/BB_v1407_branch_v25/v25_relase_source_test_0830/rtk_OpenWRT_v2.5_Branch_20160603/build_dir/target-mipsel_24kec_uClibc-0.9.33.2/linux-rtkmipsel_rtl8197f/linux-3.10.49/arch/mips/include/asm/page.h"
	.file 15 "include/uapi/linux/in.h"
	.file 16 "include/uapi/linux/if_link.h"
	.file 17 "include/uapi/linux/rtnetlink.h"
	.file 18 "include/net/ndisc.h"
	.file 19 "include/linux/inetdevice.h"
	.file 20 "/home/extra_home/marklee/rtk_OpenWRT_BB/BB_v1407_branch_v25/v25_relase_source_test_0830/rtk_OpenWRT_v2.5_Branch_20160603/build_dir/target-mipsel_24kec_uClibc-0.9.33.2/linux-rtkmipsel_rtl8197f/linux-3.10.49/arch/mips/include/asm/bitops.h"
	.file 21 "include/linux/kmemleak.h"
	.file 22 "include/linux/log2.h"
	.file 23 "include/asm-generic/getorder.h"
	.file 24 "include/linux/slab.h"
	.file 25 "include/uapi/linux/swab.h"
	.file 26 "/home/extra_home/marklee/rtk_OpenWRT_BB/BB_v1407_branch_v25/v25_relase_source_test_0830/rtk_OpenWRT_v2.5_Branch_20160603/build_dir/target-mipsel_24kec_uClibc-0.9.33.2/linux-rtkmipsel_rtl8197f/linux-3.10.49/arch/mips/include/asm/thread_info.h"
	.file 27 "include/net/inet_frag.h"
	.file 28 "include/linux/etherdevice.h"
	.file 29 "include/linux/export.h"
	.file 30 "/home/extra_home/marklee/rtk_OpenWRT_BB/BB_v1407_branch_v25/v25_relase_source_test_0830/rtk_OpenWRT_v2.5_Branch_20160603/build_dir/target-mipsel_24kec_uClibc-0.9.33.2/linux-rtkmipsel_rtl8197f/linux-3.10.49/arch/mips/include/asm/cpu-info.h"
	.file 31 "include/linux/printk.h"
	.file 32 "include/linux/kernel.h"
	.file 33 "include/linux/cpumask.h"
	.file 34 "include/linux/time.h"
	.file 35 "include/linux/highuid.h"
	.file 36 "include/linux/seq_file.h"
	.file 37 "/home/extra_home/marklee/rtk_OpenWRT_BB/BB_v1407_branch_v25/v25_relase_source_test_0830/rtk_OpenWRT_v2.5_Branch_20160603/build_dir/target-mipsel_24kec_uClibc-0.9.33.2/linux-rtkmipsel_rtl8197f/linux-3.10.49/arch/mips/include/asm/io.h"
	.file 38 "include/linux/mm.h"
	.file 39 "include/linux/mmzone.h"
	.file 40 "include/linux/jiffies.h"
	.file 41 "include/linux/workqueue.h"
	.file 42 "include/linux/sched.h"
	.file 43 "include/linux/quota.h"
	.file 44 "include/linux/interrupt.h"
	.file 45 "include/linux/kernel_stat.h"
	.file 46 "include/linux/ioport.h"
	.file 47 "include/linux/debug_locks.h"
	.file 48 "/home/extra_home/marklee/rtk_OpenWRT_BB/BB_v1407_branch_v25/v25_relase_source_test_0830/rtk_OpenWRT_v2.5_Branch_20160603/build_dir/target-mipsel_24kec_uClibc-0.9.33.2/linux-rtkmipsel_rtl8197f/linux-3.10.49/arch/mips/include/asm/pgtable-32.h"
	.file 49 "/home/extra_home/marklee/rtk_OpenWRT_BB/BB_v1407_branch_v25/v25_relase_source_test_0830/rtk_OpenWRT_v2.5_Branch_20160603/build_dir/target-mipsel_24kec_uClibc-0.9.33.2/linux-rtkmipsel_rtl8197f/linux-3.10.49/arch/mips/include/asm/pgtable.h"
	.file 50 "include/asm-generic/pgtable.h"
	.file 51 "include/linux/vmstat.h"
	.file 52 "include/linux/netfilter.h"
	.file 53 "include/net/net_namespace.h"
	.file 54 "include/net/sock.h"
	.file 55 "include/net/inet_sock.h"
	.file 56 "include/net/ip.h"
	.file 57 "include/net/inet_connection_sock.h"
	.file 58 "include/net/route.h"
	.file 59 "include/net/arp.h"
	.file 60 "include/linux/netfilter/x_tables.h"
	.file 61 "include/net/rtl/fastpath/fastpath_core.h"
	.file 62 "include/uapi/linux/netfilter.h"
	.file 63 "/home/extra_home/marklee/rtk_OpenWRT_BB/BB_v1407_branch_v25/v25_relase_source_test_0830/rtk_OpenWRT_v2.5_Branch_20160603/build_dir/target-mipsel_24kec_uClibc-0.9.33.2/linux-rtkmipsel_rtl8197f/linux-3.10.49/arch/mips/include/asm/bug.h"