	.section .mdebug.abi32
	.previous
	.gnu_attribute 4, 3
	.text
$Ltext0:
	.cfi_sections	.debug_frame
	.align	2
$LFB3283 = .
	.file 1 "/home/extra_home/marklee/rtk_OpenWRT_BB/BB_v1407_branch_v25/v25_relase_source_test_0830/rtk_OpenWRT_v2.5_Branch_20160603/build_dir/target-mips_24kec_uClibc-0.9.33.2/linux-rtkmips_rtl8198c/fastpath-0.1/fastpath_core.c"
	.loc 1 2815 0
	.cfi_startproc
	.set	nomips16
	.ent	fastpath_napt_single_write
	.type	fastpath_napt_single_write, @function
fastpath_napt_single_write:
	.frame	$sp,0,$31		# vars= 0, regs= 0/0, args= 0, gp= 0
	.mask	0x00000000,0
	.fmask	0x00000000,0
	.set	noreorder
	.set	nomacro
	.loc 1 2817 0
	j	$31
	move	$2,$6

	.set	macro
	.set	reorder
	.end	fastpath_napt_single_write
	.cfi_endproc
$LFE3283:
	.size	fastpath_napt_single_write, .-fastpath_napt_single_write
	.align	2
$LFB3287 = .
	.loc 1 2873 0
	.cfi_startproc
	.set	nomips16
	.ent	fastpath_path_single_write
	.type	fastpath_path_single_write, @function
fastpath_path_single_write:
	.frame	$sp,0,$31		# vars= 0, regs= 0/0, args= 0, gp= 0
	.mask	0x00000000,0
	.fmask	0x00000000,0
	.set	noreorder
	.set	nomacro
	.loc 1 2875 0
	j	$31
	move	$2,$6

	.set	macro
	.set	reorder
	.end	fastpath_path_single_write
	.cfi_endproc
$LFE3287:
	.size	fastpath_path_single_write, .-fastpath_path_single_write
	.align	2
$LFB3250 = .
	.loc 1 392 0
	.cfi_startproc
	.set	nomips16
	.ent	cache_timeout
	.type	cache_timeout, @function
cache_timeout:
	.frame	$sp,32,$31		# vars= 0, regs= 4/0, args= 16, gp= 0
	.mask	0x80070000,-4
	.fmask	0x00000000,0
	addiu	$sp,$sp,-32
	.cfi_def_cfa_offset 32
	sw	$16,16($sp)
	sw	$31,28($sp)
	sw	$18,24($sp)
	sw	$17,20($sp)
	.cfi_offset 16, -16
	.cfi_offset 31, -4
	.cfi_offset 18, -8
	.cfi_offset 17, -12
	.loc 1 395 0
	lbu	$2,0($4)
	.set	noreorder
	.set	nomacro
	beq	$2,$0,$L3
	move	$16,$4
	.set	macro
	.set	reorder

$LBB847 = .
$LBB848 = .
$LBB849 = .
$LBB850 = .
	.loc 1 369 0
	lw	$4,8($4)
	lw	$3,4($16)
	.loc 1 371 0
	lhu	$2,2($16)
	.loc 1 372 0
	lbu	$18,1($16)
	.loc 1 369 0
	xor	$3,$4,$3
	.loc 1 371 0
	srl	$4,$3,16
	xor	$2,$2,$3
	.loc 1 373 0
	lui	$3,%hi(max_udp_frag_entry)
	lw	$5,%lo(max_udp_frag_entry)($3)
$LBE850 = .
$LBE849 = .
	.loc 1 380 0
	lui	$17,%hi(udp_cache_table)
$LBB853 = .
$LBB851 = .
	.loc 1 371 0
	xor	$2,$2,$4
$LBE851 = .
$LBE853 = .
$LBB854 = .
$LBB855 = .
	.file 2 "include/linux/spinlock.h"
	.loc 2 293 0
	lw	$4,%lo(udp_cache_table)($17)
$LBE855 = .
$LBE854 = .
$LBB857 = .
$LBB852 = .
	.loc 1 372 0
	srl	$3,$2,8
	xor	$18,$2,$18
	xor	$18,$18,$3
	.loc 1 373 0
	addiu	$3,$5,-1
$LBE852 = .
$LBE857 = .
$LBB858 = .
$LBB856 = .
	.loc 2 293 0
	.set	noreorder
	.set	nomacro
	jal	_raw_spin_lock
	and	$18,$18,$3
	.set	macro
	.set	reorder

$LBE856 = .
$LBE858 = .
	.loc 1 384 0
	lw	$2,44($16)
	.set	noreorder
	.set	nomacro
	beq	$2,$0,$L5
	sb	$0,0($16)
	.set	macro
	.set	reorder

	lw	$4,48($16)
	sll	$3,$18,2
	sll	$18,$18,4
	sw	$4,48($2)
	.set	noreorder
	.set	nomacro
	j	$L6
	subu	$18,$18,$3
	.set	macro
	.set	reorder

$L5:
	lw	$2,%lo(udp_cache_table)($17)
	sll	$4,$18,2
	lw	$3,48($16)
	lw	$2,4($2)
	sll	$18,$18,4
	subu	$18,$18,$4
	addu	$2,$2,$18
	sw	$3,4($2)
$L6:
	lw	$3,48($16)
	lw	$4,44($16)
	.loc 1 385 0
	lui	$2,%hi(udp_cache_list_free)
	addiu	$2,$2,%lo(udp_cache_list_free)
	.loc 1 384 0
	sw	$4,0($3)
	lw	$4,%lo(udp_cache_table)($17)
	.loc 1 385 0
	lw	$3,4($2)
	addiu	$5,$16,52
	.loc 1 384 0
	lw	$4,4($4)
	addu	$18,$4,$18
	lw	$4,8($18)
	addiu	$4,$4,-1
	sw	$4,8($18)
	.loc 1 385 0
	sw	$3,56($16)
	sw	$0,52($16)
	sw	$16,0($3)
	lw	$4,8($2)
	.loc 1 387 0
	lw	$3,%lo(udp_cache_table)($17)
	.loc 1 385 0
	sw	$5,4($2)
	addiu	$4,$4,1
	sw	$4,8($2)
$LBB859 = .
$LBB860 = .
$LBB861 = .
$LBB862 = .
$LBB863 = .
$LBB864 = .
	.file 3 "/home/extra_home/marklee/rtk_OpenWRT_BB/BB_v1407_branch_v25/v25_relase_source_test_0830/rtk_OpenWRT_v2.5_Branch_20160603/build_dir/target-mips_24kec_uClibc-0.9.33.2/linux-rtkmips_rtl8198c/linux-3.10.49/arch/mips/include/asm/spinlock.h"
	.loc 3 136 0
	lhu	$2,2($3)
	addiu	$2,$2,1
	.loc 3 137 0
#APP
 # 137 "/home/extra_home/marklee/rtk_OpenWRT_BB/BB_v1407_branch_v25/v25_relase_source_test_0830/rtk_OpenWRT_v2.5_Branch_20160603/build_dir/target-mips_24kec_uClibc-0.9.33.2/linux-rtkmips_rtl8198c/linux-3.10.49/arch/mips/include/asm/spinlock.h" 1
	.set	push
	.set	noreorder
	.set	mips2
	sync
	.set	pop
 # 0 "" 2
	.loc 3 138 0
#NO_APP
	sh	$2,2($3)
	.loc 3 139 0
#APP
 # 139 "/home/extra_home/marklee/rtk_OpenWRT_BB/BB_v1407_branch_v25/v25_relase_source_test_0830/rtk_OpenWRT_v2.5_Branch_20160603/build_dir/target-mips_24kec_uClibc-0.9.33.2/linux-rtkmips_rtl8198c/linux-3.10.49/arch/mips/include/asm/spinlock.h" 1
	.set	push
	.set	noreorder
	.set	mips2
	sync
	.set	pop
 # 0 "" 2
#NO_APP
$LBE864 = .
$LBE863 = .
$LBE862 = .
	.file 4 "include/linux/spinlock_api_smp.h"
	.loc 4 153 0
$L3:
$LBE861 = .
$LBE860 = .
$LBE859 = .
$LBE848 = .
$LBE847 = .
	.loc 1 401 0
	lw	$31,28($sp)
	lw	$18,24($sp)
	lw	$17,20($sp)
	lw	$16,16($sp)
	.set	noreorder
	.set	nomacro
	j	$31
	addiu	$sp,$sp,32
	.set	macro
	.set	reorder

	.cfi_def_cfa_offset 0
	.cfi_restore 16
	.cfi_restore 17
	.cfi_restore 18
	.cfi_restore 31
	.end	cache_timeout
	.cfi_endproc
$LFE3250:
	.size	cache_timeout, .-cache_timeout
	.align	2
$LFB3256 = .
	.loc 1 532 0
	.cfi_startproc
	.set	nomips16
	.ent	negative_cache_timeout
	.type	negative_cache_timeout, @function
negative_cache_timeout:
	.frame	$sp,32,$31		# vars= 0, regs= 4/0, args= 16, gp= 0
	.mask	0x80070000,-4
	.fmask	0x00000000,0
	addiu	$sp,$sp,-32
	.cfi_def_cfa_offset 32
	sw	$17,20($sp)
	sw	$16,16($sp)
	sw	$31,28($sp)
	.cfi_offset 17, -12
	.cfi_offset 16, -16
	.cfi_offset 31, -4
	move	$16,$4
	sw	$18,24($sp)
	.cfi_offset 18, -8
$LBB865 = .
$LBB866 = .
$LBB867 = .
$LBB868 = .
	.loc 1 369 0
	lw	$4,8($4)
	lw	$3,4($16)
	.loc 1 371 0
	lhu	$2,2($16)
	.loc 1 372 0
	lbu	$18,1($16)
	.loc 1 369 0
	xor	$3,$4,$3
	.loc 1 371 0
	srl	$4,$3,16
	xor	$2,$2,$3
	.loc 1 373 0
	lui	$3,%hi(max_udp_frag_entry)
	lw	$5,%lo(max_udp_frag_entry)($3)
$LBE868 = .
$LBE867 = .
	.loc 1 521 0
	lui	$17,%hi(negative_cache_table)
$LBB871 = .
$LBB869 = .
	.loc 1 371 0
	xor	$2,$2,$4
$LBE869 = .
$LBE871 = .
$LBB872 = .
$LBB873 = .
	.loc 2 293 0
	lw	$4,%lo(negative_cache_table)($17)
$LBE873 = .
$LBE872 = .
$LBB875 = .
$LBB870 = .
	.loc 1 372 0
	srl	$3,$2,8
	xor	$18,$2,$18
	xor	$18,$18,$3
	.loc 1 373 0
	addiu	$3,$5,-1
$LBE870 = .
$LBE875 = .
$LBB876 = .
$LBB874 = .
	.loc 2 293 0
	.set	noreorder
	.set	nomacro
	jal	_raw_spin_lock
	and	$18,$18,$3
	.set	macro
	.set	reorder

$LBE874 = .
$LBE876 = .
	.loc 1 524 0
	lw	$3,40($16)
	.set	noreorder
	.set	nomacro
	beq	$3,$0,$L13
	sb	$0,0($16)
	.set	macro
	.set	reorder

	lw	$2,44($16)
	sll	$5,$18,2
	sll	$18,$18,4
$LBE866 = .
$LBE865 = .
	.set	noreorder
	.set	nomacro
	j	$L14
	sw	$2,44($3)
	.set	macro
	.set	reorder

$L13:
$LBB884 = .
$LBB883 = .
	lw	$4,%lo(negative_cache_table)($17)
	sll	$5,$18,2
	lw	$3,44($16)
	sll	$18,$18,4
	subu	$2,$18,$5
	addu	$2,$4,$2
	sw	$3,8($2)
$L14:
	lw	$2,44($16)
	lw	$3,40($16)
	subu	$18,$18,$5
	.loc 1 525 0
	addiu	$5,$16,48
	.loc 1 524 0
	sw	$3,0($2)
	lw	$4,%lo(negative_cache_table)($17)
	.loc 1 525 0
	lui	$2,%hi(negative_cache_list_free)
	addiu	$2,$2,%lo(negative_cache_list_free)
	.loc 1 524 0
	addu	$4,$4,$18
	lw	$6,12($4)
	.loc 1 525 0
	lw	$3,4($2)
	.loc 1 524 0
	addiu	$6,$6,-1
	sw	$6,12($4)
	.loc 1 525 0
	sw	$3,52($16)
	sw	$0,48($16)
	sw	$16,0($3)
	lw	$4,8($2)
	.loc 1 527 0
	lw	$3,%lo(negative_cache_table)($17)
	.loc 1 525 0
	sw	$5,4($2)
	addiu	$4,$4,1
	sw	$4,8($2)
$LBB877 = .
$LBB878 = .
$LBB879 = .
$LBB880 = .
$LBB881 = .
$LBB882 = .
	.loc 3 136 0
	lhu	$2,2($3)
	addiu	$2,$2,1
	.loc 3 137 0
#APP
 # 137 "/home/extra_home/marklee/rtk_OpenWRT_BB/BB_v1407_branch_v25/v25_relase_source_test_0830/rtk_OpenWRT_v2.5_Branch_20160603/build_dir/target-mips_24kec_uClibc-0.9.33.2/linux-rtkmips_rtl8198c/linux-3.10.49/arch/mips/include/asm/spinlock.h" 1
	.set	push
	.set	noreorder
	.set	mips2
	sync
	.set	pop
 # 0 "" 2
	.loc 3 138 0
#NO_APP
	sh	$2,2($3)
	.loc 3 139 0
#APP
 # 139 "/home/extra_home/marklee/rtk_OpenWRT_BB/BB_v1407_branch_v25/v25_relase_source_test_0830/rtk_OpenWRT_v2.5_Branch_20160603/build_dir/target-mips_24kec_uClibc-0.9.33.2/linux-rtkmips_rtl8198c/linux-3.10.49/arch/mips/include/asm/spinlock.h" 1
	.set	push
	.set	noreorder
	.set	mips2
	sync
	.set	pop
 # 0 "" 2
#NO_APP
$LBE882 = .
$LBE881 = .
$LBE880 = .
	.loc 4 153 0
$LBE879 = .
$LBE878 = .
$LBE877 = .
$LBE883 = .
$LBE884 = .
	.loc 1 536 0
	lw	$31,28($sp)
	lw	$18,24($sp)
	lw	$17,20($sp)
	lw	$16,16($sp)
	.set	noreorder
	.set	nomacro
	j	$31
	addiu	$sp,$sp,32
	.set	macro
	.set	reorder

	.cfi_def_cfa_offset 0
	.cfi_restore 16
	.cfi_restore 17
	.cfi_restore 18
	.cfi_restore 31
	.end	negative_cache_timeout
	.cfi_endproc
$LFE3256:
	.size	negative_cache_timeout, .-negative_cache_timeout
	.align	2
	.globl	fastpath_napt_single_open
$LFB3282 = .
	.loc 1 2809 0
	.cfi_startproc
	.set	nomips16
	.ent	fastpath_napt_single_open
	.type	fastpath_napt_single_open, @function
fastpath_napt_single_open:
	.frame	$sp,0,$31		# vars= 0, regs= 0/0, args= 0, gp= 0
	.mask	0x00000000,0
	.fmask	0x00000000,0
	.set	noreorder
	.set	nomacro
	.loc 1 2810 0
	move	$4,$5
	lui	$5,%hi(fastpath_table_napt)
	move	$6,$0
	j	single_open
	addiu	$5,$5,%lo(fastpath_table_napt)

	.set	macro
	.set	reorder
	.end	fastpath_napt_single_open
	.cfi_endproc
$LFE3282:
	.size	fastpath_napt_single_open, .-fastpath_napt_single_open
	.align	2
	.globl	fastpath_path_single_open
$LFB3286 = .
	.loc 1 2867 0
	.cfi_startproc
	.set	nomips16
	.ent	fastpath_path_single_open
	.type	fastpath_path_single_open, @function
fastpath_path_single_open:
	.frame	$sp,0,$31		# vars= 0, regs= 0/0, args= 0, gp= 0
	.mask	0x00000000,0
	.fmask	0x00000000,0
	.set	noreorder
	.set	nomacro
	.loc 1 2868 0
	move	$4,$5
	lui	$5,%hi(fastpath_table_path)
	move	$6,$0
	j	single_open
	addiu	$5,$5,%lo(fastpath_table_path)

	.set	macro
	.set	reorder
	.end	fastpath_path_single_open
	.cfi_endproc
$LFE3286:
	.size	fastpath_path_single_open, .-fastpath_path_single_open
	.section	.rodata.str1.4,"aMS",@progbits,1
	.align	2
$LC0:
	.ascii	"TCP\000"
	.align	2
$LC1:
	.ascii	"UDP\000"
	.align	2
$LC2:
	.ascii	"~Napt: [%s] int=0x%08X:%-5u ext=0x%08X:%-5u rem=0x%08X:%"
	.ascii	"-5u flags=0x%08X \012\000"
	.text
	.align	2
$LFB3281 = .
	.loc 1 2795 0
	.cfi_startproc
	.set	nomips16
	.ent	fastpath_table_napt
	.type	fastpath_table_napt, @function
fastpath_table_napt:
	.frame	$sp,64,$31		# vars= 0, regs= 6/0, args= 40, gp= 0
	.mask	0x801f0000,-4
	.fmask	0x00000000,0
	.set	noreorder
	.set	nomacro
	addiu	$sp,$sp,-64
	.cfi_def_cfa_offset 64
	.loc 1 2798 0
	lui	$2,%hi(napt_list_inuse)
	.loc 1 2795 0
	sw	$16,40($sp)
	.cfi_offset 16, -24
	.loc 1 2798 0
	lw	$16,%lo(napt_list_inuse)($2)
	.loc 1 2799 0
	lui	$2,%hi($LC2)
	.loc 1 2795 0
	sw	$20,56($sp)
	sw	$19,52($sp)
	sw	$18,48($sp)
	sw	$17,44($sp)
	sw	$31,60($sp)
	.cfi_offset 20, -8
	.cfi_offset 19, -12
	.cfi_offset 18, -16
	.cfi_offset 17, -20
	.cfi_offset 31, -4
	.loc 1 2799 0
	li	$20,2			# 0x2
	lui	$19,%hi($LC1)
	lui	$18,%hi($LC0)
	.loc 1 2798 0
	j	$L19
	addiu	$17,$2,%lo($LC2)

$L21:
	.loc 1 2799 0
	lw	$2,16($16)
	lw	$4,4($16)
	lw	$6,8($16)
	lw	$7,12($16)
	sw	$2,16($sp)
	lw	$2,20($16)
	xor	$4,$4,$20
	addiu	$3,$19,%lo($LC1)
	sw	$2,20($sp)
	lw	$2,24($16)
	addiu	$5,$18,%lo($LC0)
	movn	$5,$3,$4
	sw	$2,24($sp)
	lw	$2,28($16)
	move	$4,$17
	sw	$2,28($sp)
	lw	$2,32($16)
	jal	printk
	sw	$2,32($sp)

	.loc 1 2798 0
	lw	$16,44($16)
$L19:
	.loc 1 2798 0 is_stmt 0 discriminator 1
	bne	$16,$0,$L21
	lw	$31,60($sp)

	.loc 1 2806 0 is_stmt 1
	lw	$20,56($sp)
	lw	$19,52($sp)
	lw	$18,48($sp)
	lw	$17,44($sp)
	lw	$16,40($sp)
	move	$2,$0
	j	$31
	addiu	$sp,$sp,64

	.cfi_def_cfa_offset 0
	.cfi_restore 16
	.cfi_restore 17
	.cfi_restore 18
	.cfi_restore 19
	.cfi_restore 20
	.cfi_restore 31
	.set	macro
	.set	reorder
	.end	fastpath_table_napt
	.cfi_endproc
$LFE3281:
	.size	fastpath_table_napt, .-fastpath_table_napt
	.section	.rodata.str1.4
	.align	2
$LC3:
	.ascii	"~Path: [%s] in-S=0x%08X:%-5u in-D=0x%08X:%-5u out-S=0x%0"
	.ascii	"8X:%-5u out-D=0x%08X:%-5u out-ifname=%-5s <%u> {%d}\000"
	.align	2
$LC4:
	.ascii	",[PreMark:%d,PostMark:%d]\000"
	.align	2
$LC5:
	.ascii	"\012\000"
	.text
	.align	2
$LFB3285 = .
	.loc 1 2835 0
	.cfi_startproc
	.set	nomips16
	.ent	fastpath_table_path
	.type	fastpath_table_path, @function
fastpath_table_path:
	.frame	$sp,88,$31		# vars= 0, regs= 7/0, args= 56, gp= 0
	.mask	0x803f0000,-4
	.fmask	0x00000000,0
	.set	noreorder
	.set	nomacro
	addiu	$sp,$sp,-88
	.cfi_def_cfa_offset 88
	.loc 1 2840 0
	lui	$2,%hi(path_list_inuse)
	.loc 1 2835 0
	sw	$16,60($sp)
	.cfi_offset 16, -28
	.loc 1 2840 0
	lw	$16,%lo(path_list_inuse)($2)
	.loc 1 2842 0
	lui	$2,%hi($LC3)
	.loc 1 2835 0
	sw	$19,72($sp)
	.cfi_offset 19, -16
	.loc 1 2842 0
	addiu	$19,$2,%lo($LC3)
	.loc 1 2850 0
	lui	$2,%hi($LC4)
	.loc 1 2835 0
	sw	$18,68($sp)
	.cfi_offset 18, -20
	.loc 1 2850 0
	addiu	$18,$2,%lo($LC4)
	.loc 1 2860 0
	lui	$2,%hi($LC5)
	.loc 1 2835 0
	sw	$21,80($sp)
	sw	$20,76($sp)
	sw	$17,64($sp)
	sw	$31,84($sp)
	.cfi_offset 21, -8
	.cfi_offset 20, -12
	.cfi_offset 17, -24
	.cfi_offset 31, -4
	.loc 1 2842 0
	lui	$21,%hi($LC1)
	lui	$20,%hi($LC0)
	.loc 1 2840 0
	j	$L25
	addiu	$17,$2,%lo($LC5)

$L27:
	.loc 1 2842 0
	lw	$2,20($16)
	lw	$7,12($16)
	lw	$4,4($16)
	lw	$6,16($16)
	sw	$2,16($sp)
	lw	$2,8($16)
	addiu	$3,$21,%lo($LC1)
	xori	$4,$4,0x2
	sw	$2,20($sp)
	lw	$2,24($16)
	addiu	$5,$20,%lo($LC0)
	movn	$5,$3,$4
	sw	$2,24($sp)
	lw	$2,28($16)
	move	$4,$19
	sw	$2,28($sp)
	lw	$2,32($16)
	sw	$2,32($sp)
	lw	$2,36($16)
	sw	$2,36($sp)
	lw	$2,44($16)
	sw	$2,40($sp)
	lbu	$2,2($16)
	sw	$2,44($sp)
	lbu	$2,1($16)
	jal	printk
	sw	$2,48($sp)

	.loc 1 2850 0
	lw	$5,48($16)
	lw	$6,52($16)
	jal	printk
	move	$4,$18

	.loc 1 2860 0
	jal	printk
	move	$4,$17

	.loc 1 2840 0
	lw	$16,72($16)
$L25:
	.loc 1 2840 0 is_stmt 0 discriminator 1
	bne	$16,$0,$L27
	lw	$31,84($sp)

	.loc 1 2864 0 is_stmt 1
	lw	$21,80($sp)
	lw	$20,76($sp)
	lw	$19,72($sp)
	lw	$18,68($sp)
	lw	$17,64($sp)
	lw	$16,60($sp)
	move	$2,$0
	j	$31
	addiu	$sp,$sp,88

	.cfi_def_cfa_offset 0
	.cfi_restore 16
	.cfi_restore 17
	.cfi_restore 18
	.cfi_restore 19
	.cfi_restore 20
	.cfi_restore 21
	.cfi_restore 31
	.set	macro
	.set	reorder
	.end	fastpath_table_path
	.cfi_endproc
$LFE3285:
	.size	fastpath_table_path, .-fastpath_table_path
	.align	2
	.globl	udp_fragCache_init
$LFB3252 = .
	.loc 1 410 0
	.cfi_startproc
	.set	nomips16
	.ent	udp_fragCache_init
	.type	udp_fragCache_init, @function
udp_fragCache_init:
	.frame	$sp,48,$31		# vars= 0, regs= 8/0, args= 16, gp= 0
	.mask	0x807f0000,-4
	.fmask	0x00000000,0
	.set	noreorder
	.set	nomacro
	addiu	$sp,$sp,-48
	.cfi_def_cfa_offset 48
	sw	$21,36($sp)
	.cfi_offset 21, -12
$LBB885 = .
$LBB886 = .
	.file 5 "include/linux/slub_def.h"
	.loc 5 170 0
	lui	$21,%hi(kmalloc_caches)
	addiu	$21,$21,%lo(kmalloc_caches)
$LBE886 = .
$LBE885 = .
	.loc 1 410 0
	sw	$19,28($sp)
	.cfi_offset 19, -20
	move	$19,$4
$LBB893 = .
$LBB891 = .
$LBB887 = .
$LBB888 = .
	.loc 5 142 0
	lw	$4,28($21)
	li	$5,32			# 0x20
$LBE888 = .
$LBE887 = .
$LBE891 = .
$LBE893 = .
	.loc 1 410 0
	sw	$20,32($sp)
	sw	$16,16($sp)
	sw	$31,44($sp)
	sw	$22,40($sp)
	sw	$18,24($sp)
	sw	$17,20($sp)
	.cfi_offset 20, -16
	.cfi_offset 16, -32
	.cfi_offset 31, -4
	.cfi_offset 22, -8
	.cfi_offset 18, -24
	.cfi_offset 17, -28
$LBB894 = .
$LBB892 = .
$LBB890 = .
$LBB889 = .
	.loc 5 142 0
	jal	kmem_cache_alloc
	lui	$20,%hi(udp_cache_table)

	move	$16,$2
$LBE889 = .
$LBE890 = .
$LBE892 = .
$LBE894 = .
	.loc 1 413 0
	bne	$2,$0,$L31
	sw	$2,%lo(udp_cache_table)($20)

$L36:
	.loc 1 415 0
	j	$L32
	move	$2,$0

$L31:
	.loc 1 417 0
	lui	$2,%hi(udp_cache_list_free)
	.loc 1 420 0
	sll	$3,$19,2
	sll	$4,$19,4
	.loc 1 417 0
	addiu	$17,$2,%lo(udp_cache_list_free)
$LBB895 = .
$LBB896 = .
	.loc 5 174 0
	subu	$4,$4,$3
$LBE896 = .
$LBE895 = .
	.loc 1 417 0
	sw	$0,%lo(udp_cache_list_free)($2)
$LBB899 = .
$LBB897 = .
	.loc 5 174 0
	li	$5,32			# 0x20
$LBE897 = .
$LBE899 = .
	.loc 1 419 0
	lui	$2,%hi(max_udp_frag_entry)
	.loc 1 417 0
	sw	$0,8($17)
	sw	$17,4($17)
$LBB900 = .
$LBB898 = .
	.loc 5 174 0
	jal	__kmalloc
	sw	$19,%lo(max_udp_frag_entry)($2)

$LBE898 = .
$LBE900 = .
	.loc 1 421 0
	lw	$3,%lo(udp_cache_table)($20)
	.loc 1 420 0
	sw	$2,4($16)
	.loc 1 421 0
	lw	$2,4($3)
	beq	$2,$0,$L38
	move	$2,$0

	j	$L33
	move	$3,$0

$L34:
	.loc 1 425 0 discriminator 2
	addiu	$3,$3,1
	.loc 1 426 0 discriminator 2
	lw	$5,4($4)
	addu	$5,$5,$2
	sw	$0,8($5)
	lw	$4,4($4)
	addu	$4,$4,$2
	sw	$0,0($4)
	lw	$4,%lo(udp_cache_table)($20)
	lw	$4,4($4)
	addu	$4,$4,$2
	sw	$4,4($4)
	addiu	$2,$2,12
$L33:
	.loc 1 425 0 discriminator 1
	slt	$4,$3,$19
	bne	$4,$0,$L34
	lw	$4,%lo(udp_cache_table)($20)

$LBB901 = .
	.loc 1 437 0
	lui	$22,%hi(cache_timeout)
$LBE901 = .
	.loc 1 425 0
	move	$18,$0
	.loc 1 437 0
	j	$L35
	addiu	$22,$22,%lo(cache_timeout)

$L37:
$LBB906 = .
$LBB902 = .
$LBB903 = .
$LBB904 = .
$LBB905 = .
	.loc 5 142 0
	lw	$4,28($21)
	jal	kmem_cache_alloc
	addiu	$18,$18,1

	move	$16,$2
$LBE905 = .
$LBE904 = .
$LBE903 = .
$LBE902 = .
	.loc 1 435 0
	addiu	$4,$2,16
	move	$5,$0
	move	$6,$0
	.loc 1 430 0
	beq	$2,$0,$L36
	move	$7,$0

	.loc 1 435 0
	jal	init_timer_key
	nop

	.loc 1 438 0
	lw	$2,4($17)
	.loc 1 437 0
	sw	$22,32($16)
	.loc 1 438 0
	sw	$0,52($16)
	sw	$2,56($16)
	.loc 1 436 0
	sw	$16,36($16)
	.loc 1 438 0
	sw	$16,0($2)
	lw	$2,8($17)
	addiu	$16,$16,52
	sw	$16,4($17)
	addiu	$2,$2,1
	sw	$2,8($17)
$L35:
$LBE906 = .
	.loc 1 428 0 discriminator 1
	slt	$2,$18,$19
	bne	$2,$0,$L37
	li	$5,32			# 0x20

	.loc 1 441 0
	lw	$3,%lo(udp_cache_table)($20)
	.loc 1 443 0
	li	$2,1			# 0x1
	j	$L32
	sw	$0,0($3)

$L38:
	.loc 1 423 0
	li	$2,-1			# 0xffffffffffffffff
$L32:
	.loc 1 444 0
	lw	$31,44($sp)
	lw	$22,40($sp)
	lw	$21,36($sp)
	lw	$20,32($sp)
	lw	$19,28($sp)
	lw	$18,24($sp)
	lw	$17,20($sp)
	lw	$16,16($sp)
	j	$31
	addiu	$sp,$sp,48

	.cfi_def_cfa_offset 0
	.cfi_restore 16
	.cfi_restore 17
	.cfi_restore 18
	.cfi_restore 19
	.cfi_restore 20
	.cfi_restore 21
	.cfi_restore 22
	.cfi_restore 31
	.set	macro
	.set	reorder
	.end	udp_fragCache_init
	.cfi_endproc
$LFE3252:
	.size	udp_fragCache_init, .-udp_fragCache_init
	.align	2
	.globl	negative_fragCache_init
$LFB3257 = .
	.loc 1 539 0
	.cfi_startproc
	.set	nomips16
	.ent	negative_fragCache_init
	.type	negative_fragCache_init, @function
negative_fragCache_init:
	.frame	$sp,48,$31		# vars= 0, regs= 7/0, args= 16, gp= 0
	.mask	0x803f0000,-4
	.fmask	0x00000000,0
	.set	noreorder
	.set	nomacro
	addiu	$sp,$sp,-48
	.cfi_def_cfa_offset 48
	sw	$19,32($sp)
	.cfi_offset 19, -16
$LBB907 = .
$LBB908 = .
	.loc 5 170 0
	lui	$19,%hi(kmalloc_caches)
	addiu	$19,$19,%lo(kmalloc_caches)
$LBB909 = .
$LBB910 = .
	.loc 5 142 0
	lw	$4,40($19)
	li	$5,32			# 0x20
$LBE910 = .
$LBE909 = .
$LBE908 = .
$LBE907 = .
	.loc 1 539 0
	sw	$20,36($sp)
	sw	$31,44($sp)
	sw	$21,40($sp)
	sw	$18,28($sp)
	sw	$17,24($sp)
	sw	$16,20($sp)
	.cfi_offset 20, -12
	.cfi_offset 31, -4
	.cfi_offset 21, -8
	.cfi_offset 18, -20
	.cfi_offset 17, -24
	.cfi_offset 16, -28
$LBB914 = .
$LBB913 = .
$LBB912 = .
$LBB911 = .
	.loc 5 142 0
	jal	kmem_cache_alloc
	lui	$20,%hi(negative_cache_table)

$LBE911 = .
$LBE912 = .
$LBE913 = .
$LBE914 = .
	.loc 1 542 0
	bne	$2,$0,$L44
	sw	$2,%lo(negative_cache_table)($20)

$L48:
	.loc 1 544 0
	j	$L45
	move	$2,$0

$L44:
	.loc 1 546 0
	lui	$3,%hi(negative_cache_list_free)
	addiu	$17,$3,%lo(negative_cache_list_free)
	sw	$0,%lo(negative_cache_list_free)($3)
	sw	$0,8($17)
	sw	$17,4($17)
	addiu	$2,$2,4
	li	$3,64			# 0x40
$L47:
	addiu	$3,$3,-1
	.loc 1 549 0 discriminator 2
	sw	$0,8($2)
	sw	$0,0($2)
	sw	$2,4($2)
	.loc 1 548 0 discriminator 2
	bne	$3,$0,$L47
	addiu	$2,$2,12

$LBB915 = .
	.loc 1 559 0
	lui	$21,%hi(negative_cache_timeout)
$LBE915 = .
	.loc 1 548 0
	li	$18,64			# 0x40
$LBB920 = .
	.loc 1 559 0
	addiu	$21,$21,%lo(negative_cache_timeout)
$L50:
$LBB916 = .
$LBB917 = .
$LBB918 = .
$LBB919 = .
	.loc 5 142 0
	lw	$4,28($19)
	li	$5,32			# 0x20
	jal	kmem_cache_alloc
	addiu	$18,$18,-1

	move	$16,$2
$LBE919 = .
$LBE918 = .
$LBE917 = .
$LBE916 = .
	.loc 1 557 0
	addiu	$4,$2,12
	move	$5,$0
	move	$6,$0
	.loc 1 553 0
	beq	$2,$0,$L48
	move	$7,$0

	.loc 1 557 0
	jal	init_timer_key
	nop

	.loc 1 560 0
	lw	$2,4($17)
	.loc 1 559 0
	sw	$21,28($16)
	.loc 1 560 0
	sw	$0,48($16)
	sw	$2,52($16)
	.loc 1 558 0
	sw	$16,32($16)
	.loc 1 560 0
	sw	$16,0($2)
	lw	$2,8($17)
	addiu	$16,$16,48
	sw	$16,4($17)
	addiu	$2,$2,1
$LBE920 = .
	.loc 1 551 0
	bne	$18,$0,$L50
	sw	$2,8($17)

	.loc 1 564 0
	lw	$3,%lo(negative_cache_table)($20)
	.loc 1 568 0
	li	$2,1			# 0x1
	.loc 1 564 0
	sw	$0,0($3)
$L45:
	.loc 1 569 0
	lw	$31,44($sp)
	lw	$21,40($sp)
	lw	$20,36($sp)
	lw	$19,32($sp)
	lw	$18,28($sp)
	lw	$17,24($sp)
	lw	$16,20($sp)
	j	$31
	addiu	$sp,$sp,48

	.cfi_def_cfa_offset 0
	.cfi_restore 16
	.cfi_restore 17
	.cfi_restore 18
	.cfi_restore 19
	.cfi_restore 20
	.cfi_restore 21
	.cfi_restore 31
	.set	macro
	.set	reorder
	.end	negative_fragCache_init
	.cfi_endproc
$LFE3257:
	.size	negative_fragCache_init, .-negative_fragCache_init
	.align	2
	.globl	rtk_addArp
$LFB3262 = .
	.loc 1 769 0
	.cfi_startproc
	.set	nomips16
	.ent	rtk_addArp
	.type	rtk_addArp, @function
rtk_addArp:
	.frame	$sp,0,$31		# vars= 0, regs= 0/0, args= 0, gp= 0
	.mask	0x00000000,0
	.fmask	0x00000000,0
	.set	noreorder
	.set	nomacro
	.loc 1 800 0
	j	$31
	move	$2,$0

	.set	macro
	.set	reorder
	.end	rtk_addArp
	.cfi_endproc
$LFE3262:
	.size	rtk_addArp, .-rtk_addArp
	.align	2
	.globl	rtk_modifyArp
$LFB3263 = .
	.loc 1 806 0
	.cfi_startproc
	.set	nomips16
	.ent	rtk_modifyArp
	.type	rtk_modifyArp, @function
rtk_modifyArp:
	.frame	$sp,0,$31		# vars= 0, regs= 0/0, args= 0, gp= 0
	.mask	0x00000000,0
	.fmask	0x00000000,0
	.set	noreorder
	.set	nomacro
	.loc 1 822 0
	j	$31
	move	$2,$0

	.set	macro
	.set	reorder
	.end	rtk_modifyArp
	.cfi_endproc
$LFE3263:
	.size	rtk_modifyArp, .-rtk_modifyArp
	.align	2
	.globl	rtk_delArp
$LFB3264 = .
	.loc 1 829 0
	.cfi_startproc
	.set	nomips16
	.ent	rtk_delArp
	.type	rtk_delArp, @function
rtk_delArp:
	.frame	$sp,0,$31		# vars= 0, regs= 0/0, args= 0, gp= 0
	.mask	0x00000000,0
	.fmask	0x00000000,0
	.set	noreorder
	.set	nomacro
	.loc 1 847 0
	j	$31
	li	$2,-4			# 0xfffffffffffffffc

	.set	macro
	.set	reorder
	.end	rtk_delArp
	.cfi_endproc
$LFE3264:
	.size	rtk_delArp, .-rtk_delArp
	.align	2
	.globl	rtk_addRoute
$LFB3265 = .
	.loc 1 855 0
	.cfi_startproc
	.set	nomips16
	.ent	rtk_addRoute
	.type	rtk_addRoute, @function
rtk_addRoute:
	.frame	$sp,0,$31		# vars= 0, regs= 0/0, args= 0, gp= 0
	.mask	0x00000000,0
	.fmask	0x00000000,0
	.set	noreorder
	.set	nomacro
	.loc 1 880 0
	j	$31
	move	$2,$0

	.set	macro
	.set	reorder
	.end	rtk_addRoute
	.cfi_endproc
$LFE3265:
	.size	rtk_addRoute, .-rtk_addRoute
	.align	2
	.globl	rtk_modifyRoute
$LFB3266 = .
	.loc 1 888 0
	.cfi_startproc
	.set	nomips16
	.ent	rtk_modifyRoute
	.type	rtk_modifyRoute, @function
rtk_modifyRoute:
	.frame	$sp,0,$31		# vars= 0, regs= 0/0, args= 0, gp= 0
	.mask	0x00000000,0
	.fmask	0x00000000,0
	.set	noreorder
	.set	nomacro
	.loc 1 911 0
	j	$31
	move	$2,$0

	.set	macro
	.set	reorder
	.end	rtk_modifyRoute
	.cfi_endproc
$LFE3266:
	.size	rtk_modifyRoute, .-rtk_modifyRoute
	.align	2
	.globl	rtk_delRoute
$LFB3267 = .
	.loc 1 915 0
	.cfi_startproc
	.set	nomips16
	.ent	rtk_delRoute
	.type	rtk_delRoute, @function
rtk_delRoute:
	.frame	$sp,0,$31		# vars= 0, regs= 0/0, args= 0, gp= 0
	.mask	0x00000000,0
	.fmask	0x00000000,0
	.set	noreorder
	.set	nomacro
	.loc 1 935 0
	j	$31
	li	$2,-4			# 0xfffffffffffffffc

	.set	macro
	.set	reorder
	.end	rtk_delRoute
	.cfi_endproc
$LFE3267:
	.size	rtk_delRoute, .-rtk_delRoute
	.align	2
	.globl	rtk_addSession
$LFB3268 = .
	.loc 1 942 0
	.cfi_startproc
	.set	nomips16
	.ent	rtk_addSession
	.type	rtk_addSession, @function
rtk_addSession:
	.frame	$sp,0,$31		# vars= 0, regs= 0/0, args= 0, gp= 0
	.mask	0x00000000,0
	.fmask	0x00000000,0
	.set	noreorder
	.set	nomacro
	.loc 1 944 0
	j	$31
	move	$2,$0

	.set	macro
	.set	reorder
	.end	rtk_addSession
	.cfi_endproc
$LFE3268:
	.size	rtk_addSession, .-rtk_addSession
	.align	2
	.globl	rtk_delSession
$LFB3269 = .
	.loc 1 948 0
	.cfi_startproc
	.set	nomips16
	.ent	rtk_delSession
	.type	rtk_delSession, @function
rtk_delSession:
	.frame	$sp,0,$31		# vars= 0, regs= 0/0, args= 0, gp= 0
	.mask	0x00000000,0
	.fmask	0x00000000,0
	.set	noreorder
	.set	nomacro
	.loc 1 950 0
	j	$31
	move	$2,$0

	.set	macro
	.set	reorder
	.end	rtk_delSession
	.cfi_endproc
$LFE3269:
	.size	rtk_delSession, .-rtk_delSession
	.align	2
	.globl	set_bypass_connmark
$LFB3270 = .
	.loc 1 954 0
	.cfi_startproc
	.set	nomips16
	.ent	set_bypass_connmark
	.type	set_bypass_connmark, @function
set_bypass_connmark:
	.frame	$sp,0,$31		# vars= 0, regs= 0/0, args= 0, gp= 0
	.mask	0x00000000,0
	.fmask	0x00000000,0
	.set	noreorder
	.set	nomacro
	.loc 1 955 0
	li	$2,1			# 0x1
	j	$31
	sw	$2,136($4)

	.set	macro
	.set	reorder
	.end	set_bypass_connmark
	.cfi_endproc
$LFE3270:
	.size	set_bypass_connmark, .-set_bypass_connmark
	.align	2
	.globl	reset_bypass_connmark
$LFB3271 = .
	.loc 1 958 0
	.cfi_startproc
	.set	nomips16
	.ent	reset_bypass_connmark
	.type	reset_bypass_connmark, @function
reset_bypass_connmark:
	.frame	$sp,0,$31		# vars= 0, regs= 0/0, args= 0, gp= 0
	.mask	0x00000000,0
	.fmask	0x00000000,0
	.set	noreorder
	.set	nomacro
	.loc 1 959 0
	j	$31
	sw	$0,136($4)

	.set	macro
	.set	reorder
	.end	reset_bypass_connmark
	.cfi_endproc
$LFE3271:
	.size	reset_bypass_connmark, .-reset_bypass_connmark
	.align	2
	.globl	rtk_addNaptConnection
$LFB3272 = .
	.loc 1 968 0
	.cfi_startproc
	.set	nomips16
	.ent	rtk_addNaptConnection
	.type	rtk_addNaptConnection, @function
rtk_addNaptConnection:
	.frame	$sp,136,$31		# vars= 80, regs= 10/0, args= 16, gp= 0
	.mask	0xc0ff0000,-4
	.fmask	0x00000000,0
	addiu	$sp,$sp,-136
	.cfi_def_cfa_offset 136
	sw	$18,104($sp)
	sw	$31,132($sp)
	sw	$fp,128($sp)
	sw	$23,124($sp)
	sw	$22,120($sp)
	sw	$21,116($sp)
	sw	$20,112($sp)
	sw	$19,108($sp)
	sw	$17,100($sp)
	sw	$16,96($sp)
	.cfi_offset 18, -32
	.cfi_offset 31, -4
	.cfi_offset 30, -8
	.cfi_offset 23, -12
	.cfi_offset 22, -16
	.cfi_offset 21, -20
	.cfi_offset 20, -24
	.cfi_offset 19, -28
	.cfi_offset 17, -36
	.cfi_offset 16, -40
	.loc 1 968 0
	move	$18,$5
	.loc 1 993 0
	.set	noreorder
	.set	nomacro
	beq	$5,$0,$L137
	sw	$6,144($sp)
	.set	macro
	.set	reorder

	move	$16,$4
	.loc 1 996 0
	move	$4,$5
	.set	noreorder
	.set	nomacro
	jal	rtl_eth_hdr
	move	$17,$7
	.set	macro
	.set	reorder

	.set	noreorder
	.set	nomacro
	beq	$2,$0,$L137
	li	$21,6			# 0x6
	.set	macro
	.set	reorder

	.loc 1 1002 0
	lw	$3,0($16)
	.loc 1 1015 0
	lw	$4,20($16)
	.loc 1 1003 0
	li	$2,17			# 0x11
	xori	$3,$3,0x2
	.loc 1 1015 0
	.set	noreorder
	.set	nomacro
	jal	filter_addconnect
	movn	$21,$2,$3
	.set	macro
	.set	reorder

$LBB921 = .
$LBB922 = .
	.file 6 "/home/extra_home/marklee/rtk_OpenWRT_BB/BB_v1407_branch_v25/v25_relase_source_test_0830/rtk_OpenWRT_v2.5_Branch_20160603/build_dir/target-mips_24kec_uClibc-0.9.33.2/linux-rtkmips_rtl8198c/linux-3.10.49/arch/mips/include/asm/irqflags.h"
	.loc 6 39 0
#APP
 # 39 "/home/extra_home/marklee/rtk_OpenWRT_BB/BB_v1407_branch_v25/v25_relase_source_test_0830/rtk_OpenWRT_v2.5_Branch_20160603/build_dir/target-mips_24kec_uClibc-0.9.33.2/linux-rtkmips_rtl8198c/linux-3.10.49/arch/mips/include/asm/irqflags.h" 1
		.set	push						
	.set	reorder						
	.set	noat						
	di	$2					
	andi	$2, 1					
	sll $0, $0, 3			
	.set	pop						

 # 0 "" 2
#NO_APP
$LBE922 = .
$LBE921 = .
	.loc 1 1019 0
	lw	$3,4($16)
$LBB924 = .
$LBB923 = .
	.loc 6 39 0
	sw	$2,56($sp)
$LBE923 = .
$LBE924 = .
$LBB925 = .
$LBB926 = .
	.loc 1 706 0
	lw	$2,8($16)
$LBE926 = .
$LBE925 = .
	.loc 1 1019 0
	lw	$4,20($16)
$LBB930 = .
$LBB927 = .
	.loc 1 706 0
	lw	$6,24($16)
	lhu	$5,2($16)
	xor	$2,$3,$2
	.loc 1 705 0
	xor	$2,$2,$4
	.loc 1 706 0
	xor	$2,$2,$6
	.loc 1 707 0
	xor	$2,$2,$5
	.loc 1 706 0
	srl	$4,$4,16
	.loc 1 708 0
	xor	$4,$2,$4
	.loc 1 705 0
	srl	$2,$3,16
	.loc 1 710 0
	lui	$3,%hi(napt_table_list_max)
$LBE927 = .
$LBE930 = .
$LBB931 = .
$LBB932 = .
	.loc 2 293 0
	lui	$5,%hi(table_napt)
$LBE932 = .
$LBE931 = .
$LBB935 = .
$LBB928 = .
	.loc 1 710 0
	lw	$3,%lo(napt_table_list_max)($3)
	.loc 1 709 0
	xor	$2,$4,$2
$LBE928 = .
$LBE935 = .
$LBB936 = .
$LBB933 = .
	.loc 2 293 0
	lw	$4,%lo(table_napt)($5)
$LBE933 = .
$LBE936 = .
$LBB937 = .
$LBB929 = .
	.loc 1 710 0
	srl	$19,$2,12
	xor	$2,$19,$2
	addiu	$3,$3,-1
$LBE929 = .
$LBE937 = .
$LBB938 = .
$LBB934 = .
	.loc 2 293 0
	.set	noreorder
	.set	nomacro
	jal	_raw_spin_lock
	and	$19,$2,$3
	.set	macro
	.set	reorder

$LBE934 = .
$LBE938 = .
	.loc 1 1024 0
	lui	$6,%hi(table_napt)
	lw	$5,%lo(table_napt)($6)
	sll	$3,$19,2
	sll	$6,$19,4
	lw	$2,4($5)
	subu	$6,$6,$3
	addu	$2,$2,$6
	.set	noreorder
	.set	nomacro
	j	$L70
	lw	$2,0($2)
	.set	macro
	.set	reorder

$L73:
	.loc 1 1025 0
	lw	$4,4($2)
	lw	$3,0($16)
	bne	$4,$3,$L71
	.loc 1 1025 0 is_stmt 0 discriminator 1
	lw	$4,8($2)
	lw	$3,4($16)
	bne	$4,$3,$L71
	.loc 1 1026 0 is_stmt 1
	lw	$4,12($2)
	lw	$3,8($16)
	bne	$4,$3,$L71
	.loc 1 1027 0
	lw	$4,16($2)
	lw	$3,12($16)
	bne	$4,$3,$L71
	.loc 1 1028 0
	lw	$4,20($2)
	lw	$3,16($16)
	bne	$4,$3,$L71
	.loc 1 1029 0
	lw	$4,24($2)
	lw	$3,20($16)
	bne	$4,$3,$L71
	.loc 1 1030 0
	lw	$4,28($2)
	lw	$3,24($16)
	.set	noreorder
	.set	nomacro
	bne	$4,$3,$L71
	lw	$4,144($sp)
	.set	macro
	.set	reorder

	.loc 1 1033 0
	move	$5,$21
	.set	noreorder
	.set	nomacro
	jal	rtl_conntrack_drop_check_hook
	move	$6,$4
	.set	macro
	.set	reorder

	.loc 1 1036 0
	lui	$3,%hi(table_napt)
	lw	$2,%lo(table_napt)($3)
$LBB939 = .
$LBB940 = .
$LBB941 = .
$LBB942 = .
$LBB943 = .
$LBB944 = .
	.loc 3 136 0
	lhu	$3,2($2)
	addiu	$3,$3,1
	.loc 3 137 0
#APP
 # 137 "/home/extra_home/marklee/rtk_OpenWRT_BB/BB_v1407_branch_v25/v25_relase_source_test_0830/rtk_OpenWRT_v2.5_Branch_20160603/build_dir/target-mips_24kec_uClibc-0.9.33.2/linux-rtkmips_rtl8198c/linux-3.10.49/arch/mips/include/asm/spinlock.h" 1
	.set	push
	.set	noreorder
	.set	mips2
	sync
	.set	pop
 # 0 "" 2
	.loc 3 138 0
#NO_APP
	sh	$3,2($2)
	.loc 3 139 0
#APP
 # 139 "/home/extra_home/marklee/rtk_OpenWRT_BB/BB_v1407_branch_v25/v25_relase_source_test_0830/rtk_OpenWRT_v2.5_Branch_20160603/build_dir/target-mips_24kec_uClibc-0.9.33.2/linux-rtkmips_rtl8198c/linux-3.10.49/arch/mips/include/asm/spinlock.h" 1
	.set	push
	.set	noreorder
	.set	mips2
	sync
	.set	pop
 # 0 "" 2
#NO_APP
$LBE944 = .
$LBE943 = .
$LBE942 = .
	.loc 4 153 0
$LBE941 = .
$LBE940 = .
$LBE939 = .
$LBB945 = .
$LBB946 = .
	.loc 6 186 0
	lw	$4,56($sp)
	andi	$2,$4,0x1
$LBE946 = .
$LBE945 = .
	.loc 1 1038 0
	bne	$2,$0,$L72
$LBB947 = .
$LBB948 = .
	.loc 6 58 0 discriminator 1
	move	$2,$4
#APP
 # 58 "/home/extra_home/marklee/rtk_OpenWRT_BB/BB_v1407_branch_v25/v25_relase_source_test_0830/rtk_OpenWRT_v2.5_Branch_20160603/build_dir/target-mips_24kec_uClibc-0.9.33.2/linux-rtkmips_rtl8198c/linux-3.10.49/arch/mips/include/asm/irqflags.h" 1
		.set	push						
	.set	noreorder					
	.set	noat						
	beqz	$2, 1f					
	di							
	ei							
1:								
	sll $0, $0, 3			
	.set	pop						

 # 0 "" 2
#NO_APP
$LBE948 = .
$LBE947 = .
	.loc 1 1039 0 discriminator 1
	.set	noreorder
	.set	nomacro
	j	$L67
	move	$2,$0
	.set	macro
	.set	reorder

$L72:
$LBB949 = .
$LBB950 = .
	.loc 6 58 0 discriminator 2
	lw	$2,56($sp)
#APP
 # 58 "/home/extra_home/marklee/rtk_OpenWRT_BB/BB_v1407_branch_v25/v25_relase_source_test_0830/rtk_OpenWRT_v2.5_Branch_20160603/build_dir/target-mips_24kec_uClibc-0.9.33.2/linux-rtkmips_rtl8198c/linux-3.10.49/arch/mips/include/asm/irqflags.h" 1
		.set	push						
	.set	noreorder					
	.set	noat						
	beqz	$2, 1f					
	di							
	ei							
1:								
	sll $0, $0, 3			
	.set	pop						

 # 0 "" 2
#NO_APP
$LBE950 = .
$LBE949 = .
	.loc 1 1039 0 discriminator 2
	.set	noreorder
	.set	nomacro
	j	$L67
	move	$2,$0
	.set	macro
	.set	reorder

$L71:
	.loc 1 1024 0
	lw	$2,36($2)
$L70:
	.loc 1 1024 0 is_stmt 0 discriminator 1
	.set	noreorder
	.set	nomacro
	bne	$2,$0,$L73
	lui	$4,%hi(napt_list_free)
	.set	macro
	.set	reorder

	.loc 1 1043 0 is_stmt 1
	lw	$2,%lo(napt_list_free)($4)
	.set	noreorder
	.set	nomacro
	beq	$2,$0,$L74
	li	$8,-1			# 0xffffffffffffffff
	.set	macro
	.set	reorder

	.loc 1 1045 0
	lw	$7,0($16)
	.loc 1 1054 0
	lw	$3,44($2)
	.loc 1 1045 0
	sw	$7,4($2)
	.loc 1 1046 0
	lw	$7,4($16)
	addiu	$4,$4,%lo(napt_list_free)
	sw	$7,8($2)
	.loc 1 1047 0
	lw	$7,8($16)
	sw	$7,12($2)
	.loc 1 1048 0
	lw	$7,12($16)
	sw	$7,16($2)
	.loc 1 1049 0
	lw	$7,16($16)
	sw	$7,20($2)
	.loc 1 1050 0
	lw	$7,20($16)
	sw	$7,24($2)
	.loc 1 1051 0
	lw	$7,24($16)
	.loc 1 1052 0
	sw	$17,32($2)
	.loc 1 1053 0
	sb	$8,0($2)
	.loc 1 1051 0
	sw	$7,28($2)
	.loc 1 1054 0
	.set	noreorder
	.set	nomacro
	beq	$3,$0,$L75
	lw	$7,48($2)
	.set	macro
	.set	reorder

	.loc 1 1054 0 is_stmt 0 discriminator 1
	sw	$7,48($3)
	lw	$7,48($2)
	.set	noreorder
	.set	nomacro
	j	$L76
	lw	$3,44($2)
	.set	macro
	.set	reorder

$L75:
	.loc 1 1054 0 discriminator 2
	sw	$7,4($4)
$L76:
	.loc 1 1054 0 discriminator 1
	sw	$3,0($7)
	.loc 1 1055 0 is_stmt 1 discriminator 1
	lui	$3,%hi(napt_list_inuse)
	.loc 1 1054 0 discriminator 1
	lw	$8,8($4)
	.loc 1 1055 0 discriminator 1
	addiu	$3,$3,%lo(napt_list_inuse)
	lw	$7,4($3)
	.loc 1 1054 0 discriminator 1
	addiu	$8,$8,-1
	sw	$8,8($4)
	.loc 1 1055 0 discriminator 1
	sw	$7,48($2)
	sw	$0,44($2)
	sw	$2,0($7)
	lw	$4,8($3)
	addiu	$7,$2,44
	sw	$7,4($3)
	addiu	$4,$4,1
	sw	$4,8($3)
	.loc 1 1056 0 discriminator 1
	sw	$0,36($2)
	lw	$4,4($5)
	addiu	$3,$2,36
	addu	$4,$4,$6
	lw	$4,4($4)
	sw	$4,40($2)
	lw	$4,4($5)
	addu	$4,$4,$6
	lw	$4,4($4)
	sw	$2,0($4)
	lw	$2,4($5)
	.loc 1 1064 0 discriminator 1
	li	$4,33			# 0x21
	sb	$4,49($sp)
	.loc 1 1056 0 discriminator 1
	addu	$2,$2,$6
	sw	$3,4($2)
	lw	$2,4($5)
	.loc 1 1063 0 discriminator 1
	sb	$0,48($sp)
	.loc 1 1056 0 discriminator 1
	addu	$6,$2,$6
	lw	$2,8($6)
	addiu	$2,$2,1
	.loc 1 1068 0 discriminator 1
	.set	noreorder
	.set	nomacro
	jal	rtl865x_getLanDev
	sw	$2,8($6)
	.set	macro
	.set	reorder

	.loc 1 1069 0 discriminator 1
	.set	noreorder
	.set	nomacro
	jal	rtl865x_getWanDev
	move	$23,$2
	.set	macro
	.set	reorder

	.loc 1 1070 0 discriminator 1
	move	$4,$18
	.set	noreorder
	.set	nomacro
	jal	rtl_get_skb_protocol
	sw	$2,60($sp)
	.set	macro
	.set	reorder

	.loc 1 1071 0 discriminator 1
	move	$4,$18
	.set	noreorder
	.set	nomacro
	jal	rtl_ip_hdr
	sw	$2,88($sp)
	.set	macro
	.set	reorder

	.loc 1 1072 0 discriminator 1
	lw	$20,0($2)
$LBB951 = .
	.loc 1 1075 0 discriminator 1
	move	$4,$18
$LBE951 = .
	.loc 1 1071 0 discriminator 1
	move	$19,$2
	.loc 1 1072 0 discriminator 1
	ext	$20,$20,24,4
	sll	$20,$20,2
$LBB952 = .
	.loc 1 1075 0 discriminator 1
	.set	noreorder
	.set	nomacro
	jal	rtl_eth_hdr
	addu	$20,$2,$20
	.set	macro
	.set	reorder

	lwl	$3,6($2)
	lbu	$6,10($2)
	lbu	$5,11($2)
	lwr	$3,9($2)
$LBE952 = .
$LBB953 = .
	.loc 1 1076 0 discriminator 1
	move	$4,$18
$LBE953 = .
$LBB954 = .
	.loc 1 1075 0 discriminator 1
	sb	$6,44($sp)
	sw	$3,40($sp)
$LBE954 = .
$LBB955 = .
	.loc 1 1076 0 discriminator 1
	.set	noreorder
	.set	nomacro
	jal	rtl_eth_hdr
	sb	$5,45($sp)
	.set	macro
	.set	reorder

	lwl	$3,0($2)
	lbu	$6,4($2)
	lbu	$5,5($2)
	lwr	$3,3($2)
$LBE955 = .
	.loc 1 1084 0 discriminator 1
	move	$4,$18
$LBB956 = .
	.loc 1 1076 0 discriminator 1
	sb	$6,36($sp)
	sw	$3,32($sp)
$LBE956 = .
	.loc 1 1084 0 discriminator 1
	.set	noreorder
	.set	nomacro
	jal	rtl_get_skb_mark
	sb	$5,37($sp)
	.set	macro
	.set	reorder

$LBB957 = .
$LBB958 = .
	.loc 2 293 0 discriminator 1
	lui	$5,%hi(lock_rtl_feature)
	addiu	$4,$5,%lo(lock_rtl_feature)
$LBE958 = .
$LBE957 = .
	.loc 1 1088 0 discriminator 1
	lw	$6,12($19)
	.loc 1 1089 0 discriminator 1
	lhu	$3,0($20)
	.loc 1 1091 0 discriminator 1
	lhu	$5,2($20)
	.loc 1 1084 0 discriminator 1
	sw	$2,68($sp)
	.loc 1 1090 0 discriminator 1
	lw	$2,16($19)
	.loc 1 1088 0 discriminator 1
	sw	$6,72($sp)
	.loc 1 1089 0 discriminator 1
	sw	$3,76($sp)
	.loc 1 1090 0 discriminator 1
	sw	$2,80($sp)
$LBB960 = .
$LBB959 = .
	.loc 2 293 0 discriminator 1
	.set	noreorder
	.set	nomacro
	jal	_raw_spin_lock
	sw	$5,84($sp)
	.set	macro
	.set	reorder

$LBE959 = .
$LBE960 = .
	.loc 1 1095 0 discriminator 1
	.set	noreorder
	.set	nomacro
	jal	rtl_store_skb_dst
	move	$4,$18
	.set	macro
	.set	reorder

	.loc 1 1097 0 discriminator 1
	lui	$2,%hi(dst_tmp)
	lw	$2,%lo(dst_tmp)($2)
	.set	noreorder
	.set	nomacro
	beq	$2,$0,$L77
	lui	$22,%hi(table_path)
	.set	macro
	.set	reorder

$L141:
$LBB961 = .
$LBB962 = .
	.loc 2 293 0
	lw	$4,%lo(table_path)($22)
	.set	noreorder
	.set	nomacro
	jal	_raw_spin_lock
	lui	$fp,%hi(path_table_list_max)
	.set	macro
	.set	reorder

$LBE962 = .
$LBE961 = .
	.loc 1 1106 0
	lw	$3,4($16)
	lw	$2,20($16)
	lw	$4,24($16)
$LBB963 = .
$LBB964 = .
	.loc 1 729 0
	lw	$6,8($16)
	.loc 1 727 0
	xor	$5,$2,$3
	.loc 1 728 0
	xor	$5,$5,$4
	.loc 1 727 0
	srl	$3,$3,8
	.loc 1 728 0
	xor	$3,$5,$3
	srl	$5,$2,16
	.loc 1 729 0
	xor	$5,$3,$5
	srl	$3,$6,4
	.loc 1 730 0
	xor	$5,$5,$3
	.loc 1 732 0
	lw	$3,%lo(path_table_list_max)($fp)
	.loc 1 731 0
	xor	$5,$5,$21
$LBE964 = .
$LBE963 = .
	.loc 1 1114 0
	lui	$6,%hi(path_list_free)
	lw	$17,%lo(path_list_free)($6)
$LBB966 = .
$LBB965 = .
	.loc 1 732 0
	srl	$6,$5,12
	addiu	$3,$3,-1
	xor	$5,$6,$5
	and	$5,$5,$3
$LBE965 = .
$LBE966 = .
	.loc 1 1114 0
	.set	noreorder
	.set	nomacro
	bne	$17,$0,$L78
	sw	$5,64($sp)
	.set	macro
	.set	reorder

	.loc 1 1303 0
	.set	noreorder
	.set	nomacro
	j	$L138
	lw	$5,12($16)
	.set	macro
	.set	reorder

$L77:
	.loc 1 1097 0 discriminator 1
	lw	$5,16($19)
	lw	$6,12($19)
	lbu	$7,1($19)
	.set	noreorder
	.set	nomacro
	jal	rtl_ip_route_input
	move	$4,$18
	.set	macro
	.set	reorder

	.set	noreorder
	.set	nomacro
	beq	$2,$0,$L141
	lui	$22,%hi(table_path)
	.set	macro
	.set	reorder

	.loc 1 1533 0
	.set	noreorder
	.set	nomacro
	j	$L67
	li	$2,-1			# 0xffffffffffffffff
	.set	macro
	.set	reorder

$L78:
	.loc 1 1118 0
	lw	$3,0($16)
$LBB967 = .
$LBB968 = .
	.loc 1 2067 0
	lui	$2,%hi(route_list_inuse)
	lw	$2,%lo(route_list_inuse)($2)
$LBE968 = .
$LBE967 = .
	.loc 1 1118 0
	sw	$3,4($17)
	.loc 1 1119 0
	lw	$12,4($16)
$LBB971 = .
$LBB969 = .
	.loc 1 2064 0
	move	$6,$0
	.loc 1 2063 0
	move	$8,$0
$LBE969 = .
$LBE971 = .
	.loc 1 1119 0
	sw	$12,16($17)
	.loc 1 1120 0
	lw	$10,8($16)
	sw	$10,12($17)
	.loc 1 1121 0
	lw	$3,20($16)
	sw	$3,20($17)
	.loc 1 1122 0
	lw	$3,24($16)
	sw	$3,8($17)
	.loc 1 1123 0
	lw	$11,12($16)
	sw	$11,24($17)
	.loc 1 1124 0
	lw	$9,16($16)
	sw	$9,28($17)
	.loc 1 1125 0
	lw	$7,20($16)
	sw	$7,32($17)
	.loc 1 1126 0
	lw	$3,24($16)
	.set	noreorder
	.set	nomacro
	j	$L81
	sw	$3,36($17)
	.set	macro
	.set	reorder

$L83:
$LBB972 = .
$LBB970 = .
	.loc 1 2068 0
	lw	$3,8($2)
	sltu	$4,$3,$6
	.set	noreorder
	.set	nomacro
	bne	$4,$0,$L82
	and	$5,$3,$7
	.set	macro
	.set	reorder

	lw	$4,4($2)
	bne	$5,$4,$L82
	.loc 1 2069 0
	addiu	$8,$2,16
	move	$6,$3
$L82:
	.loc 1 2067 0
	lw	$2,44($2)
$L81:
	.set	noreorder
	.set	nomacro
	bne	$2,$0,$L83
	li	$3,-1			# 0xffffffffffffffff
	.set	macro
	.set	reorder

$LBE970 = .
$LBE972 = .
	.loc 1 1132 0
	li	$2,1			# 0x1
	.loc 1 1128 0
	sw	$8,44($17)
	.loc 1 1132 0
	sb	$2,2($17)
	.loc 1 1136 0
	.set	noreorder
	.set	nomacro
	bne	$12,$11,$L84
	sb	$3,0($17)
	.set	macro
	.set	reorder

	.loc 1 1135 0
	.set	noreorder
	.set	nomacro
	j	$L85
	sb	$0,1($17)
	.set	macro
	.set	reorder

$L84:
	.loc 1 1137 0
	sb	$2,1($17)
$L85:
	.loc 1 1142 0
	beq	$10,$9,$L86
	.loc 1 1143 0
	lbu	$2,1($17)
	ori	$2,$2,0x2
	sb	$2,1($17)
$L86:
	.loc 1 1148 0
	sw	$0,48($17)
	.loc 1 1149 0
	sw	$0,52($17)
	.loc 1 1152 0
	lw	$2,4($16)
	.loc 1 1158 0
	move	$4,$18
	move	$5,$0
	.loc 1 1152 0
	sw	$2,12($19)
	.loc 1 1153 0
	lw	$2,8($16)
	sh	$2,0($20)
	.loc 1 1154 0
	lw	$2,20($16)
	sw	$2,16($19)
	.loc 1 1155 0
	lw	$2,24($16)
	sh	$2,2($20)
$LBB973 = .
	.loc 1 1157 0
	sw	$0,16($sp)
	sw	$0,20($sp)
	sw	$0,24($sp)
$LBE973 = .
	.loc 1 1158 0
	.set	noreorder
	.set	nomacro
	jal	rtl_set_skb_mark
	sh	$0,28($sp)
	.set	macro
	.set	reorder

	.loc 1 1159 0
	.set	noreorder
	.set	nomacro
	beq	$23,$0,$L88
	move	$5,$23
	.set	macro
	.set	reorder

	.loc 1 1159 0 is_stmt 0 discriminator 1
	lw	$4,4($16)
	.set	noreorder
	.set	nomacro
	jal	rtl_arp_req_get_ha
	addiu	$6,$sp,16
	.set	macro
	.set	reorder

	.set	noreorder
	.set	nomacro
	bne	$2,$0,$L142
	li	$2,6			# 0x6
	.set	macro
	.set	reorder

	.loc 1 1163 0 is_stmt 1
	move	$4,$18
	.set	noreorder
	.set	nomacro
	jal	rtl_ppp_proto_check
	addiu	$5,$sp,48
	.set	macro
	.set	reorder

	sw	$2,92($sp)
	lw	$3,92($sp)
	li	$2,1			# 0x1
	bne	$3,$2,$L91
	.loc 1 1164 0
	.set	noreorder
	.set	nomacro
	jal	rtl_skb_mac_header_was_set
	move	$4,$18
	.set	macro
	.set	reorder

	lw	$4,92($sp)
	bne	$2,$4,$L91
	.loc 1 1165 0
	.set	noreorder
	.set	nomacro
	jal	rtl_eth_hdr
	move	$4,$18
	.set	macro
	.set	reorder

	lbu	$4,12($2)
	lbu	$3,13($2)
	sll	$2,$4,8
	or	$3,$3,$2
	li	$2,2048			# 0x800
	.set	noreorder
	.set	nomacro
	beq	$3,$2,$L91
	move	$4,$18
	.set	macro
	.set	reorder

	.loc 1 1167 0
	.set	noreorder
	.set	nomacro
	jal	rtl_skb_set_mac_header
	li	$5,-22			# 0xffffffffffffffea
	.set	macro
	.set	reorder

$L91:
$LBB974 = .
	.loc 1 1171 0
	.set	noreorder
	.set	nomacro
	jal	rtl_eth_hdr
	move	$4,$18
	.set	macro
	.set	reorder

	lw	$5,16($sp)
	addiu	$3,$2,6
$LBE974 = .
	.loc 1 1172 0
	move	$4,$18
$LBB975 = .
	.loc 1 1171 0
	swl	$5,6($2)
	swr	$5,3($3)
	lbu	$2,20($sp)
$LBE975 = .
	.loc 1 1172 0
	move	$5,$23
$LBB976 = .
	.loc 1 1171 0
	sb	$2,4($3)
	lbu	$2,21($sp)
$LBE976 = .
	.loc 1 1172 0
	.set	noreorder
	.set	nomacro
	jal	rtl_set_skb_dmac
	sb	$2,5($3)
	.set	macro
	.set	reorder

	.loc 1 1175 0
	lw	$5,88($sp)
	li	$2,2048			# 0x800
	.set	noreorder
	.set	nomacro
	bne	$5,$2,$L142
	li	$2,6			# 0x6
	.set	macro
	.set	reorder

$LBB977 = .
$LBB978 = .
	.loc 1 955 0
	li	$2,1			# 0x1
	sw	$2,136($18)
$LBE978 = .
$LBE977 = .
$LBB979 = .
$LBB980 = .
	.file 7 "include/linux/list.h"
	.loc 7 188 0
	lui	$2,%hi(nf_hooks+144)
$LBE980 = .
$LBE979 = .
	.loc 1 1178 0
	lw	$3,%lo(nf_hooks+144)($2)
	addiu	$2,$2,%lo(nf_hooks+144)
	.set	noreorder
	.set	nomacro
	beq	$3,$2,$L93
	lw	$7,60($sp)
	.set	macro
	.set	reorder

	.loc 1 1178 0 is_stmt 0 discriminator 2
	move	$4,$18
	li	$5,2			# 0x2
	.set	noreorder
	.set	nomacro
	jal	rtl_ipt_do_table
	move	$6,$23
	.set	macro
	.set	reorder

$L93:
	.loc 1 1180 0 is_stmt 1
	.set	noreorder
	.set	nomacro
	jal	rtl_get_skb_mark
	move	$4,$18
	.set	macro
	.set	reorder

	beq	$2,$0,$L94
	.loc 1 1180 0 is_stmt 0 discriminator 1
	.set	noreorder
	.set	nomacro
	jal	rtl_get_skb_mark
	move	$4,$18
	.set	macro
	.set	reorder

	.set	noreorder
	.set	nomacro
	j	$L139
	sw	$2,48($17)
	.set	macro
	.set	reorder

$L94:
	.loc 1 1180 0 discriminator 2
	lw	$2,48($17)
	.loc 1 1180 0 discriminator 3
	sw	$2,48($17)
$L139:
$LBB981 = .
$LBB982 = .
	.loc 1 959 0 is_stmt 1 discriminator 3
	sw	$0,136($18)
$L88:
$LBE982 = .
$LBE981 = .
	.loc 1 1270 0
	li	$2,6			# 0x6
$L142:
	.set	noreorder
	.set	nomacro
	bne	$21,$2,$L96
	lw	$5,144($sp)
	.set	macro
	.set	reorder

	.loc 1 1271 0
	.set	noreorder
	.set	nomacro
	jal	rtl_tcp_get_timeouts
	lw	$4,144($sp)
	.set	macro
	.set	reorder

	.set	noreorder
	.set	nomacro
	j	$L97
	sw	$2,60($17)
	.set	macro
	.set	reorder

$L96:
	.loc 1 1274 0
	li	$4,1			# 0x1
	.set	noreorder
	.set	nomacro
	jal	udp_get_timeouts_by_state
	li	$6,1			# 0x1
	.set	macro
	.set	reorder

	sw	$2,60($17)
$L97:
	.loc 1 1292 0
	lui	$2,%hi(jiffies)
	lw	$2,%lo(jiffies)($2)
	.loc 1 1290 0
	lw	$6,144($sp)
	.loc 1 1296 0
	lw	$3,72($17)
	.loc 1 1292 0
	sw	$2,40($17)
	.loc 1 1290 0
	sw	$6,56($17)
	.loc 1 1296 0
	.set	noreorder
	.set	nomacro
	beq	$3,$0,$L98
	lw	$4,76($17)
	.set	macro
	.set	reorder

	.loc 1 1296 0 is_stmt 0 discriminator 1
	sw	$4,76($3)
	lui	$2,%hi(path_list_free)
	addiu	$2,$2,%lo(path_list_free)
	lw	$4,76($17)
	.set	noreorder
	.set	nomacro
	j	$L99
	lw	$3,72($17)
	.set	macro
	.set	reorder

$L98:
	.loc 1 1296 0 discriminator 2
	lui	$5,%hi(path_list_free)
	addiu	$2,$5,%lo(path_list_free)
	sw	$4,4($2)
$L99:
	.loc 1 1296 0 discriminator 1
	sw	$3,0($4)
	.loc 1 1297 0 is_stmt 1 discriminator 1
	lui	$3,%hi(path_list_inuse)
	.loc 1 1296 0 discriminator 1
	lw	$5,8($2)
	.loc 1 1297 0 discriminator 1
	addiu	$3,$3,%lo(path_list_inuse)
	lw	$4,4($3)
	.loc 1 1296 0 discriminator 1
	addiu	$5,$5,-1
	.loc 1 1297 0 discriminator 1
	sw	$0,72($17)
	sw	$4,76($17)
	.loc 1 1296 0 discriminator 1
	sw	$5,8($2)
	.loc 1 1297 0 discriminator 1
	sw	$17,0($4)
	lw	$5,8($3)
	.loc 1 1298 0 discriminator 1
	lw	$4,%lo(table_path)($22)
	.loc 1 1297 0 discriminator 1
	addiu	$2,$17,72
	.loc 1 1298 0 discriminator 1
	lw	$6,64($sp)
	.loc 1 1297 0 discriminator 1
	addiu	$5,$5,1
	.loc 1 1298 0 discriminator 1
	sw	$0,64($17)
	.loc 1 1297 0 discriminator 1
	sw	$5,8($3)
	sw	$2,4($3)
	.loc 1 1298 0 discriminator 1
	lw	$3,4($4)
	sll	$5,$6,4
	sll	$2,$6,2
	subu	$2,$5,$2
	addu	$3,$3,$2
	lw	$5,4($3)
	addiu	$6,$17,64
	lw	$3,%lo(path_table_list_max)($fp)
	sw	$5,68($17)
	lw	$4,4($4)
	lui	$5,%hi(path_list_free)
	addiu	$3,$3,-1
	addu	$4,$4,$2
	lw	$4,4($4)
	sw	$17,0($4)
	lw	$4,%lo(table_path)($22)
	lw	$17,%lo(path_list_free)($5)
	lw	$5,4($4)
	addu	$5,$5,$2
	sw	$6,4($5)
	lw	$4,4($4)
	addu	$2,$4,$2
	lw	$4,8($2)
	addiu	$4,$4,1
	sw	$4,8($2)
	lw	$2,20($16)
	lw	$4,24($16)
	.loc 1 1303 0
	lw	$5,12($16)
$L138:
$LBB983 = .
$LBB984 = .
	.loc 1 727 0
	lw	$8,16($16)
	srl	$6,$2,8
	.loc 1 728 0
	srl	$7,$5,16
	.loc 1 727 0
	xor	$5,$5,$8
	.loc 1 728 0
	xor	$5,$5,$7
	xor	$5,$5,$21
	.loc 1 729 0
	xor	$2,$5,$2
	.loc 1 730 0
	xor	$2,$2,$6
	.loc 1 729 0
	srl	$4,$4,4
	.loc 1 731 0
	xor	$4,$2,$4
	.loc 1 732 0
	srl	$fp,$4,12
	xor	$4,$fp,$4
$LBE984 = .
$LBE983 = .
	.loc 1 1309 0
	.set	noreorder
	.set	nomacro
	beq	$17,$0,$L100
	and	$fp,$4,$3
	.set	macro
	.set	reorder

	.loc 1 1311 0
	lw	$3,0($16)
$LBB985 = .
$LBB986 = .
	.loc 1 2067 0
	lui	$2,%hi(route_list_inuse)
	lw	$2,%lo(route_list_inuse)($2)
$LBE986 = .
$LBE985 = .
	.loc 1 1311 0
	sw	$3,4($17)
	.loc 1 1312 0
	lw	$3,20($16)
$LBB989 = .
$LBB987 = .
	.loc 1 2064 0
	move	$7,$0
	.loc 1 2063 0
	move	$8,$0
$LBE987 = .
$LBE989 = .
	.loc 1 1312 0
	sw	$3,16($17)
	.loc 1 1313 0
	lw	$3,24($16)
	sw	$3,12($17)
	.loc 1 1314 0
	lw	$11,12($16)
	sw	$11,20($17)
	.loc 1 1315 0
	lw	$10,16($16)
	sw	$10,8($17)
	.loc 1 1316 0
	lw	$3,20($16)
	sw	$3,24($17)
	.loc 1 1317 0
	lw	$3,24($16)
	sw	$3,28($17)
	.loc 1 1318 0
	lw	$6,4($16)
	sw	$6,32($17)
	.loc 1 1319 0
	lw	$9,8($16)
	.set	noreorder
	.set	nomacro
	j	$L101
	sw	$9,36($17)
	.set	macro
	.set	reorder

$L103:
$LBB990 = .
$LBB988 = .
	.loc 1 2068 0
	lw	$3,8($2)
	sltu	$4,$3,$7
	.set	noreorder
	.set	nomacro
	bne	$4,$0,$L102
	and	$5,$3,$6
	.set	macro
	.set	reorder

	lw	$4,4($2)
	bne	$5,$4,$L102
	.loc 1 2069 0
	addiu	$8,$2,16
	move	$7,$3
$L102:
	.loc 1 2067 0
	lw	$2,44($2)
$L101:
	bne	$2,$0,$L103
$LBE988 = .
$LBE990 = .
	.loc 1 1325 0
	li	$2,2			# 0x2
	sb	$2,2($17)
	.loc 1 1326 0
	li	$2,-1			# 0xffffffffffffffff
	.loc 1 1321 0
	sw	$8,44($17)
	.loc 1 1329 0
	.set	noreorder
	.set	nomacro
	bne	$11,$6,$L104
	sb	$2,0($17)
	.set	macro
	.set	reorder

	.loc 1 1328 0
	.set	noreorder
	.set	nomacro
	j	$L105
	sb	$0,1($17)
	.set	macro
	.set	reorder

$L104:
	.loc 1 1330 0
	li	$2,4			# 0x4
	sb	$2,1($17)
$L105:
	.loc 1 1332 0
	beq	$10,$9,$L106
	.loc 1 1333 0
	lbu	$2,1($17)
	ori	$2,$2,0x8
	sb	$2,1($17)
$L106:
	.loc 1 1343 0
	sw	$0,48($17)
	.loc 1 1344 0
	sw	$0,52($17)
	.loc 1 1392 0
	lw	$2,20($16)
	.loc 1 1398 0
	move	$4,$18
	move	$5,$0
	.loc 1 1392 0
	sw	$2,12($19)
	.loc 1 1393 0
	lw	$2,24($16)
	sh	$2,0($20)
	.loc 1 1394 0
	lw	$2,4($16)
	sw	$2,16($19)
	.loc 1 1395 0
	lw	$2,8($16)
	sh	$2,2($20)
$LBB991 = .
	.loc 1 1397 0
	sw	$0,16($sp)
	sw	$0,20($sp)
	sw	$0,24($sp)
$LBE991 = .
	.loc 1 1398 0
	.set	noreorder
	.set	nomacro
	jal	rtl_set_skb_mark
	sh	$0,28($sp)
	.set	macro
	.set	reorder

	.loc 1 1399 0
	.set	noreorder
	.set	nomacro
	beq	$23,$0,$L108
	move	$5,$23
	.set	macro
	.set	reorder

	.loc 1 1399 0 is_stmt 0 discriminator 1
	lw	$4,4($16)
	.set	noreorder
	.set	nomacro
	jal	rtl_arp_req_get_ha
	addiu	$6,$sp,16
	.set	macro
	.set	reorder

	.set	noreorder
	.set	nomacro
	bne	$2,$0,$L108
	move	$4,$18
	.set	macro
	.set	reorder

	.loc 1 1402 0 is_stmt 1
	.set	noreorder
	.set	nomacro
	jal	rtl_ppp_proto_check
	addiu	$5,$sp,48
	.set	macro
	.set	reorder

	move	$16,$2
	li	$2,1			# 0x1
	bne	$16,$2,$L111
	.loc 1 1403 0
	.set	noreorder
	.set	nomacro
	jal	rtl_skb_mac_header_was_set
	move	$4,$18
	.set	macro
	.set	reorder

	bne	$2,$16,$L111
	.loc 1 1404 0
	.set	noreorder
	.set	nomacro
	jal	rtl_eth_hdr
	move	$4,$18
	.set	macro
	.set	reorder

	lbu	$4,12($2)
	lbu	$3,13($2)
	sll	$2,$4,8
	or	$3,$3,$2
	li	$2,2048			# 0x800
	.set	noreorder
	.set	nomacro
	beq	$3,$2,$L111
	move	$4,$18
	.set	macro
	.set	reorder

	.loc 1 1406 0
	.set	noreorder
	.set	nomacro
	jal	rtl_skb_set_mac_header
	li	$5,-22			# 0xffffffffffffffea
	.set	macro
	.set	reorder

$L111:
$LBB992 = .
	.loc 1 1409 0
	.set	noreorder
	.set	nomacro
	jal	rtl_eth_hdr
	move	$4,$18
	.set	macro
	.set	reorder

	lw	$3,16($sp)
$LBE992 = .
	.loc 1 1410 0
	move	$4,$18
	move	$5,$23
$LBB993 = .
	.loc 1 1409 0
	swl	$3,0($2)
	swr	$3,3($2)
	lbu	$3,20($sp)
	sb	$3,4($2)
	lbu	$3,21($sp)
$LBE993 = .
	.loc 1 1410 0
	.set	noreorder
	.set	nomacro
	jal	rtl_set_skb_smac
	sb	$3,5($2)
	.set	macro
	.set	reorder

	.loc 1 1413 0
	lw	$6,88($sp)
	li	$2,2048			# 0x800
	.set	noreorder
	.set	nomacro
	bne	$6,$2,$L108
	li	$2,1			# 0x1
	.set	macro
	.set	reorder

$LBB994 = .
$LBB995 = .
	.loc 1 955 0
	sw	$2,136($18)
$LBE995 = .
$LBE994 = .
$LBB996 = .
$LBB997 = .
	.loc 7 188 0
	lui	$2,%hi(nf_hooks+144)
$LBE997 = .
$LBE996 = .
	.loc 1 1416 0
	lw	$3,%lo(nf_hooks+144)($2)
	addiu	$2,$2,%lo(nf_hooks+144)
	.set	noreorder
	.set	nomacro
	beq	$3,$2,$L113
	lw	$7,60($sp)
	.set	macro
	.set	reorder

	.loc 1 1416 0 is_stmt 0 discriminator 2
	move	$4,$18
	li	$5,2			# 0x2
	.set	noreorder
	.set	nomacro
	jal	rtl_ipt_do_table
	move	$6,$23
	.set	macro
	.set	reorder

$L113:
$LBB998 = .
$LBB999 = .
	.loc 1 959 0 is_stmt 1
	sw	$0,136($18)
$L108:
$LBE999 = .
$LBE998 = .
	.loc 1 1441 0
	.set	noreorder
	.set	nomacro
	jal	rtl_get_skb_mark
	move	$4,$18
	.set	macro
	.set	reorder

	sw	$2,48($17)
	.loc 1 1460 0
	li	$2,6			# 0x6
	.set	noreorder
	.set	nomacro
	bne	$21,$2,$L114
	lw	$5,144($sp)
	.set	macro
	.set	reorder

	.loc 1 1461 0
	.set	noreorder
	.set	nomacro
	jal	rtl_tcp_get_timeouts
	lw	$4,144($sp)
	.set	macro
	.set	reorder

	.set	noreorder
	.set	nomacro
	j	$L115
	sw	$2,60($17)
	.set	macro
	.set	reorder

$L114:
	.loc 1 1464 0
	li	$4,1			# 0x1
	.set	noreorder
	.set	nomacro
	jal	udp_get_timeouts_by_state
	li	$6,1			# 0x1
	.set	macro
	.set	reorder

	sw	$2,60($17)
$L115:
	.loc 1 1482 0
	lui	$2,%hi(jiffies)
	.loc 1 1480 0
	lw	$4,144($sp)
	.loc 1 1482 0
	lw	$2,%lo(jiffies)($2)
	.loc 1 1487 0
	lw	$3,72($17)
	.loc 1 1480 0
	sw	$4,56($17)
	.loc 1 1482 0
	sw	$2,40($17)
	.loc 1 1487 0
	.set	noreorder
	.set	nomacro
	beq	$3,$0,$L116
	lw	$4,76($17)
	.set	macro
	.set	reorder

	.loc 1 1487 0 is_stmt 0 discriminator 1
	sw	$4,76($3)
	lui	$2,%hi(path_list_free)
	addiu	$2,$2,%lo(path_list_free)
	lw	$4,76($17)
	.set	noreorder
	.set	nomacro
	j	$L117
	lw	$3,72($17)
	.set	macro
	.set	reorder

$L116:
	.loc 1 1487 0 discriminator 2
	lui	$5,%hi(path_list_free)
	addiu	$2,$5,%lo(path_list_free)
	sw	$4,4($2)
$L117:
	.loc 1 1487 0 discriminator 1
	sw	$3,0($4)
	.loc 1 1488 0 is_stmt 1 discriminator 1
	lui	$3,%hi(path_list_inuse)
	.loc 1 1487 0 discriminator 1
	lw	$5,8($2)
	.loc 1 1488 0 discriminator 1
	addiu	$3,$3,%lo(path_list_inuse)
	lw	$4,4($3)
	.loc 1 1487 0 discriminator 1
	addiu	$5,$5,-1
	.loc 1 1488 0 discriminator 1
	sw	$0,72($17)
	sw	$4,76($17)
	.loc 1 1487 0 discriminator 1
	sw	$5,8($2)
	.loc 1 1488 0 discriminator 1
	sw	$17,0($4)
	lw	$5,8($3)
	.loc 1 1489 0 discriminator 1
	lw	$2,%lo(table_path)($22)
	.loc 1 1488 0 discriminator 1
	addiu	$4,$17,72
	addiu	$5,$5,1
	.loc 1 1489 0 discriminator 1
	sw	$0,64($17)
	.loc 1 1488 0 discriminator 1
	sw	$4,4($3)
	sw	$5,8($3)
	.loc 1 1489 0 discriminator 1
	lw	$3,4($2)
	sll	$4,$fp,2
	sll	$fp,$fp,4
	subu	$fp,$fp,$4
	addu	$3,$3,$fp
	lw	$3,4($3)
	addiu	$4,$17,64
	sw	$3,68($17)
	lw	$2,4($2)
	addu	$2,$2,$fp
	lw	$2,4($2)
	sw	$17,0($2)
	lw	$2,%lo(table_path)($22)
	lw	$3,4($2)
	addu	$3,$3,$fp
	sw	$4,4($3)
	lw	$2,4($2)
	addu	$fp,$2,$fp
	lw	$2,8($fp)
	addiu	$2,$2,1
	sw	$2,8($fp)
$L100:
$LBB1000 = .
	.loc 1 1496 0
	.set	noreorder
	.set	nomacro
	jal	rtl_eth_hdr
	move	$4,$18
	.set	macro
	.set	reorder

	lw	$3,40($sp)
$LBE1000 = .
$LBB1001 = .
	.loc 1 1497 0
	move	$4,$18
$LBE1001 = .
$LBB1002 = .
	.loc 1 1496 0
	swl	$3,6($2)
	swr	$3,9($2)
	lbu	$3,44($sp)
	sb	$3,10($2)
	lbu	$3,45($sp)
$LBE1002 = .
$LBB1003 = .
	.loc 1 1497 0
	.set	noreorder
	.set	nomacro
	jal	rtl_eth_hdr
	sb	$3,11($2)
	.set	macro
	.set	reorder

	lw	$3,32($sp)
$LBE1003 = .
	.loc 1 1500 0
	lw	$5,68($sp)
	move	$4,$18
$LBB1004 = .
	.loc 1 1497 0
	swl	$3,0($2)
	swr	$3,3($2)
	lbu	$3,36($sp)
	sb	$3,4($2)
	lbu	$3,37($sp)
$LBE1004 = .
	.loc 1 1500 0
	.set	noreorder
	.set	nomacro
	jal	rtl_set_skb_mark
	sb	$3,5($2)
	.set	macro
	.set	reorder

	.loc 1 1503 0
	lw	$6,72($sp)
	.loc 1 1504 0
	lw	$2,76($sp)
	.loc 1 1505 0
	lw	$3,80($sp)
	.loc 1 1506 0
	lw	$5,84($sp)
	.loc 1 1503 0
	sw	$6,12($19)
	.loc 1 1508 0
	move	$4,$18
	.loc 1 1504 0
	sh	$2,0($20)
	.loc 1 1505 0
	sw	$3,16($19)
	.loc 1 1508 0
	.set	noreorder
	.set	nomacro
	jal	rtl_set_skb_dst
	sh	$5,2($20)
	.set	macro
	.set	reorder

	.loc 1 1513 0
	.set	noreorder
	.set	nomacro
	beq	$23,$0,$L143
	lw	$6,60($sp)
	.set	macro
	.set	reorder

$LBB1005 = .
$LBB1006 = .
$LBB1007 = .
$LBB1008 = .
	.loc 6 39 0
#APP
 # 39 "/home/extra_home/marklee/rtk_OpenWRT_BB/BB_v1407_branch_v25/v25_relase_source_test_0830/rtk_OpenWRT_v2.5_Branch_20160603/build_dir/target-mips_24kec_uClibc-0.9.33.2/linux-rtkmips_rtl8198c/linux-3.10.49/arch/mips/include/asm/irqflags.h" 1
		.set	push						
	.set	reorder						
	.set	noat						
	di	$3					
	andi	$3, 1					
	sll $0, $0, 3			
	.set	pop						

 # 0 "" 2
#NO_APP
$LBE1008 = .
$LBE1007 = .
$LBB1009 = .
	.file 8 "include/linux/netdevice.h"
	.loc 8 2275 0
	lw	$4,16($28)
	lui	$2,%hi(__per_cpu_offset)
	addiu	$2,$2,%lo(__per_cpu_offset)
	sll	$4,$4,2
	addu	$2,$4,$2
	lw	$4,0($2)
	lw	$2,580($23)
	addu	$2,$2,$4
$LBE1009 = .
	lw	$4,0($2)
	addiu	$4,$4,-1
	sw	$4,0($2)
$LBB1010 = .
$LBB1011 = .
	.loc 6 58 0
#APP
 # 58 "/home/extra_home/marklee/rtk_OpenWRT_BB/BB_v1407_branch_v25/v25_relase_source_test_0830/rtk_OpenWRT_v2.5_Branch_20160603/build_dir/target-mips_24kec_uClibc-0.9.33.2/linux-rtkmips_rtl8198c/linux-3.10.49/arch/mips/include/asm/irqflags.h" 1
		.set	push						
	.set	noreorder					
	.set	noat						
	beqz	$3, 1f					
	di							
	ei							
1:								
	sll $0, $0, 3			
	.set	pop						

 # 0 "" 2
#NO_APP
$LBE1011 = .
$LBE1010 = .
$LBE1006 = .
$LBE1005 = .
	.loc 1 1516 0
	lw	$6,60($sp)
$L143:
	.set	noreorder
	.set	nomacro
	beq	$6,$0,$L144
	lw	$2,%lo(table_path)($22)
	.set	macro
	.set	reorder

$LBB1012 = .
$LBB1013 = .
$LBB1014 = .
$LBB1015 = .
	.loc 6 39 0
#APP
 # 39 "/home/extra_home/marklee/rtk_OpenWRT_BB/BB_v1407_branch_v25/v25_relase_source_test_0830/rtk_OpenWRT_v2.5_Branch_20160603/build_dir/target-mips_24kec_uClibc-0.9.33.2/linux-rtkmips_rtl8198c/linux-3.10.49/arch/mips/include/asm/irqflags.h" 1
		.set	push						
	.set	reorder						
	.set	noat						
	di	$3					
	andi	$3, 1					
	sll $0, $0, 3			
	.set	pop						

 # 0 "" 2
#NO_APP
$LBE1015 = .
$LBE1014 = .
$LBB1016 = .
	.loc 8 2275 0
	lw	$4,16($28)
	lui	$2,%hi(__per_cpu_offset)
	addiu	$2,$2,%lo(__per_cpu_offset)
	sll	$4,$4,2
	addu	$2,$4,$2
	lw	$4,0($2)
	lw	$2,580($6)
	addu	$2,$2,$4
$LBE1016 = .
	lw	$4,0($2)
	addiu	$4,$4,-1
	sw	$4,0($2)
$LBB1017 = .
$LBB1018 = .
	.loc 6 58 0
#APP
 # 58 "/home/extra_home/marklee/rtk_OpenWRT_BB/BB_v1407_branch_v25/v25_relase_source_test_0830/rtk_OpenWRT_v2.5_Branch_20160603/build_dir/target-mips_24kec_uClibc-0.9.33.2/linux-rtkmips_rtl8198c/linux-3.10.49/arch/mips/include/asm/irqflags.h" 1
		.set	push						
	.set	noreorder					
	.set	noat						
	beqz	$3, 1f					
	di							
	ei							
1:								
	sll $0, $0, 3			
	.set	pop						

 # 0 "" 2
#NO_APP
$LBE1018 = .
$LBE1017 = .
$LBE1013 = .
$LBE1012 = .
	.loc 1 1520 0
	lw	$2,%lo(table_path)($22)
$L144:
$LBB1019 = .
$LBB1020 = .
$LBB1021 = .
$LBB1022 = .
$LBB1023 = .
$LBB1024 = .
	.loc 3 136 0
	lhu	$3,2($2)
	addiu	$3,$3,1
	.loc 3 137 0
#APP
 # 137 "/home/extra_home/marklee/rtk_OpenWRT_BB/BB_v1407_branch_v25/v25_relase_source_test_0830/rtk_OpenWRT_v2.5_Branch_20160603/build_dir/target-mips_24kec_uClibc-0.9.33.2/linux-rtkmips_rtl8198c/linux-3.10.49/arch/mips/include/asm/spinlock.h" 1
	.set	push
	.set	noreorder
	.set	mips2
	sync
	.set	pop
 # 0 "" 2
	.loc 3 138 0
#NO_APP
	sh	$3,2($2)
	.loc 3 139 0
#APP
 # 139 "/home/extra_home/marklee/rtk_OpenWRT_BB/BB_v1407_branch_v25/v25_relase_source_test_0830/rtk_OpenWRT_v2.5_Branch_20160603/build_dir/target-mips_24kec_uClibc-0.9.33.2/linux-rtkmips_rtl8198c/linux-3.10.49/arch/mips/include/asm/spinlock.h" 1
	.set	push
	.set	noreorder
	.set	mips2
	sync
	.set	pop
 # 0 "" 2
#NO_APP
$LBE1024 = .
$LBE1023 = .
$LBE1022 = .
	.loc 4 153 0
$LBE1021 = .
$LBE1020 = .
$LBE1019 = .
	.loc 1 1522 0
	lui	$3,%hi(table_napt)
	lw	$2,%lo(table_napt)($3)
$LBB1025 = .
$LBB1026 = .
$LBB1027 = .
$LBB1028 = .
$LBB1029 = .
$LBB1030 = .
	.loc 3 136 0
	lhu	$3,2($2)
	addiu	$3,$3,1
	.loc 3 137 0
#APP
 # 137 "/home/extra_home/marklee/rtk_OpenWRT_BB/BB_v1407_branch_v25/v25_relase_source_test_0830/rtk_OpenWRT_v2.5_Branch_20160603/build_dir/target-mips_24kec_uClibc-0.9.33.2/linux-rtkmips_rtl8198c/linux-3.10.49/arch/mips/include/asm/spinlock.h" 1
	.set	push
	.set	noreorder
	.set	mips2
	sync
	.set	pop
 # 0 "" 2
	.loc 3 138 0
#NO_APP
	sh	$3,2($2)
	.loc 3 139 0
#APP
 # 139 "/home/extra_home/marklee/rtk_OpenWRT_BB/BB_v1407_branch_v25/v25_relase_source_test_0830/rtk_OpenWRT_v2.5_Branch_20160603/build_dir/target-mips_24kec_uClibc-0.9.33.2/linux-rtkmips_rtl8198c/linux-3.10.49/arch/mips/include/asm/spinlock.h" 1
	.set	push
	.set	noreorder
	.set	mips2
	sync
	.set	pop
 # 0 "" 2
#NO_APP
$LBE1030 = .
$LBE1029 = .
$LBE1028 = .
	.loc 4 153 0
$LBE1027 = .
$LBE1026 = .
$LBE1025 = .
$LBB1031 = .
$LBB1032 = .
$LBB1033 = .
$LBB1034 = .
$LBB1035 = .
$LBB1036 = .
	.loc 3 136 0
	lui	$4,%hi(lock_rtl_feature)
	lhu	$3,%lo(lock_rtl_feature+2)($4)
	addiu	$3,$3,1
	.loc 3 137 0
#APP
 # 137 "/home/extra_home/marklee/rtk_OpenWRT_BB/BB_v1407_branch_v25/v25_relase_source_test_0830/rtk_OpenWRT_v2.5_Branch_20160603/build_dir/target-mips_24kec_uClibc-0.9.33.2/linux-rtkmips_rtl8198c/linux-3.10.49/arch/mips/include/asm/spinlock.h" 1
	.set	push
	.set	noreorder
	.set	mips2
	sync
	.set	pop
 # 0 "" 2
	.loc 3 138 0
#NO_APP
	lui	$2,%hi(lock_rtl_feature)
	sh	$3,%lo(lock_rtl_feature+2)($2)
	.loc 3 139 0
#APP
 # 139 "/home/extra_home/marklee/rtk_OpenWRT_BB/BB_v1407_branch_v25/v25_relase_source_test_0830/rtk_OpenWRT_v2.5_Branch_20160603/build_dir/target-mips_24kec_uClibc-0.9.33.2/linux-rtkmips_rtl8198c/linux-3.10.49/arch/mips/include/asm/spinlock.h" 1
	.set	push
	.set	noreorder
	.set	mips2
	sync
	.set	pop
 # 0 "" 2
#NO_APP
$LBE1036 = .
$LBE1035 = .
$LBE1034 = .
	.loc 4 153 0
$LBE1033 = .
$LBE1032 = .
$LBE1031 = .
$LBB1037 = .
$LBB1038 = .
	.loc 6 186 0
	lw	$5,56($sp)
	andi	$2,$5,0x1
$LBE1038 = .
$LBE1037 = .
	.loc 1 1526 0
	.set	noreorder
	.set	nomacro
	bne	$2,$0,$L120
	lw	$2,56($sp)
	.set	macro
	.set	reorder

$LBB1039 = .
$LBB1040 = .
	.loc 6 58 0 discriminator 1
	move	$2,$5
#APP
 # 58 "/home/extra_home/marklee/rtk_OpenWRT_BB/BB_v1407_branch_v25/v25_relase_source_test_0830/rtk_OpenWRT_v2.5_Branch_20160603/build_dir/target-mips_24kec_uClibc-0.9.33.2/linux-rtkmips_rtl8198c/linux-3.10.49/arch/mips/include/asm/irqflags.h" 1
		.set	push						
	.set	noreorder					
	.set	noat						
	beqz	$2, 1f					
	di							
	ei							
1:								
	sll $0, $0, 3			
	.set	pop						

 # 0 "" 2
#NO_APP
$LBE1040 = .
$LBE1039 = .
	.loc 1 1536 0 discriminator 1
	.set	noreorder
	.set	nomacro
	j	$L140
	lw	$4,144($sp)
	.set	macro
	.set	reorder

$L120:
$LBB1041 = .
$LBB1042 = .
	.loc 6 58 0 discriminator 2
#APP
 # 58 "/home/extra_home/marklee/rtk_OpenWRT_BB/BB_v1407_branch_v25/v25_relase_source_test_0830/rtk_OpenWRT_v2.5_Branch_20160603/build_dir/target-mips_24kec_uClibc-0.9.33.2/linux-rtkmips_rtl8198c/linux-3.10.49/arch/mips/include/asm/irqflags.h" 1
		.set	push						
	.set	noreorder					
	.set	noat						
	beqz	$2, 1f					
	di							
	ei							
1:								
	sll $0, $0, 3			
	.set	pop						

 # 0 "" 2
#NO_APP
$LBE1042 = .
$LBE1041 = .
	.loc 1 1536 0 discriminator 2
	.set	noreorder
	.set	nomacro
	j	$L121
	lw	$4,144($sp)
	.set	macro
	.set	reorder

$L74:
$LBB1043 = .
$LBB1044 = .
$LBB1045 = .
$LBB1046 = .
$LBB1047 = .
$LBB1048 = .
	.loc 3 136 0
	lhu	$2,2($5)
	addiu	$2,$2,1
	.loc 3 137 0
#APP
 # 137 "/home/extra_home/marklee/rtk_OpenWRT_BB/BB_v1407_branch_v25/v25_relase_source_test_0830/rtk_OpenWRT_v2.5_Branch_20160603/build_dir/target-mips_24kec_uClibc-0.9.33.2/linux-rtkmips_rtl8198c/linux-3.10.49/arch/mips/include/asm/spinlock.h" 1
	.set	push
	.set	noreorder
	.set	mips2
	sync
	.set	pop
 # 0 "" 2
	.loc 3 138 0
#NO_APP
	sh	$2,2($5)
	.loc 3 139 0
#APP
 # 139 "/home/extra_home/marklee/rtk_OpenWRT_BB/BB_v1407_branch_v25/v25_relase_source_test_0830/rtk_OpenWRT_v2.5_Branch_20160603/build_dir/target-mips_24kec_uClibc-0.9.33.2/linux-rtkmips_rtl8198c/linux-3.10.49/arch/mips/include/asm/spinlock.h" 1
	.set	push
	.set	noreorder
	.set	mips2
	sync
	.set	pop
 # 0 "" 2
#NO_APP
$LBE1048 = .
$LBE1047 = .
$LBE1046 = .
	.loc 4 153 0
$LBE1045 = .
$LBE1044 = .
$LBE1043 = .
$LBB1049 = .
$LBB1050 = .
	.loc 6 186 0
	lw	$6,56($sp)
	andi	$2,$6,0x1
$LBE1050 = .
$LBE1049 = .
	.loc 1 1532 0
	bne	$2,$0,$L122
$LBB1051 = .
$LBB1052 = .
	.loc 6 58 0 discriminator 1
	move	$2,$6
#APP
 # 58 "/home/extra_home/marklee/rtk_OpenWRT_BB/BB_v1407_branch_v25/v25_relase_source_test_0830/rtk_OpenWRT_v2.5_Branch_20160603/build_dir/target-mips_24kec_uClibc-0.9.33.2/linux-rtkmips_rtl8198c/linux-3.10.49/arch/mips/include/asm/irqflags.h" 1
		.set	push						
	.set	noreorder					
	.set	noat						
	beqz	$2, 1f					
	di							
	ei							
1:								
	sll $0, $0, 3			
	.set	pop						

 # 0 "" 2
#NO_APP
$L137:
$LBE1052 = .
$LBE1051 = .
	.loc 1 1533 0 discriminator 1
	.set	noreorder
	.set	nomacro
	j	$L67
	li	$2,-1			# 0xffffffffffffffff
	.set	macro
	.set	reorder

$L122:
$LBB1053 = .
$LBB1054 = .
	.loc 6 58 0 discriminator 2
	lw	$2,56($sp)
#APP
 # 58 "/home/extra_home/marklee/rtk_OpenWRT_BB/BB_v1407_branch_v25/v25_relase_source_test_0830/rtk_OpenWRT_v2.5_Branch_20160603/build_dir/target-mips_24kec_uClibc-0.9.33.2/linux-rtkmips_rtl8198c/linux-3.10.49/arch/mips/include/asm/irqflags.h" 1
		.set	push						
	.set	noreorder					
	.set	noat						
	beqz	$2, 1f					
	di							
	ei							
1:								
	sll $0, $0, 3			
	.set	pop						

 # 0 "" 2
#NO_APP
$LBE1054 = .
$LBE1053 = .
	.loc 1 1533 0 discriminator 2
	.set	noreorder
	.set	nomacro
	j	$L67
	li	$2,-1			# 0xffffffffffffffff
	.set	macro
	.set	reorder

$L121:
$L140:
	.loc 1 1536 0
	move	$5,$21
	.set	noreorder
	.set	nomacro
	jal	rtl_conntrack_drop_check_hook
	move	$6,$4
	.set	macro
	.set	reorder

	.loc 1 1538 0
	move	$2,$0
$L67:
	.loc 1 1539 0
	lw	$31,132($sp)
	lw	$fp,128($sp)
	lw	$23,124($sp)
	lw	$22,120($sp)
	lw	$21,116($sp)
	lw	$20,112($sp)
	lw	$19,108($sp)
	lw	$18,104($sp)
	lw	$17,100($sp)
	lw	$16,96($sp)
	.set	noreorder
	.set	nomacro
	j	$31
	addiu	$sp,$sp,136
	.set	macro
	.set	reorder

	.cfi_def_cfa_offset 0
	.cfi_restore 16
	.cfi_restore 17
	.cfi_restore 18
	.cfi_restore 19
	.cfi_restore 20
	.cfi_restore 21
	.cfi_restore 22
	.cfi_restore 23
	.cfi_restore 30
	.cfi_restore 31
	.end	rtk_addNaptConnection
	.cfi_endproc
$LFE3272:
	.size	rtk_addNaptConnection, .-rtk_addNaptConnection
	.align	2
	.globl	rtk_delNaptConnection
$LFB3273 = .
	.loc 1 1543 0
	.cfi_startproc
	.set	nomips16
	.ent	rtk_delNaptConnection
	.type	rtk_delNaptConnection, @function
rtk_delNaptConnection:
	.frame	$sp,40,$31		# vars= 0, regs= 6/0, args= 16, gp= 0
	.mask	0x801f0000,-4
	.fmask	0x00000000,0
	addiu	$sp,$sp,-40
	.cfi_def_cfa_offset 40
	sw	$18,24($sp)
	sw	$16,16($sp)
	sw	$31,36($sp)
	sw	$20,32($sp)
	sw	$19,28($sp)
	sw	$17,20($sp)
	.cfi_offset 18, -16
	.cfi_offset 16, -24
	.cfi_offset 31, -4
	.cfi_offset 20, -8
	.cfi_offset 19, -12
	.cfi_offset 17, -20
	.loc 1 1557 0
	lw	$3,0($4)
	.loc 1 1558 0
	li	$2,17			# 0x11
	li	$18,6			# 0x6
	xori	$3,$3,0x2
	.loc 1 1543 0
	move	$16,$4
	.loc 1 1558 0
	movn	$18,$2,$3
$LBB1055 = .
$LBB1056 = .
	.loc 6 39 0
#APP
 # 39 "/home/extra_home/marklee/rtk_OpenWRT_BB/BB_v1407_branch_v25/v25_relase_source_test_0830/rtk_OpenWRT_v2.5_Branch_20160603/build_dir/target-mips_24kec_uClibc-0.9.33.2/linux-rtkmips_rtl8198c/linux-3.10.49/arch/mips/include/asm/irqflags.h" 1
		.set	push						
	.set	reorder						
	.set	noat						
	di	$17					
	andi	$17, 1					
	sll $0, $0, 3			
	.set	pop						

 # 0 "" 2
#NO_APP
$LBE1056 = .
$LBE1055 = .
	.loc 1 1569 0
	lw	$4,20($4)
	.set	noreorder
	.set	nomacro
	jal	filter_delconnect
	lui	$19,%hi(table_napt)
	.set	macro
	.set	reorder

$LBB1057 = .
$LBB1058 = .
	.loc 2 293 0
	.set	noreorder
	.set	nomacro
	jal	_raw_spin_lock
	lw	$4,%lo(table_napt)($19)
	.set	macro
	.set	reorder

$LBE1058 = .
$LBE1057 = .
	.loc 1 1574 0
	lw	$6,4($16)
	lw	$7,8($16)
	lw	$8,20($16)
	lw	$10,24($16)
	lw	$5,0($16)
$LBB1059 = .
$LBB1060 = .
	.loc 1 706 0
	xor	$4,$7,$6
	.loc 1 705 0
	xor	$4,$4,$8
	andi	$2,$5,0xffff
	.loc 1 706 0
	xor	$4,$4,$10
	.loc 1 707 0
	xor	$4,$4,$2
	.loc 1 706 0
	srl	$2,$8,16
	.loc 1 708 0
	xor	$4,$4,$2
	.loc 1 710 0
	lui	$2,%hi(napt_table_list_max)
	.loc 1 705 0
	srl	$3,$6,16
	.loc 1 710 0
	lw	$2,%lo(napt_table_list_max)($2)
	.loc 1 709 0
	xor	$3,$4,$3
$LBE1060 = .
$LBE1059 = .
	.loc 1 1576 0
	lw	$4,%lo(table_napt)($19)
$LBB1062 = .
$LBB1061 = .
	.loc 1 710 0
	srl	$9,$3,12
	xor	$3,$9,$3
	addiu	$2,$2,-1
	and	$2,$3,$2
$LBE1061 = .
$LBE1062 = .
	.loc 1 1576 0
	lw	$3,4($4)
	sll	$9,$2,2
	sll	$2,$2,4
	subu	$9,$2,$9
	addu	$2,$3,$9
	.set	noreorder
	.set	nomacro
	j	$L147
	lw	$2,0($2)
	.set	macro
	.set	reorder

$L171:
	.loc 1 1577 0
	lw	$3,4($2)
	bne	$5,$3,$L148
	.loc 1 1577 0 is_stmt 0 discriminator 1
	lw	$3,8($2)
	bne	$6,$3,$L148
	.loc 1 1578 0 is_stmt 1
	lw	$3,12($2)
	bne	$7,$3,$L148
	.loc 1 1579 0
	lw	$11,16($2)
	lw	$3,12($16)
	bne	$11,$3,$L148
	.loc 1 1580 0
	lw	$11,20($2)
	lw	$3,16($16)
	bne	$11,$3,$L148
	.loc 1 1581 0
	lw	$3,24($2)
	bne	$8,$3,$L148
	.loc 1 1582 0
	lw	$3,28($2)
	bne	$10,$3,$L148
	.loc 1 1585 0
	lw	$3,36($2)
	.set	noreorder
	.set	nomacro
	beq	$3,$0,$L149
	sb	$0,0($2)
	.set	macro
	.set	reorder

	.loc 1 1585 0 is_stmt 0 discriminator 1
	lw	$5,40($2)
	.set	noreorder
	.set	nomacro
	j	$L150
	sw	$5,40($3)
	.set	macro
	.set	reorder

$L149:
	.loc 1 1585 0 discriminator 2
	lw	$3,4($4)
	lw	$5,40($2)
	addu	$3,$3,$9
	sw	$5,4($3)
$L150:
	.loc 1 1585 0 discriminator 1
	lw	$3,40($2)
	lw	$5,36($2)
	sw	$5,0($3)
	lw	$3,4($4)
	lui	$4,%hi(napt_list_inuse)
	addiu	$4,$4,%lo(napt_list_inuse)
	addu	$9,$3,$9
	lw	$3,8($9)
	addiu	$3,$3,-1
	sw	$3,8($9)
	.loc 1 1586 0 is_stmt 1 discriminator 1
	lw	$3,44($2)
	.set	noreorder
	.set	nomacro
	beq	$3,$0,$L151
	lw	$5,48($2)
	.set	macro
	.set	reorder

	sw	$5,48($3)
	lw	$5,48($2)
	.set	noreorder
	.set	nomacro
	j	$L152
	lw	$3,44($2)
	.set	macro
	.set	reorder

$L151:
	.loc 1 1586 0 is_stmt 0 discriminator 2
	sw	$5,4($4)
$L152:
	.loc 1 1586 0 discriminator 1
	sw	$3,0($5)
	.loc 1 1587 0 is_stmt 1 discriminator 1
	lui	$3,%hi(napt_list_free)
	addiu	$3,$3,%lo(napt_list_free)
	.loc 1 1586 0 discriminator 1
	lw	$6,8($4)
	.loc 1 1587 0 discriminator 1
	lw	$5,4($3)
	sw	$0,44($2)
	.loc 1 1586 0 discriminator 1
	addiu	$6,$6,-1
	.loc 1 1587 0 discriminator 1
	sw	$5,48($2)
	.loc 1 1586 0 discriminator 1
	sw	$6,8($4)
	.loc 1 1587 0 discriminator 1
	sw	$2,0($5)
	lw	$5,8($3)
	.loc 1 1593 0 discriminator 1
	lui	$20,%hi(table_path)
$LBB1063 = .
$LBB1064 = .
	.loc 2 293 0 discriminator 1
	lw	$4,%lo(table_path)($20)
$LBE1064 = .
$LBE1063 = .
	.loc 1 1587 0 discriminator 1
	addiu	$2,$2,44
	addiu	$5,$5,1
	sw	$2,4($3)
$LBB1066 = .
$LBB1065 = .
	.loc 2 293 0 discriminator 1
	.set	noreorder
	.set	nomacro
	jal	_raw_spin_lock
	sw	$5,8($3)
	.set	macro
	.set	reorder

$LBE1065 = .
$LBE1066 = .
	.loc 1 1596 0 discriminator 1
	lw	$10,4($16)
	lw	$3,20($16)
	lw	$5,24($16)
	lw	$12,8($16)
$LBB1067 = .
$LBB1068 = .
	.loc 1 727 0 discriminator 1
	xor	$4,$3,$10
	srl	$2,$10,8
	.loc 1 728 0 discriminator 1
	xor	$4,$4,$5
	xor	$4,$4,$2
	srl	$2,$3,16
	.loc 1 729 0 discriminator 1
	xor	$4,$4,$2
	srl	$2,$12,4
	.loc 1 730 0 discriminator 1
	xor	$2,$4,$2
	.loc 1 732 0 discriminator 1
	lui	$4,%hi(path_table_list_max)
	lw	$11,%lo(path_table_list_max)($4)
	.loc 1 731 0 discriminator 1
	xor	$2,$2,$18
$LBE1068 = .
$LBE1067 = .
	.loc 1 1601 0 discriminator 1
	lw	$4,%lo(table_path)($20)
$LBB1070 = .
$LBB1069 = .
	.loc 1 732 0 discriminator 1
	srl	$6,$2,12
	xor	$2,$6,$2
	addiu	$11,$11,-1
	and	$2,$2,$11
$LBE1069 = .
$LBE1070 = .
	.loc 1 1601 0 discriminator 1
	lw	$9,4($4)
	sll	$6,$2,2
	sll	$2,$2,4
	subu	$8,$2,$6
	addu	$2,$9,$8
	lw	$2,0($2)
	lw	$6,12($16)
	lw	$7,16($16)
	.set	noreorder
	.set	nomacro
	j	$L153
	li	$13,1			# 0x1
	.set	macro
	.set	reorder

$L160:
	.loc 1 1605 0
	lw	$15,4($2)
	lw	$14,0($16)
	bne	$15,$14,$L154
	.loc 1 1605 0 is_stmt 0 discriminator 1
	lbu	$14,2($2)
	bne	$14,$13,$L154
	.loc 1 1606 0 is_stmt 1
	lw	$14,16($2)
	bne	$10,$14,$L154
	.loc 1 1607 0
	lw	$14,12($2)
	bne	$12,$14,$L154
	.loc 1 1608 0
	lw	$14,24($2)
	bne	$14,$6,$L154
	.loc 1 1609 0
	lw	$14,28($2)
	bne	$14,$7,$L154
	.loc 1 1610 0
	lw	$14,20($2)
	bne	$3,$14,$L154
	.loc 1 1611 0
	lw	$14,8($2)
	bne	$5,$14,$L154
	.loc 1 1622 0
	lw	$3,64($2)
	.set	noreorder
	.set	nomacro
	beq	$3,$0,$L155
	sb	$0,0($2)
	.set	macro
	.set	reorder

	.loc 1 1622 0 is_stmt 0 discriminator 1
	lw	$4,68($2)
	.set	noreorder
	.set	nomacro
	j	$L156
	sw	$4,68($3)
	.set	macro
	.set	reorder

$L155:
	.loc 1 1622 0 discriminator 2
	lw	$3,%lo(table_path)($20)
	lw	$4,68($2)
	lw	$3,4($3)
	addu	$3,$3,$8
	sw	$4,4($3)
$L156:
	.loc 1 1622 0 discriminator 1
	lw	$3,68($2)
	lw	$4,64($2)
	sw	$4,0($3)
	lw	$3,%lo(table_path)($20)
	lw	$3,4($3)
	addu	$8,$3,$8
	lw	$3,8($8)
	addiu	$3,$3,-1
	sw	$3,8($8)
	.loc 1 1623 0 is_stmt 1 discriminator 1
	lw	$4,72($2)
	lui	$3,%hi(path_list_inuse)
	lw	$5,76($2)
	.set	noreorder
	.set	nomacro
	beq	$4,$0,$L157
	addiu	$3,$3,%lo(path_list_inuse)
	.set	macro
	.set	reorder

	sw	$5,76($4)
	lw	$5,76($2)
	.set	noreorder
	.set	nomacro
	j	$L158
	lw	$4,72($2)
	.set	macro
	.set	reorder

$L157:
	.loc 1 1623 0 is_stmt 0 discriminator 2
	sw	$5,4($3)
$L158:
	.loc 1 1623 0 discriminator 1
	sw	$4,0($5)
	.loc 1 1624 0 is_stmt 1 discriminator 1
	lui	$5,%hi(path_list_free)
	addiu	$5,$5,%lo(path_list_free)
	.loc 1 1623 0 discriminator 1
	lw	$6,8($3)
	.loc 1 1624 0 discriminator 1
	lw	$4,4($5)
	sw	$0,72($2)
	.loc 1 1623 0 discriminator 1
	addiu	$6,$6,-1
	.loc 1 1624 0 discriminator 1
	sw	$4,76($2)
	.loc 1 1623 0 discriminator 1
	sw	$6,8($3)
	.loc 1 1624 0 discriminator 1
	sw	$2,0($4)
	lw	$3,8($5)
	lw	$4,%lo(table_path)($20)
	addiu	$2,$2,72
	addiu	$3,$3,1
	sw	$3,8($5)
	sw	$2,4($5)
	lw	$3,20($16)
	lw	$5,24($16)
	lw	$9,4($4)
	lw	$6,12($16)
	.loc 1 1625 0 discriminator 1
	.set	noreorder
	.set	nomacro
	j	$L159
	lw	$7,16($16)
	.set	macro
	.set	reorder

$L154:
	.loc 1 1601 0
	lw	$2,64($2)
$L153:
	.loc 1 1601 0 is_stmt 0 discriminator 1
	bne	$2,$0,$L160
$L159:
$LBB1071 = .
$LBB1072 = .
	.loc 1 727 0 is_stmt 1
	xor	$8,$3,$6
	.loc 1 728 0
	xor	$8,$8,$18
	.loc 1 727 0
	srl	$2,$3,8
	.loc 1 728 0
	xor	$8,$8,$7
	.loc 1 729 0
	xor	$8,$8,$2
	.loc 1 728 0
	srl	$2,$6,16
	.loc 1 730 0
	xor	$8,$8,$2
	.loc 1 729 0
	srl	$2,$5,4
	.loc 1 731 0
	xor	$2,$8,$2
	.loc 1 732 0
	srl	$8,$2,12
	xor	$2,$8,$2
	and	$2,$2,$11
$LBE1072 = .
$LBE1071 = .
	.loc 1 1636 0
	sll	$8,$2,2
	sll	$2,$2,4
	subu	$8,$2,$8
	addu	$9,$9,$8
	lw	$2,0($9)
	.set	noreorder
	.set	nomacro
	j	$L161
	li	$9,2			# 0x2
	.set	macro
	.set	reorder

$L168:
	.loc 1 1640 0
	lw	$11,4($2)
	lw	$10,0($16)
	bne	$11,$10,$L162
	.loc 1 1640 0 is_stmt 0 discriminator 1
	lbu	$10,2($2)
	bne	$10,$9,$L162
	.loc 1 1641 0 is_stmt 1
	lw	$10,20($2)
	bne	$10,$6,$L162
	.loc 1 1642 0
	lw	$10,8($2)
	bne	$10,$7,$L162
	.loc 1 1643 0
	lw	$10,24($2)
	bne	$10,$3,$L162
	.loc 1 1644 0
	lw	$10,28($2)
	bne	$10,$5,$L162
	.loc 1 1645 0
	lw	$11,32($2)
	lw	$10,4($16)
	bne	$11,$10,$L162
	.loc 1 1646 0
	lw	$11,36($2)
	lw	$10,8($16)
	bne	$11,$10,$L162
	.loc 1 1656 0
	lw	$3,64($2)
	.set	noreorder
	.set	nomacro
	beq	$3,$0,$L163
	sb	$0,0($2)
	.set	macro
	.set	reorder

	.loc 1 1656 0 is_stmt 0 discriminator 1
	lw	$4,68($2)
	.set	noreorder
	.set	nomacro
	j	$L164
	sw	$4,68($3)
	.set	macro
	.set	reorder

$L163:
	.loc 1 1656 0 discriminator 2
	lw	$3,%lo(table_path)($20)
	lw	$4,68($2)
	lw	$3,4($3)
	addu	$3,$3,$8
	sw	$4,4($3)
$L164:
	.loc 1 1656 0 discriminator 1
	lw	$3,68($2)
	lw	$4,64($2)
	sw	$4,0($3)
	lw	$3,%lo(table_path)($20)
	lw	$3,4($3)
	addu	$8,$3,$8
	lw	$3,8($8)
	addiu	$3,$3,-1
	sw	$3,8($8)
	.loc 1 1657 0 is_stmt 1 discriminator 1
	lw	$4,72($2)
	lui	$3,%hi(path_list_inuse)
	lw	$5,76($2)
	.set	noreorder
	.set	nomacro
	beq	$4,$0,$L165
	addiu	$3,$3,%lo(path_list_inuse)
	.set	macro
	.set	reorder

	sw	$5,76($4)
	lw	$5,76($2)
	.set	noreorder
	.set	nomacro
	j	$L166
	lw	$4,72($2)
	.set	macro
	.set	reorder

$L165:
	.loc 1 1657 0 is_stmt 0 discriminator 2
	sw	$5,4($3)
$L166:
	.loc 1 1657 0 discriminator 1
	sw	$4,0($5)
	.loc 1 1658 0 is_stmt 1 discriminator 1
	lui	$4,%hi(path_list_free)
	addiu	$4,$4,%lo(path_list_free)
	.loc 1 1657 0 discriminator 1
	lw	$6,8($3)
	.loc 1 1658 0 discriminator 1
	lw	$5,4($4)
	sw	$0,72($2)
	.loc 1 1657 0 discriminator 1
	addiu	$6,$6,-1
	.loc 1 1658 0 discriminator 1
	sw	$5,76($2)
	.loc 1 1657 0 discriminator 1
	sw	$6,8($3)
	.loc 1 1658 0 discriminator 1
	sw	$2,0($5)
	lw	$3,8($4)
	addiu	$2,$2,72
	sw	$2,4($4)
	addiu	$2,$3,1
	sw	$2,8($4)
	.loc 1 1659 0 discriminator 1
	.set	noreorder
	.set	nomacro
	j	$L167
	lw	$4,%lo(table_path)($20)
	.set	macro
	.set	reorder

$L162:
	.loc 1 1636 0
	lw	$2,64($2)
$L161:
	.loc 1 1636 0 is_stmt 0 discriminator 1
	bne	$2,$0,$L168
$L167:
$LBB1073 = .
$LBB1074 = .
$LBB1075 = .
$LBB1076 = .
$LBB1077 = .
$LBB1078 = .
	.loc 3 136 0 is_stmt 1
	lhu	$2,2($4)
	addiu	$2,$2,1
	.loc 3 137 0
#APP
 # 137 "/home/extra_home/marklee/rtk_OpenWRT_BB/BB_v1407_branch_v25/v25_relase_source_test_0830/rtk_OpenWRT_v2.5_Branch_20160603/build_dir/target-mips_24kec_uClibc-0.9.33.2/linux-rtkmips_rtl8198c/linux-3.10.49/arch/mips/include/asm/spinlock.h" 1
	.set	push
	.set	noreorder
	.set	mips2
	sync
	.set	pop
 # 0 "" 2
	.loc 3 138 0
#NO_APP
	sh	$2,2($4)
	.loc 3 139 0
#APP
 # 139 "/home/extra_home/marklee/rtk_OpenWRT_BB/BB_v1407_branch_v25/v25_relase_source_test_0830/rtk_OpenWRT_v2.5_Branch_20160603/build_dir/target-mips_24kec_uClibc-0.9.33.2/linux-rtkmips_rtl8198c/linux-3.10.49/arch/mips/include/asm/spinlock.h" 1
	.set	push
	.set	noreorder
	.set	mips2
	sync
	.set	pop
 # 0 "" 2
#NO_APP
$LBE1078 = .
$LBE1077 = .
$LBE1076 = .
	.loc 4 153 0
$LBE1075 = .
$LBE1074 = .
$LBE1073 = .
	.loc 1 1665 0
	lw	$2,%lo(table_napt)($19)
$LBB1079 = .
$LBB1080 = .
$LBB1081 = .
$LBB1082 = .
$LBB1083 = .
$LBB1084 = .
	.loc 3 136 0
	lhu	$3,2($2)
	addiu	$3,$3,1
	.loc 3 137 0
#APP
 # 137 "/home/extra_home/marklee/rtk_OpenWRT_BB/BB_v1407_branch_v25/v25_relase_source_test_0830/rtk_OpenWRT_v2.5_Branch_20160603/build_dir/target-mips_24kec_uClibc-0.9.33.2/linux-rtkmips_rtl8198c/linux-3.10.49/arch/mips/include/asm/spinlock.h" 1
	.set	push
	.set	noreorder
	.set	mips2
	sync
	.set	pop
 # 0 "" 2
	.loc 3 138 0
#NO_APP
	sh	$3,2($2)
	.loc 3 139 0
#APP
 # 139 "/home/extra_home/marklee/rtk_OpenWRT_BB/BB_v1407_branch_v25/v25_relase_source_test_0830/rtk_OpenWRT_v2.5_Branch_20160603/build_dir/target-mips_24kec_uClibc-0.9.33.2/linux-rtkmips_rtl8198c/linux-3.10.49/arch/mips/include/asm/spinlock.h" 1
	.set	push
	.set	noreorder
	.set	mips2
	sync
	.set	pop
 # 0 "" 2
#NO_APP
$LBE1084 = .
$LBE1083 = .
$LBE1082 = .
	.loc 4 153 0
$LBE1081 = .
$LBE1080 = .
$LBE1079 = .
$LBB1085 = .
$LBB1086 = .
	.loc 6 186 0
	andi	$2,$17,0x1
$LBE1086 = .
$LBE1085 = .
	.loc 1 1668 0
	bne	$2,$0,$L169
$LBB1087 = .
$LBB1088 = .
	.loc 6 58 0 discriminator 1
#APP
 # 58 "/home/extra_home/marklee/rtk_OpenWRT_BB/BB_v1407_branch_v25/v25_relase_source_test_0830/rtk_OpenWRT_v2.5_Branch_20160603/build_dir/target-mips_24kec_uClibc-0.9.33.2/linux-rtkmips_rtl8198c/linux-3.10.49/arch/mips/include/asm/irqflags.h" 1
		.set	push						
	.set	noreorder					
	.set	noat						
	beqz	$17, 1f					
	di							
	ei							
1:								
	sll $0, $0, 3			
	.set	pop						

 # 0 "" 2
#NO_APP
$LBE1088 = .
$LBE1087 = .
	.loc 1 1677 0 discriminator 1
	.set	noreorder
	.set	nomacro
	j	$L175
	lw	$31,36($sp)
	.set	macro
	.set	reorder

$L169:
$LBB1089 = .
$LBB1090 = .
	.loc 6 58 0 discriminator 2
#APP
 # 58 "/home/extra_home/marklee/rtk_OpenWRT_BB/BB_v1407_branch_v25/v25_relase_source_test_0830/rtk_OpenWRT_v2.5_Branch_20160603/build_dir/target-mips_24kec_uClibc-0.9.33.2/linux-rtkmips_rtl8198c/linux-3.10.49/arch/mips/include/asm/irqflags.h" 1
		.set	push						
	.set	noreorder					
	.set	noat						
	beqz	$17, 1f					
	di							
	ei							
1:								
	sll $0, $0, 3			
	.set	pop						

 # 0 "" 2
#NO_APP
$LBE1090 = .
$LBE1089 = .
	.loc 1 1669 0 discriminator 2
	.set	noreorder
	.set	nomacro
	j	$L170
	move	$2,$0
	.set	macro
	.set	reorder

$L148:
	.loc 1 1576 0
	lw	$2,36($2)
$L147:
	.loc 1 1576 0 is_stmt 0 discriminator 1
	bne	$2,$0,$L171
$LBB1091 = .
$LBB1092 = .
$LBB1093 = .
$LBB1094 = .
$LBB1095 = .
$LBB1096 = .
	.loc 3 136 0 is_stmt 1
	lhu	$2,2($4)
	addiu	$2,$2,1
	.loc 3 137 0
#APP
 # 137 "/home/extra_home/marklee/rtk_OpenWRT_BB/BB_v1407_branch_v25/v25_relase_source_test_0830/rtk_OpenWRT_v2.5_Branch_20160603/build_dir/target-mips_24kec_uClibc-0.9.33.2/linux-rtkmips_rtl8198c/linux-3.10.49/arch/mips/include/asm/spinlock.h" 1
	.set	push
	.set	noreorder
	.set	mips2
	sync
	.set	pop
 # 0 "" 2
	.loc 3 138 0
#NO_APP
	sh	$2,2($4)
	.loc 3 139 0
#APP
 # 139 "/home/extra_home/marklee/rtk_OpenWRT_BB/BB_v1407_branch_v25/v25_relase_source_test_0830/rtk_OpenWRT_v2.5_Branch_20160603/build_dir/target-mips_24kec_uClibc-0.9.33.2/linux-rtkmips_rtl8198c/linux-3.10.49/arch/mips/include/asm/spinlock.h" 1
	.set	push
	.set	noreorder
	.set	mips2
	sync
	.set	pop
 # 0 "" 2
#NO_APP
$LBE1096 = .
$LBE1095 = .
$LBE1094 = .
	.loc 4 153 0
$LBE1093 = .
$LBE1092 = .
$LBE1091 = .
$LBB1097 = .
$LBB1098 = .
	.loc 6 58 0
#APP
 # 58 "/home/extra_home/marklee/rtk_OpenWRT_BB/BB_v1407_branch_v25/v25_relase_source_test_0830/rtk_OpenWRT_v2.5_Branch_20160603/build_dir/target-mips_24kec_uClibc-0.9.33.2/linux-rtkmips_rtl8198c/linux-3.10.49/arch/mips/include/asm/irqflags.h" 1
		.set	push						
	.set	noreorder					
	.set	noat						
	beqz	$17, 1f					
	di							
	ei							
1:								
	sll $0, $0, 3			
	.set	pop						

 # 0 "" 2
#NO_APP
$LBE1098 = .
$LBE1097 = .
	.loc 1 1676 0
	li	$2,-4			# 0xfffffffffffffffc
$L170:
	.loc 1 1677 0
	lw	$31,36($sp)
$L175:
	lw	$20,32($sp)
	lw	$19,28($sp)
	lw	$18,24($sp)
	lw	$17,20($sp)
	lw	$16,16($sp)
	.set	noreorder
	.set	nomacro
	j	$31
	addiu	$sp,$sp,40
	.set	macro
	.set	reorder

	.cfi_def_cfa_offset 0
	.cfi_restore 16
	.cfi_restore 17
	.cfi_restore 18
	.cfi_restore 19
	.cfi_restore 20
	.cfi_restore 31
	.end	rtk_delNaptConnection
	.cfi_endproc
$LFE3273:
	.size	rtk_delNaptConnection, .-rtk_delNaptConnection
	.align	2
	.globl	rtk_idleNaptConnection
$LFB3274 = .
	.loc 1 1768 0
	.cfi_startproc
	.set	nomips16
	.ent	rtk_idleNaptConnection
	.type	rtk_idleNaptConnection, @function
rtk_idleNaptConnection:
	.frame	$sp,32,$31		# vars= 0, regs= 4/0, args= 16, gp= 0
	.mask	0x80070000,-4
	.fmask	0x00000000,0
	addiu	$sp,$sp,-32
	.cfi_def_cfa_offset 32
	sw	$16,16($sp)
	.cfi_offset 16, -16
	.loc 1 1774 0
	lui	$16,%hi(table_path)
	.loc 1 1768 0
	sw	$18,24($sp)
	.cfi_offset 18, -8
	move	$18,$4
$LBB1099 = .
$LBB1100 = .
	.loc 2 293 0
	lw	$4,%lo(table_path)($16)
$LBE1100 = .
$LBE1099 = .
	.loc 1 1768 0
	sw	$17,20($sp)
	sw	$31,28($sp)
	.cfi_offset 17, -12
	.cfi_offset 31, -4
$LBB1102 = .
$LBB1101 = .
	.loc 2 293 0
	.set	noreorder
	.set	nomacro
	jal	_raw_spin_lock
	move	$17,$5
	.set	macro
	.set	reorder

$LBE1101 = .
$LBE1102 = .
	.loc 1 1792 0
	lw	$10,4($18)
	lw	$7,20($18)
	lw	$13,8($18)
	lw	$12,24($18)
$LBB1103 = .
$LBB1104 = .
	.loc 1 728 0
	xor	$4,$7,$10
	.loc 1 729 0
	srl	$2,$13,4
$LBE1104 = .
$LBE1103 = .
	.loc 1 1781 0
	lw	$3,0($18)
$LBB1110 = .
$LBB1105 = .
	.loc 1 727 0
	xor	$4,$4,$12
	.loc 1 728 0
	xor	$4,$4,$2
	srl	$2,$7,16
	.loc 1 729 0
	xor	$4,$4,$2
	.loc 1 727 0
	srl	$2,$10,8
$LBE1105 = .
$LBE1110 = .
	.loc 1 1781 0
	xori	$6,$3,0x2
	li	$5,17			# 0x11
$LBB1111 = .
$LBB1106 = .
	.loc 1 730 0
	xor	$4,$4,$2
$LBE1106 = .
$LBE1111 = .
	.loc 1 1781 0
	li	$8,6			# 0x6
$LBB1112 = .
$LBB1107 = .
	.loc 1 732 0
	lui	$2,%hi(path_table_list_max)
$LBE1107 = .
$LBE1112 = .
	.loc 1 1781 0
	movn	$8,$5,$6
$LBB1113 = .
$LBB1108 = .
	.loc 1 732 0
	lw	$25,%lo(path_table_list_max)($2)
	.loc 1 731 0
	xor	$4,$4,$8
$LBE1108 = .
$LBE1113 = .
	.loc 1 1798 0
	lw	$11,%lo(table_path)($16)
$LBB1114 = .
$LBB1109 = .
	.loc 1 732 0
	srl	$2,$4,12
	xor	$2,$2,$4
	addiu	$25,$25,-1
	and	$2,$2,$25
$LBE1109 = .
$LBE1114 = .
	.loc 1 1798 0
	lw	$24,4($11)
	sll	$4,$2,2
	sll	$2,$2,4
	subu	$2,$2,$4
	.loc 1 1800 0
	li	$5,-16777216			# 0xffffffffff000000
	.loc 1 1798 0
	addu	$2,$24,$2
	.loc 1 1777 0
	lui	$4,%hi(jiffies)
	.loc 1 1800 0
	ori	$6,$5,0xff00
	.loc 1 1777 0
	lw	$14,%lo(jiffies)($4)
	.loc 1 1798 0
	lw	$2,0($2)
	lw	$9,12($18)
	lw	$15,16($18)
	.set	noreorder
	.set	nomacro
	j	$L178
	addiu	$5,$5,256
	.set	macro
	.set	reorder

$L182:
	.loc 1 1799 0
	lw	$4,4($2)
	bne	$3,$4,$L179
	.loc 1 1800 0
	lw	$4,0($2)
	and	$4,$4,$6
	bne	$4,$5,$L179
	.loc 1 1801 0
	lw	$4,16($2)
	bne	$10,$4,$L179
	.loc 1 1802 0
	lw	$4,12($2)
	bne	$13,$4,$L179
	.loc 1 1803 0
	lw	$4,24($2)
	bne	$4,$9,$L179
	.loc 1 1804 0
	lw	$4,28($2)
	bne	$4,$15,$L179
	.loc 1 1805 0
	lw	$4,20($2)
	bne	$7,$4,$L179
	.loc 1 1806 0
	lw	$4,8($2)
	.set	noreorder
	.set	nomacro
	bne	$12,$4,$L179
	subu	$4,$14,$17
	.set	macro
	.set	reorder

	.loc 1 1808 0
	lw	$5,40($2)
	.loc 1 1809 0
	subu	$4,$4,$5
	bgez	$4,$L180
	.set	noreorder
	.set	nomacro
	j	$L190
	lw	$4,56($2)
	.set	macro
	.set	reorder

$L179:
	.loc 1 1798 0
	lw	$2,64($2)
$L178:
	.loc 1 1798 0 is_stmt 0 discriminator 1
	bne	$2,$0,$L182
$L180:
$LBB1115 = .
$LBB1116 = .
	.loc 1 727 0 is_stmt 1
	xor	$4,$9,$7
	srl	$2,$7,8
	.loc 1 728 0
	xor	$4,$4,$15
	xor	$4,$4,$2
	srl	$2,$9,16
	.loc 1 729 0
	xor	$4,$4,$2
	srl	$2,$12,4
	.loc 1 730 0
	xor	$2,$4,$2
	.loc 1 731 0
	xor	$8,$2,$8
	.loc 1 732 0
	srl	$2,$8,12
	xor	$8,$2,$8
	and	$2,$8,$25
$LBE1116 = .
$LBE1115 = .
	.loc 1 1833 0
	sll	$4,$2,2
	sll	$2,$2,4
	subu	$2,$2,$4
	.loc 1 1835 0
	li	$5,-16777216			# 0xffffffffff000000
	.loc 1 1833 0
	addu	$24,$24,$2
	.loc 1 1835 0
	ori	$6,$5,0xff00
	.loc 1 1833 0
	lw	$2,0($24)
	.set	noreorder
	.set	nomacro
	j	$L183
	addiu	$5,$5,512
	.set	macro
	.set	reorder

$L186:
	.loc 1 1834 0
	lw	$4,4($2)
	bne	$3,$4,$L184
	.loc 1 1835 0
	lw	$4,0($2)
	and	$4,$4,$6
	bne	$4,$5,$L184
	.loc 1 1836 0
	lw	$4,20($2)
	bne	$4,$9,$L184
	.loc 1 1837 0
	lw	$4,8($2)
	bne	$4,$15,$L184
	.loc 1 1838 0
	lw	$4,24($2)
	bne	$7,$4,$L184
	.loc 1 1839 0
	lw	$4,28($2)
	bne	$12,$4,$L184
	.loc 1 1840 0
	lw	$4,32($2)
	bne	$10,$4,$L184
	.loc 1 1841 0
	lw	$4,36($2)
	bne	$13,$4,$L184
	.loc 1 1843 0
	lw	$5,40($2)
	.loc 1 1844 0
	subu	$3,$14,$17
	subu	$3,$3,$5
	bgez	$3,$L185
	.loc 1 1848 0
	lw	$4,56($2)
$L190:
	.set	noreorder
	.set	nomacro
	jal	rtl_set_ct_timeout_expires
	addu	$5,$17,$5
	.set	macro
	.set	reorder

	.loc 1 1853 0
	lw	$2,%lo(table_path)($16)
$LBB1117 = .
$LBB1118 = .
$LBB1119 = .
$LBB1120 = .
$LBB1121 = .
$LBB1122 = .
	.loc 3 136 0
	lhu	$3,2($2)
	addiu	$3,$3,1
	.loc 3 137 0
#APP
 # 137 "/home/extra_home/marklee/rtk_OpenWRT_BB/BB_v1407_branch_v25/v25_relase_source_test_0830/rtk_OpenWRT_v2.5_Branch_20160603/build_dir/target-mips_24kec_uClibc-0.9.33.2/linux-rtkmips_rtl8198c/linux-3.10.49/arch/mips/include/asm/spinlock.h" 1
	.set	push
	.set	noreorder
	.set	mips2
	sync
	.set	pop
 # 0 "" 2
	.loc 3 138 0
#NO_APP
	sh	$3,2($2)
	.loc 3 139 0
#APP
 # 139 "/home/extra_home/marklee/rtk_OpenWRT_BB/BB_v1407_branch_v25/v25_relase_source_test_0830/rtk_OpenWRT_v2.5_Branch_20160603/build_dir/target-mips_24kec_uClibc-0.9.33.2/linux-rtkmips_rtl8198c/linux-3.10.49/arch/mips/include/asm/spinlock.h" 1
	.set	push
	.set	noreorder
	.set	mips2
	sync
	.set	pop
 # 0 "" 2
#NO_APP
$LBE1122 = .
$LBE1121 = .
$LBE1120 = .
	.loc 4 153 0
$LBE1119 = .
$LBE1118 = .
$LBE1117 = .
	.loc 1 1855 0
	.set	noreorder
	.set	nomacro
	j	$L181
	li	$2,-1			# 0xffffffffffffffff
	.set	macro
	.set	reorder

$L184:
	.loc 1 1833 0
	lw	$2,64($2)
$L183:
	.loc 1 1833 0 is_stmt 0 discriminator 1
	bne	$2,$0,$L186
$L185:
$LBB1123 = .
$LBB1124 = .
$LBB1125 = .
$LBB1126 = .
$LBB1127 = .
$LBB1128 = .
	.loc 3 136 0 is_stmt 1
	lhu	$2,2($11)
	addiu	$2,$2,1
	.loc 3 137 0
#APP
 # 137 "/home/extra_home/marklee/rtk_OpenWRT_BB/BB_v1407_branch_v25/v25_relase_source_test_0830/rtk_OpenWRT_v2.5_Branch_20160603/build_dir/target-mips_24kec_uClibc-0.9.33.2/linux-rtkmips_rtl8198c/linux-3.10.49/arch/mips/include/asm/spinlock.h" 1
	.set	push
	.set	noreorder
	.set	mips2
	sync
	.set	pop
 # 0 "" 2
	.loc 3 138 0
#NO_APP
	sh	$2,2($11)
	.loc 3 139 0
#APP
 # 139 "/home/extra_home/marklee/rtk_OpenWRT_BB/BB_v1407_branch_v25/v25_relase_source_test_0830/rtk_OpenWRT_v2.5_Branch_20160603/build_dir/target-mips_24kec_uClibc-0.9.33.2/linux-rtkmips_rtl8198c/linux-3.10.49/arch/mips/include/asm/spinlock.h" 1
	.set	push
	.set	noreorder
	.set	mips2
	sync
	.set	pop
 # 0 "" 2
#NO_APP
$LBE1128 = .
$LBE1127 = .
$LBE1126 = .
	.loc 4 153 0
$LBE1125 = .
$LBE1124 = .
$LBE1123 = .
	.loc 1 1863 0
	move	$2,$0
$L181:
	.loc 1 1864 0
	lw	$31,28($sp)
	lw	$18,24($sp)
	lw	$17,20($sp)
	lw	$16,16($sp)
	.set	noreorder
	.set	nomacro
	j	$31
	addiu	$sp,$sp,32
	.set	macro
	.set	reorder

	.cfi_def_cfa_offset 0
	.cfi_restore 16
	.cfi_restore 17
	.cfi_restore 18
	.cfi_restore 31
	.end	rtk_idleNaptConnection
	.cfi_endproc
$LFE3274:
	.size	rtk_idleNaptConnection, .-rtk_idleNaptConnection
	.align	2
	.globl	rtl_fpTimer_update
$LFB3275 = .
	.loc 1 1871 0
	.cfi_startproc
	.set	nomips16
	.ent	rtl_fpTimer_update
	.type	rtl_fpTimer_update, @function
rtl_fpTimer_update:
	.frame	$sp,72,$31		# vars= 32, regs= 6/0, args= 16, gp= 0
	.mask	0x801f0000,-4
	.fmask	0x00000000,0
	.set	noreorder
	.set	nomacro
	addiu	$sp,$sp,-72
	.cfi_def_cfa_offset 72
	.loc 1 1881 0
	lui	$2,%hi(jiffies)
	.loc 1 1883 0
	move	$5,$0
	.loc 1 1871 0
	sw	$19,60($sp)
	sw	$16,48($sp)
	sw	$31,68($sp)
	.cfi_offset 19, -12
	.cfi_offset 16, -24
	.cfi_offset 31, -4
	move	$16,$4
	sw	$20,64($sp)
	sw	$18,56($sp)
	sw	$17,52($sp)
	.cfi_offset 20, -8
	.cfi_offset 18, -16
	.cfi_offset 17, -20
	.loc 1 1881 0
	lw	$19,%lo(jiffies)($2)
	.loc 1 1883 0
	jal	rtl_get_ct_protonum
	nop

	li	$3,17			# 0x11
	bne	$2,$3,$L192
	move	$4,$16

	.loc 1 1886 0
	jal	rtl_get_ct_udp_status
	nop

	andi	$2,$2,0x2
	bne	$2,$0,$L208
	li	$4,1			# 0x1

	.loc 1 1889 0
	move	$4,$0
$L208:
	move	$5,$16
	jal	udp_get_timeouts_by_state
	li	$6,1			# 0x1

	move	$18,$2
	.loc 1 1884 0
	j	$L194
	li	$20,1			# 0x1

$L192:
	.loc 1 1904 0
	jal	rtl_get_ct_protonum
	move	$5,$0

	li	$3,6			# 0x6
	bne	$2,$3,$L206
	li	$2,-1			# 0xffffffffffffffff

	.loc 1 1905 0 discriminator 1
	jal	rtl_get_ct_tcp_state
	move	$4,$16

	.loc 1 1904 0 discriminator 1
	sltu	$2,$2,6
	beq	$2,$0,$L206
	li	$2,-1			# 0xffffffffffffffff

	.loc 1 1907 0
	jal	rtl_tcp_get_timeouts
	move	$4,$16

	move	$18,$2
	.loc 1 1906 0
	li	$20,2			# 0x2
$L194:
	.loc 1 1924 0
	move	$5,$0
	move	$6,$0
	jal	rtl_get_ct_ip_by_dir
	move	$4,$16

	.loc 1 1925 0
	move	$4,$16
	li	$5,1			# 0x1
	li	$6,1			# 0x1
	jal	rtl_get_ct_ip_by_dir
	move	$17,$2

	.loc 1 1924 0
	bne	$17,$2,$L196
	li	$6,1			# 0x1

	.loc 1 1929 0
	move	$4,$16
	li	$5,1			# 0x1
	move	$6,$0
	jal	rtl_get_ct_ip_by_dir
	sw	$20,16($sp)

	.loc 1 1930 0
	move	$4,$16
	li	$5,1			# 0x1
	move	$6,$0
	jal	rtl_get_ct_port_by_dir
	sw	$2,20($sp)

	.loc 1 1931 0
	move	$4,$16
	move	$5,$0
	li	$6,1			# 0x1
	jal	rtl_get_ct_ip_by_dir
	sw	$2,24($sp)

	.loc 1 1932 0
	move	$4,$16
	move	$5,$0
	li	$6,1			# 0x1
	jal	rtl_get_ct_port_by_dir
	sw	$2,28($sp)

	.loc 1 1933 0
	move	$4,$16
	move	$5,$0
	move	$6,$0
	jal	rtl_get_ct_ip_by_dir
	sw	$2,32($sp)

	.loc 1 1934 0
	move	$4,$16
	j	$L211
	move	$5,$0

$L196:
	.loc 1 1959 0
	move	$5,$0
	jal	rtl_get_ct_ip_by_dir
	move	$4,$16

	.loc 1 1960 0
	move	$4,$16
	li	$5,1			# 0x1
	move	$6,$0
	jal	rtl_get_ct_ip_by_dir
	move	$17,$2

	.loc 1 1959 0
	bne	$17,$2,$L206
	li	$2,-1			# 0xffffffffffffffff

	.loc 1 1963 0
	move	$4,$16
	move	$5,$0
	move	$6,$0
	jal	rtl_get_ct_ip_by_dir
	sw	$20,16($sp)

	.loc 1 1964 0
	move	$4,$16
	move	$5,$0
	move	$6,$0
	jal	rtl_get_ct_port_by_dir
	sw	$2,20($sp)

	.loc 1 1965 0
	move	$4,$16
	li	$5,1			# 0x1
	li	$6,1			# 0x1
	jal	rtl_get_ct_ip_by_dir
	sw	$2,24($sp)

	.loc 1 1966 0
	move	$4,$16
	li	$5,1			# 0x1
	li	$6,1			# 0x1
	jal	rtl_get_ct_port_by_dir
	sw	$2,28($sp)

	.loc 1 1967 0
	move	$4,$16
	li	$5,1			# 0x1
	move	$6,$0
	jal	rtl_get_ct_ip_by_dir
	sw	$2,32($sp)

	.loc 1 1968 0
	move	$4,$16
	li	$5,1			# 0x1
$L211:
	move	$6,$0
	jal	rtl_get_ct_port_by_dir
	sw	$2,36($sp)

	.loc 1 1971 0
	lui	$3,%hi(FastPath_hook11)
	lw	$3,%lo(FastPath_hook11)($3)
	beq	$3,$0,$L197
	sw	$2,40($sp)

	.loc 1 1973 0
	addiu	$4,$sp,16
	jalr	$3
	move	$5,$18

	beq	$2,$0,$L197
	move	$4,$16

	.loc 1 1997 0
	jal	rtl_check_for_acc
	addu	$5,$18,$19

	.loc 1 1998 0
	j	$L206
	move	$2,$0

$L197:
	.loc 1 2000 0
	li	$2,-1			# 0xffffffffffffffff
$L206:
	.loc 1 2003 0
	lw	$31,68($sp)
	lw	$20,64($sp)
	lw	$19,60($sp)
	lw	$18,56($sp)
	lw	$17,52($sp)
	lw	$16,48($sp)
	j	$31
	addiu	$sp,$sp,72

	.cfi_def_cfa_offset 0
	.cfi_restore 16
	.cfi_restore 17
	.cfi_restore 18
	.cfi_restore 19
	.cfi_restore 20
	.cfi_restore 31
	.set	macro
	.set	reorder
	.end	rtl_fpTimer_update
	.cfi_endproc
$LFE3275:
	.size	rtl_fpTimer_update, .-rtl_fpTimer_update
	.align	2
	.globl	rtl_br_fdb_time_update
$LFB3276 = .
	.loc 1 2011 0
	.cfi_startproc
	.set	nomips16
	.ent	rtl_br_fdb_time_update
	.type	rtl_br_fdb_time_update, @function
rtl_br_fdb_time_update:
	.frame	$sp,32,$31		# vars= 0, regs= 4/0, args= 16, gp= 0
	.mask	0x80070000,-4
	.fmask	0x00000000,0
	.set	noreorder
	.set	nomacro
	addiu	$sp,$sp,-32
	.cfi_def_cfa_offset 32
	sw	$18,24($sp)
	sw	$17,20($sp)
	.cfi_offset 18, -8
	.cfi_offset 17, -12
	move	$18,$4
	move	$17,$5
	.loc 1 2025 0
	move	$4,$0
	move	$5,$6
	li	$6,2			# 0x2
	.loc 1 2011 0
	sw	$31,28($sp)
	.cfi_offset 31, -4
	.cfi_offset 16, -16
	.loc 1 2025 0
	jal	rtl_get_hw_fdb_age
	sw	$16,16($sp)

	.loc 1 2029 0
	li	$3,300			# 0x12c
	beq	$2,$3,$L214
	li	$3,450			# 0x1c2

	beq	$2,$3,$L215
	li	$3,150			# 0x96

	bne	$2,$3,$L213
	lui	$16,%hi(jiffies)

	j	$L216
	nop

$L215:
	.loc 1 2032 0
	lui	$16,%hi(jiffies)
	lw	$5,%lo(jiffies)($16)
	jal	rtl_set_fdb_aging
	move	$4,$17

	.loc 1 2033 0
	j	$L218
	move	$4,$17

$L214:
	.loc 1 2035 0
	lui	$16,%hi(jiffies)
	lw	$5,%lo(jiffies)($16)
	move	$4,$17
	jal	rtl_set_fdb_aging
	addiu	$5,$5,-15000

	.loc 1 2036 0
	j	$L218
	move	$4,$17

$L216:
	.loc 1 2038 0
	lw	$5,%lo(jiffies)($16)
	move	$4,$17
	jal	rtl_set_fdb_aging
	addiu	$5,$5,-30000

$L213:
	.loc 1 2052 0
	move	$4,$17
$L218:
	lw	$16,%lo(jiffies)($16)
	jal	rtl_get_fdb_aging
	nop

	move	$4,$18
	jal	rtl_hold_time
	move	$17,$2

	addu	$2,$2,$17
	.loc 1 2056 0
	lw	$31,28($sp)
	.loc 1 2052 0
	subu	$16,$16,$2
	nor	$2,$0,$16
	.loc 1 2056 0
	lw	$18,24($sp)
	lw	$17,20($sp)
	lw	$16,16($sp)
	sra	$2,$2,31
	j	$31
	addiu	$sp,$sp,32

	.cfi_def_cfa_offset 0
	.cfi_restore 16
	.cfi_restore 17
	.cfi_restore 18
	.cfi_restore 31
	.set	macro
	.set	reorder
	.end	rtl_br_fdb_time_update
	.cfi_endproc
$LFE3276:
	.size	rtl_br_fdb_time_update, .-rtl_br_fdb_time_update
	.align	2
	.globl	FastPath_Route
$LFB3277 = .
	.loc 1 2062 0
	.cfi_startproc
	.set	nomips16
	.ent	FastPath_Route
	.type	FastPath_Route, @function
FastPath_Route:
	.frame	$sp,0,$31		# vars= 0, regs= 0/0, args= 0, gp= 0
	.mask	0x00000000,0
	.fmask	0x00000000,0
	.set	noreorder
	.set	nomacro
	.loc 1 2067 0
	lui	$2,%hi(route_list_inuse)
	lw	$3,%lo(route_list_inuse)($2)
	.loc 1 2064 0
	move	$8,$0
	.loc 1 2067 0
	j	$L220
	move	$2,$0

$L222:
	.loc 1 2068 0
	lw	$5,8($3)
	sltu	$6,$5,$8
	bne	$6,$0,$L221
	and	$7,$4,$5

	.loc 1 2068 0 is_stmt 0 discriminator 1
	lw	$6,4($3)
	bne	$7,$6,$L221
	nop

	.loc 1 2069 0 is_stmt 1
	addiu	$2,$3,16
	move	$8,$5
$L221:
	.loc 1 2067 0
	lw	$3,44($3)
$L220:
	.loc 1 2067 0 is_stmt 0 discriminator 1
	bne	$3,$0,$L222
	nop

	.loc 1 2075 0 is_stmt 1
	j	$31
	nop

	.set	macro
	.set	reorder
	.end	FastPath_Route
	.cfi_endproc
$LFE3277:
	.size	FastPath_Route, .-FastPath_Route
	.section	.rodata.str1.4
	.align	2
$LC6:
	.ascii	"lo\000"
	.text
	.align	2
	.globl	enter_fast_path
$LFB3279 = .
	.loc 1 2162 0
	.cfi_startproc
	.set	nomips16
	.ent	enter_fast_path
	.type	enter_fast_path, @function
enter_fast_path:
	.frame	$sp,96,$31		# vars= 40, regs= 10/0, args= 16, gp= 0
	.mask	0xc0ff0000,-4
	.fmask	0x00000000,0
	addiu	$sp,$sp,-96
	.cfi_def_cfa_offset 96
	sw	$19,68($sp)
	.cfi_offset 19, -28
	move	$19,$4
	sw	$31,92($sp)
	sw	$17,60($sp)
	sw	$16,56($sp)
	sw	$fp,88($sp)
	sw	$23,84($sp)
	sw	$22,80($sp)
	sw	$21,76($sp)
	sw	$20,72($sp)
	.cfi_offset 31, -4
	.cfi_offset 17, -36
	.cfi_offset 16, -40
	.cfi_offset 30, -8
	.cfi_offset 23, -12
	.cfi_offset 22, -16
	.cfi_offset 21, -20
	.cfi_offset 20, -24
	.cfi_offset 18, -32
	.loc 1 2193 0
	.set	noreorder
	.set	nomacro
	jal	rtl_get_skb_dev_name
	sw	$18,64($sp)
	.set	macro
	.set	reorder

	.loc 1 2195 0
	move	$4,$19
	.set	noreorder
	.set	nomacro
	jal	rtl_ip_hdr
	move	$17,$2
	.set	macro
	.set	reorder

	.loc 1 2196 0
	lbu	$3,8($2)
	sltu	$3,$3,2
	.set	noreorder
	.set	nomacro
	bne	$3,$0,$L406
	move	$16,$2
	.set	macro
	.set	reorder

	.loc 1 2201 0
	lbu	$20,9($2)
	.loc 1 2211 0
	li	$3,6			# 0x6
	.set	noreorder
	.set	nomacro
	beq	$20,$3,$L226
	li	$2,17			# 0x11
	.set	macro
	.set	reorder

	.loc 1 2211 0 is_stmt 0 discriminator 1
	.set	noreorder
	.set	nomacro
	bne	$20,$2,$L378
	move	$18,$0
	.set	macro
	.set	reorder

$L226:
	.loc 1 2227 0 is_stmt 1
	lw	$22,0($16)
	.loc 1 2229 0
	move	$4,$16
	move	$6,$19
	.loc 1 2227 0
	ext	$22,$22,24,4
	sll	$22,$22,2
	addu	$22,$16,$22
	.loc 1 2229 0
	.set	noreorder
	.set	nomacro
	jal	fast_path_pre_process_check
	move	$5,$22
	.set	macro
	.set	reorder

	move	$18,$2
	.loc 1 2230 0
	li	$2,6			# 0x6
	.set	noreorder
	.set	nomacro
	bne	$18,$2,$L413
	lw	$31,92($sp)
	.set	macro
	.set	reorder

$LBB1291 = .
$LBB1292 = .
	.file 9 "/home/extra_home/marklee/rtk_OpenWRT_BB/BB_v1407_branch_v25/v25_relase_source_test_0830/rtk_OpenWRT_v2.5_Branch_20160603/build_dir/target-mips_24kec_uClibc-0.9.33.2/linux-rtkmips_rtl8198c/linux-3.10.49/arch/mips/include/asm/string.h"
	.loc 9 77 0
	lui	$2,%hi($LC6)
	addiu	$2,$2,%lo($LC6)
#APP
 # 77 "/home/extra_home/marklee/rtk_OpenWRT_BB/BB_v1407_branch_v25/v25_relase_source_test_0830/rtk_OpenWRT_v2.5_Branch_20160603/build_dir/target-mips_24kec_uClibc-0.9.33.2/linux-rtkmips_rtl8198c/linux-3.10.49/arch/mips/include/asm/string.h" 1
	.set	noreorder
	.set	noat
	lbu	$3,($17)
1:	lbu	$1,($2)
	addiu	$17,1
	bne	$1,$3,2f
	addiu	$2,1
	bnez	$3,1b
	lbu	$3,($17)
	move	$3,$1
2:	subu	$3,$1
3:	.set	at
	.set	reorder
 # 0 "" 2
#NO_APP
$LBE1292 = .
$LBE1291 = .
	.loc 1 2233 0
	beq	$3,$0,$L406
	.loc 1 2250 0
	lw	$3,16($16)
	.loc 1 2252 0
	lhu	$4,2($22)
	.loc 1 2248 0
	lhu	$2,6($16)
	.loc 1 2250 0
	sw	$3,20($sp)
	.loc 1 2256 0
	li	$3,6			# 0x6
	.loc 1 2249 0
	lw	$fp,12($16)
	.loc 1 2251 0
	lhu	$21,0($22)
	.loc 1 2256 0
	.set	noreorder
	.set	nomacro
	beq	$20,$3,$L228
	sw	$4,16($sp)
	.set	macro
	.set	reorder

	.set	noreorder
	.set	nomacro
	j	$L229
	andi	$3,$2,0x3fff
	.set	macro
	.set	reorder

$L228:
	.loc 1 2264 0
	andi	$3,$2,0x3fff
	.set	noreorder
	.set	nomacro
	beq	$3,$0,$L230
	li	$4,8192			# 0x2000
	.set	macro
	.set	reorder

	.loc 1 2265 0
	bne	$2,$4,$L231
	.loc 1 2277 0
	.set	noreorder
	.set	nomacro
	j	$L412
	lw	$4,12($22)
	.set	macro
	.set	reorder

$L411:
$LBB1293 = .
$LBB1294 = .
$LBB1295 = .
$LBB1296 = .
	.loc 1 727 0
	srl	$2,$fp,8
	xor	$3,$fp,$5
	.loc 1 728 0
	xori	$3,$3,0x6
	xor	$3,$3,$6
	.loc 1 729 0
	xor	$3,$3,$2
	.loc 1 732 0
	lui	$4,%hi(path_table_list_max)
	.loc 1 728 0
	srl	$2,$5,16
	.loc 1 730 0
	xor	$3,$3,$2
$LBE1296 = .
$LBE1295 = .
	.loc 1 2089 0
	lui	$7,%hi(table_path)
$LBB1299 = .
$LBB1297 = .
	.loc 1 729 0
	srl	$2,$21,4
	.loc 1 732 0
	lw	$4,%lo(path_table_list_max)($4)
	.loc 1 731 0
	xor	$2,$3,$2
$LBE1297 = .
$LBE1299 = .
	.loc 1 2089 0
	lw	$3,%lo(table_path)($7)
$LBB1300 = .
$LBB1298 = .
	.loc 1 732 0
	srl	$5,$2,12
	xor	$2,$5,$2
	addiu	$4,$4,-1
	and	$2,$2,$4
$LBE1298 = .
$LBE1300 = .
	.loc 1 2089 0
	lw	$3,4($3)
	sll	$5,$2,2
	sll	$2,$2,4
	subu	$2,$2,$5
	addu	$2,$3,$2
	sw	$7,24($sp)
	lw	$2,0($2)
$LBE1294 = .
$LBE1293 = .
	.loc 1 2093 0
	.set	noreorder
	.set	nomacro
	j	$L232
	li	$5,255			# 0xff
	.set	macro
	.set	reorder

$L237:
$LBB1313 = .
$LBB1307 = .
	.loc 1 2090 0
	lw	$3,12($2)
	.set	noreorder
	.set	nomacro
	bne	$21,$3,$L233
	lw	$9,16($sp)
	.set	macro
	.set	reorder

	lw	$3,8($2)
	bne	$9,$3,$L233
	.loc 1 2091 0
	lw	$3,16($2)
	.set	noreorder
	.set	nomacro
	bne	$fp,$3,$L233
	lw	$6,20($sp)
	.set	macro
	.set	reorder

	.loc 1 2092 0
	lw	$3,20($2)
	bne	$6,$3,$L233
	.loc 1 2093 0
	lbu	$3,0($2)
	.set	noreorder
	.set	nomacro
	bne	$3,$5,$L233
	li	$3,1			# 0x1
	.set	macro
	.set	reorder

	.loc 1 2096 0
	lbu	$5,2($2)
	.set	noreorder
	.set	nomacro
	bne	$5,$3,$L234
	sb	$0,0($2)
	.set	macro
	.set	reorder

	.loc 1 2097 0
	lw	$3,24($2)
	.loc 1 2107 0
	.set	noreorder
	.set	nomacro
	bne	$3,$0,$L400
	lw	$2,28($2)
	.set	macro
	.set	reorder

$LBE1307 = .
$LBE1313 = .
	.loc 1 2321 0
	.set	noreorder
	.set	nomacro
	j	$L378
	move	$18,$0
	.set	macro
	.set	reorder

$L234:
$LBB1314 = .
$LBB1308 = .
	.loc 1 2101 0
	lw	$3,32($2)
	.loc 1 2107 0
	.set	noreorder
	.set	nomacro
	bne	$3,$0,$L401
	lw	$2,36($2)
	.set	macro
	.set	reorder

$LBE1308 = .
$LBE1314 = .
	.loc 1 2321 0
	.set	noreorder
	.set	nomacro
	j	$L378
	move	$18,$0
	.set	macro
	.set	reorder

$L233:
$LBB1315 = .
$LBB1309 = .
	.loc 1 2089 0
	lw	$2,64($2)
$L232:
	.set	noreorder
	.set	nomacro
	bne	$2,$0,$L237
	move	$18,$0
	.set	macro
	.set	reorder

$LBE1309 = .
$LBE1315 = .
	.loc 1 2695 0
	.set	noreorder
	.set	nomacro
	j	$L413
	lw	$31,92($sp)
	.set	macro
	.set	reorder

$L400:
$LBB1316 = .
$LBB1310 = .
$LBB1301 = .
$LBB1302 = .
	.loc 1 727 0
	lw	$7,20($sp)
	.loc 1 729 0
	lw	$9,16($sp)
$LBE1302 = .
$LBE1301 = .
	.loc 1 2111 0
	andi	$2,$2,0xffff
$LBB1304 = .
$LBB1303 = .
	.loc 1 727 0
	srl	$5,$7,8
	xori	$6,$7,0x6
	.loc 1 728 0
	xor	$6,$6,$5
	.loc 1 729 0
	srl	$5,$9,4
	.loc 1 728 0
	xor	$5,$6,$5
	.loc 1 729 0
	xor	$5,$3,$5
	.loc 1 730 0
	xor	$2,$5,$2
	.loc 1 728 0
	srl	$3,$3,16
	.loc 1 731 0
	xor	$2,$2,$3
	.loc 1 732 0
	srl	$3,$2,12
	xor	$2,$3,$2
$LBE1303 = .
$LBE1304 = .
$LBE1310 = .
$LBE1316 = .
	.set	noreorder
	.set	nomacro
	j	$L238
	and	$2,$2,$4
	.set	macro
	.set	reorder

$L401:
$LBB1317 = .
$LBB1311 = .
$LBB1305 = .
$LBB1306 = .
	.loc 1 727 0
	xori	$6,$fp,0x6
	.loc 1 728 0
	xor	$6,$6,$21
	srl	$5,$fp,16
	xor	$5,$6,$5
	.loc 1 729 0
	xor	$5,$3,$5
	.loc 1 727 0
	srl	$3,$3,8
	.loc 1 730 0
	xor	$3,$5,$3
	.loc 1 729 0
	ext	$2,$2,4,12
	.loc 1 731 0
	xor	$2,$3,$2
	.loc 1 732 0
	srl	$3,$2,12
	xor	$2,$3,$2
	and	$2,$2,$4
$L238:
$LBE1306 = .
$LBE1305 = .
	.loc 1 2115 0
	lw	$4,24($sp)
	lw	$3,%lo(table_path)($4)
	sll	$4,$2,2
	sll	$2,$2,4
	lw	$3,4($3)
	subu	$2,$2,$4
	.loc 1 2119 0
	li	$4,255			# 0xff
	.loc 1 2115 0
	addu	$2,$3,$2
$LBE1311 = .
$LBE1317 = .
	.set	noreorder
	.set	nomacro
	j	$L239
	lw	$2,0($2)
	.set	macro
	.set	reorder

$L241:
$LBB1318 = .
$LBB1312 = .
	.loc 1 2116 0
	lw	$3,24($2)
	.set	noreorder
	.set	nomacro
	bne	$5,$3,$L240
	lw	$6,16($sp)
	.set	macro
	.set	reorder

	lw	$3,28($2)
	bne	$6,$3,$L240
	.loc 1 2117 0
	lw	$3,32($2)
	bne	$fp,$3,$L240
	.loc 1 2118 0
	lw	$3,36($2)
	bne	$21,$3,$L240
	.loc 1 2119 0
	lbu	$3,0($2)
	bne	$3,$4,$L240
	.loc 1 2121 0
	sb	$0,0($2)
$L240:
	.loc 1 2115 0
	lw	$2,64($2)
$L239:
	.set	noreorder
	.set	nomacro
	bne	$2,$0,$L241
	lw	$5,20($sp)
	.set	macro
	.set	reorder

$LBE1312 = .
$LBE1318 = .
	.loc 1 2321 0
	.set	noreorder
	.set	nomacro
	j	$L378
	move	$18,$0
	.set	macro
	.set	reorder

$L403:
	.loc 1 2281 0
	li	$5,393216			# 0x60000
	and	$4,$4,$5
	.set	noreorder
	.set	nomacro
	bne	$4,$0,$L378
	move	$18,$0
	.set	macro
	.set	reorder

$L229:
	.loc 1 2308 0
	.set	noreorder
	.set	nomacro
	bne	$3,$0,$L242
	lw	$7,20($sp)
	.set	macro
	.set	reorder

	.loc 1 2175 0
	li	$9,1			# 0x1
	.loc 1 2185 0
	move	$23,$0
	xor	$7,$7,$fp
	sw	$7,28($sp)
	.loc 1 2183 0
	sw	$0,48($sp)
	sw	$0,44($sp)
	.loc 1 2175 0
	.set	noreorder
	.set	nomacro
	j	$L243
	sw	$9,40($sp)
	.set	macro
	.set	reorder

$L242:
	.loc 1 2313 0
	li	$3,8192			# 0x2000
	beq	$2,$3,$L331
$L231:
	.loc 1 2315 0
	andi	$3,$2,0x2000
	bne	$3,$0,$L332
	.loc 1 2315 0 is_stmt 0 discriminator 1
	andi	$2,$2,0x1fff
	sltu	$2,$0,$2
	sw	$2,48($sp)
	.set	noreorder
	.set	nomacro
	j	$L244
	sw	$0,44($sp)
	.set	macro
	.set	reorder

$L331:
	.loc 1 2314 0 is_stmt 1
	li	$2,1			# 0x1
	.loc 1 2183 0
	sw	$0,48($sp)
	.loc 1 2314 0
	.set	noreorder
	.set	nomacro
	j	$L244
	sw	$2,44($sp)
	.set	macro
	.set	reorder

$L332:
	.loc 1 2183 0
	sw	$0,48($sp)
	sw	$0,44($sp)
$L244:
$LBB1319 = .
$LBB1320 = .
$LBB1321 = .
$LBB1322 = .
	.loc 1 369 0
	lw	$3,20($sp)
$LBE1322 = .
$LBE1321 = .
$LBE1320 = .
$LBE1319 = .
	.loc 1 2318 0
	lhu	$17,4($16)
	lbu	$23,9($16)
$LBB1350 = .
$LBB1347 = .
$LBB1326 = .
$LBB1323 = .
	.loc 1 369 0
	xor	$3,$3,$fp
	sw	$3,28($sp)
	.loc 1 371 0
	lw	$5,28($sp)
	lw	$6,28($sp)
	.loc 1 373 0
	lui	$4,%hi(max_udp_frag_entry)
	lw	$3,%lo(max_udp_frag_entry)($4)
	.loc 1 371 0
	srl	$5,$5,16
	xor	$2,$17,$6
$LBE1323 = .
$LBE1326 = .
$LBB1327 = .
$LBB1328 = .
	.loc 2 293 0
	lui	$7,%hi(negative_cache_table)
$LBE1328 = .
$LBE1327 = .
$LBB1331 = .
$LBB1324 = .
	.loc 1 371 0
	xor	$2,$2,$5
$LBE1324 = .
$LBE1331 = .
$LBB1332 = .
$LBB1329 = .
	.loc 2 293 0
	lw	$4,%lo(negative_cache_table)($7)
$LBE1329 = .
$LBE1332 = .
$LBB1333 = .
$LBB1325 = .
	.loc 1 372 0
	xor	$18,$2,$23
	.loc 1 371 0
	sw	$5,40($sp)
	.loc 1 372 0
	srl	$5,$2,8
	xor	$18,$18,$5
	.loc 1 373 0
	addiu	$3,$3,-1
$LBE1325 = .
$LBE1333 = .
$LBB1334 = .
$LBB1330 = .
	.loc 2 293 0
	.set	noreorder
	.set	nomacro
	jal	_raw_spin_lock
	and	$18,$18,$3
	.set	macro
	.set	reorder

$LBE1330 = .
$LBE1334 = .
	.loc 1 580 0
	lui	$9,%hi(negative_cache_table)
	lw	$4,%lo(negative_cache_table)($9)
	sll	$2,$18,2
	sll	$18,$18,4
	subu	$2,$18,$2
	addu	$2,$4,$2
	lw	$2,4($2)
$LBE1347 = .
$LBE1350 = .
	.loc 1 585 0
	.set	noreorder
	.set	nomacro
	j	$L245
	li	$5,3			# 0x3
	.set	macro
	.set	reorder

$L247:
$LBB1351 = .
$LBB1348 = .
	.loc 1 582 0
	lhu	$3,2($2)
	bne	$3,$17,$L246
	lw	$3,4($2)
	.set	noreorder
	.set	nomacro
	bne	$fp,$3,$L246
	lw	$6,20($sp)
	.set	macro
	.set	reorder

	.loc 1 583 0
	lw	$3,8($2)
	bne	$6,$3,$L246
	.loc 1 584 0
	lbu	$3,1($2)
	bne	$3,$23,$L246
	.loc 1 585 0
	lbu	$3,0($2)
	bne	$3,$5,$L246
$LBB1335 = .
$LBB1336 = .
$LBB1337 = .
$LBB1338 = .
$LBB1339 = .
$LBB1340 = .
	.loc 3 136 0
	lhu	$2,2($4)
	addiu	$2,$2,1
	.loc 3 137 0
#APP
 # 137 "/home/extra_home/marklee/rtk_OpenWRT_BB/BB_v1407_branch_v25/v25_relase_source_test_0830/rtk_OpenWRT_v2.5_Branch_20160603/build_dir/target-mips_24kec_uClibc-0.9.33.2/linux-rtkmips_rtl8198c/linux-3.10.49/arch/mips/include/asm/spinlock.h" 1
	.set	push
	.set	noreorder
	.set	mips2
	sync
	.set	pop
 # 0 "" 2
	.loc 3 138 0
#NO_APP
	sh	$2,2($4)
	.loc 3 139 0
#APP
 # 139 "/home/extra_home/marklee/rtk_OpenWRT_BB/BB_v1407_branch_v25/v25_relase_source_test_0830/rtk_OpenWRT_v2.5_Branch_20160603/build_dir/target-mips_24kec_uClibc-0.9.33.2/linux-rtkmips_rtl8198c/linux-3.10.49/arch/mips/include/asm/spinlock.h" 1
	.set	push
	.set	noreorder
	.set	mips2
	sync
	.set	pop
 # 0 "" 2
#NO_APP
$LBE1340 = .
$LBE1339 = .
$LBE1338 = .
	.loc 4 153 0
$L406:
$LBE1337 = .
$LBE1336 = .
$LBE1335 = .
$LBE1348 = .
$LBE1351 = .
	.loc 1 2321 0
	.set	noreorder
	.set	nomacro
	j	$L378
	move	$18,$0
	.set	macro
	.set	reorder

$L246:
$LBB1352 = .
$LBB1349 = .
	.loc 1 580 0
	lw	$2,40($2)
$L245:
	bne	$2,$0,$L247
$LBB1341 = .
$LBB1342 = .
$LBB1343 = .
$LBB1344 = .
$LBB1345 = .
$LBB1346 = .
	.loc 3 136 0
	lhu	$2,2($4)
	addiu	$2,$2,1
	.loc 3 137 0
#APP
 # 137 "/home/extra_home/marklee/rtk_OpenWRT_BB/BB_v1407_branch_v25/v25_relase_source_test_0830/rtk_OpenWRT_v2.5_Branch_20160603/build_dir/target-mips_24kec_uClibc-0.9.33.2/linux-rtkmips_rtl8198c/linux-3.10.49/arch/mips/include/asm/spinlock.h" 1
	.set	push
	.set	noreorder
	.set	mips2
	sync
	.set	pop
 # 0 "" 2
	.loc 3 138 0
#NO_APP
	sh	$2,2($4)
	.loc 3 139 0
#APP
 # 139 "/home/extra_home/marklee/rtk_OpenWRT_BB/BB_v1407_branch_v25/v25_relase_source_test_0830/rtk_OpenWRT_v2.5_Branch_20160603/build_dir/target-mips_24kec_uClibc-0.9.33.2/linux-rtkmips_rtl8198c/linux-3.10.49/arch/mips/include/asm/spinlock.h" 1
	.set	push
	.set	noreorder
	.set	mips2
	sync
	.set	pop
 # 0 "" 2
#NO_APP
$LBE1346 = .
$LBE1345 = .
$LBE1344 = .
	.loc 4 153 0
$LBE1343 = .
$LBE1342 = .
$LBE1341 = .
$LBE1349 = .
$LBE1352 = .
	.loc 1 2323 0
	lbu	$2,9($16)
	lw	$7,12($16)
	lw	$9,16($16)
	lhu	$17,4($16)
	sw	$2,36($sp)
$LBB1353 = .
$LBB1354 = .
$LBB1355 = .
$LBB1356 = .
	.loc 1 369 0
	xor	$3,$9,$7
	.loc 1 373 0
	lui	$5,%hi(max_udp_frag_entry)
	.loc 1 372 0
	lw	$6,36($sp)
	.loc 1 371 0
	xor	$4,$17,$3
$LBE1356 = .
$LBE1355 = .
	.loc 1 452 0
	lui	$18,%hi(udp_cache_table)
$LBB1359 = .
$LBB1357 = .
	.loc 1 371 0
	srl	$2,$3,16
	.loc 1 373 0
	lw	$3,%lo(max_udp_frag_entry)($5)
	.loc 1 371 0
	xor	$2,$4,$2
$LBE1357 = .
$LBE1359 = .
$LBB1360 = .
$LBB1361 = .
	.loc 2 293 0
	lw	$4,%lo(udp_cache_table)($18)
$LBE1361 = .
$LBE1360 = .
$LBB1363 = .
$LBB1358 = .
	.loc 1 372 0
	srl	$5,$2,8
	xor	$23,$2,$6
	.loc 1 373 0
	addiu	$3,$3,-1
	.loc 1 372 0
	xor	$23,$23,$5
	.loc 1 373 0
	and	$23,$23,$3
$LBE1358 = .
$LBE1363 = .
$LBE1354 = .
$LBE1353 = .
	.loc 1 2323 0
	sw	$7,24($sp)
$LBB1380 = .
$LBB1377 = .
$LBB1364 = .
$LBB1362 = .
	.loc 2 293 0
	.set	noreorder
	.set	nomacro
	jal	_raw_spin_lock
	sw	$9,32($sp)
	.set	macro
	.set	reorder

$LBE1362 = .
$LBE1364 = .
	.loc 1 455 0
	lw	$3,%lo(udp_cache_table)($18)
	sll	$4,$23,2
	sll	$23,$23,4
	lw	$2,4($3)
	subu	$23,$23,$4
	.loc 1 460 0
	li	$4,1			# 0x1
	.loc 1 455 0
	addu	$2,$2,$23
$LBE1377 = .
$LBE1380 = .
	.set	noreorder
	.set	nomacro
	j	$L248
	lw	$23,0($2)
	.set	macro
	.set	reorder

$L250:
$LBB1381 = .
$LBB1378 = .
	.loc 1 457 0
	lhu	$2,2($23)
	.set	noreorder
	.set	nomacro
	bne	$2,$17,$L249
	lw	$7,24($sp)
	.set	macro
	.set	reorder

	lw	$2,4($23)
	.set	noreorder
	.set	nomacro
	bne	$7,$2,$L249
	lw	$9,32($sp)
	.set	macro
	.set	reorder

	.loc 1 458 0
	lw	$2,8($23)
	.set	noreorder
	.set	nomacro
	bne	$9,$2,$L249
	lw	$5,36($sp)
	.set	macro
	.set	reorder

	.loc 1 459 0
	lbu	$2,1($23)
	bne	$2,$5,$L249
	.loc 1 460 0
	lbu	$2,0($23)
	bne	$2,$4,$L249
$LBB1365 = .
$LBB1366 = .
$LBB1367 = .
$LBB1368 = .
$LBB1369 = .
$LBB1370 = .
	.loc 3 136 0
	lhu	$2,2($3)
	addiu	$2,$2,1
	.loc 3 137 0
#APP
 # 137 "/home/extra_home/marklee/rtk_OpenWRT_BB/BB_v1407_branch_v25/v25_relase_source_test_0830/rtk_OpenWRT_v2.5_Branch_20160603/build_dir/target-mips_24kec_uClibc-0.9.33.2/linux-rtkmips_rtl8198c/linux-3.10.49/arch/mips/include/asm/spinlock.h" 1
	.set	push
	.set	noreorder
	.set	mips2
	sync
	.set	pop
 # 0 "" 2
	.loc 3 138 0
#NO_APP
	sh	$2,2($3)
	.loc 3 139 0
#APP
 # 139 "/home/extra_home/marklee/rtk_OpenWRT_BB/BB_v1407_branch_v25/v25_relase_source_test_0830/rtk_OpenWRT_v2.5_Branch_20160603/build_dir/target-mips_24kec_uClibc-0.9.33.2/linux-rtkmips_rtl8198c/linux-3.10.49/arch/mips/include/asm/spinlock.h" 1
	.set	push
	.set	noreorder
	.set	mips2
	sync
	.set	pop
 # 0 "" 2
#NO_APP
$LBE1370 = .
$LBE1369 = .
$LBE1368 = .
	.loc 4 153 0
$LBE1367 = .
$LBE1366 = .
$LBE1365 = .
$LBE1378 = .
$LBE1381 = .
	.loc 1 2329 0
	lhu	$6,14($23)
	.loc 1 2330 0
	lw	$7,44($sp)
	.loc 1 2328 0
	lhu	$21,12($23)
	.loc 1 2330 0
	.set	noreorder
	.set	nomacro
	bne	$7,$0,$L333
	sw	$6,16($sp)
	.set	macro
	.set	reorder

	.loc 1 2331 0
	.set	noreorder
	.set	nomacro
	j	$L243
	sw	$0,40($sp)
	.set	macro
	.set	reorder

$L249:
$LBB1382 = .
$LBB1379 = .
	.loc 1 455 0
	lw	$23,44($23)
$L248:
	bne	$23,$0,$L250
$LBB1371 = .
$LBB1372 = .
$LBB1373 = .
$LBB1374 = .
$LBB1375 = .
$LBB1376 = .
	.loc 3 136 0
	lhu	$2,2($3)
	addiu	$2,$2,1
	.loc 3 137 0
#APP
 # 137 "/home/extra_home/marklee/rtk_OpenWRT_BB/BB_v1407_branch_v25/v25_relase_source_test_0830/rtk_OpenWRT_v2.5_Branch_20160603/build_dir/target-mips_24kec_uClibc-0.9.33.2/linux-rtkmips_rtl8198c/linux-3.10.49/arch/mips/include/asm/spinlock.h" 1
	.set	push
	.set	noreorder
	.set	mips2
	sync
	.set	pop
 # 0 "" 2
	.loc 3 138 0
#NO_APP
	sh	$2,2($3)
	.loc 3 139 0
#APP
 # 139 "/home/extra_home/marklee/rtk_OpenWRT_BB/BB_v1407_branch_v25/v25_relase_source_test_0830/rtk_OpenWRT_v2.5_Branch_20160603/build_dir/target-mips_24kec_uClibc-0.9.33.2/linux-rtkmips_rtl8198c/linux-3.10.49/arch/mips/include/asm/spinlock.h" 1
	.set	push
	.set	noreorder
	.set	mips2
	sync
	.set	pop
 # 0 "" 2
#NO_APP
$LBE1376 = .
$LBE1375 = .
$LBE1374 = .
	.loc 4 153 0
$LBE1373 = .
$LBE1372 = .
$LBE1371 = .
$LBE1379 = .
$LBE1382 = .
	.loc 1 2335 0
	lw	$9,44($sp)
	.set	noreorder
	.set	nomacro
	bne	$9,$0,$L334
	li	$3,1			# 0x1
	.set	macro
	.set	reorder

	.loc 1 2338 0
	lhu	$17,4($16)
$LBB1383 = .
$LBB1384 = .
$LBB1385 = .
$LBB1386 = .
	.loc 1 371 0
	lw	$4,28($sp)
	lw	$5,40($sp)
$LBE1386 = .
$LBE1385 = .
$LBE1384 = .
$LBE1383 = .
	.loc 1 2338 0
	lbu	$16,9($16)
$LBB1408 = .
$LBB1405 = .
$LBB1390 = .
$LBB1387 = .
	.loc 1 373 0
	lui	$2,%hi(max_udp_frag_entry)
	lw	$3,%lo(max_udp_frag_entry)($2)
$LBE1387 = .
$LBE1390 = .
$LBB1391 = .
$LBB1392 = .
	.loc 2 293 0
	lui	$6,%hi(negative_cache_table)
$LBE1392 = .
$LBE1391 = .
$LBB1395 = .
$LBB1388 = .
	.loc 1 371 0
	xor	$2,$17,$4
	xor	$2,$2,$5
$LBE1388 = .
$LBE1395 = .
$LBB1396 = .
$LBB1393 = .
	.loc 2 293 0
	lw	$4,%lo(negative_cache_table)($6)
$LBE1393 = .
$LBE1396 = .
$LBB1397 = .
$LBB1389 = .
	.loc 1 372 0
	srl	$5,$2,8
	xor	$2,$2,$16
	xor	$18,$2,$5
	.loc 1 373 0
	addiu	$2,$3,-1
$LBE1389 = .
$LBE1397 = .
$LBB1398 = .
$LBB1394 = .
	.loc 2 293 0
	.set	noreorder
	.set	nomacro
	jal	_raw_spin_lock
	and	$18,$18,$2
	.set	macro
	.set	reorder

$LBE1394 = .
$LBE1398 = .
	.loc 1 610 0
	lui	$3,%hi(negative_cache_list_free)
	lw	$2,%lo(negative_cache_list_free)($3)
	.set	noreorder
	.set	nomacro
	bne	$2,$0,$L251
	lw	$7,20($sp)
	.set	macro
	.set	reorder

	.loc 1 614 0
	lui	$2,%hi(negative_cache_table)
$LBE1405 = .
$LBE1408 = .
	.set	noreorder
	.set	nomacro
	j	$L407
	lw	$2,%lo(negative_cache_table)($2)
	.set	macro
	.set	reorder

$L251:
$LBB1409 = .
$LBB1406 = .
	.loc 1 626 0
	lw	$4,48($2)
	.loc 1 625 0
	li	$5,3			# 0x3
	sb	$5,0($2)
	.loc 1 621 0
	sh	$17,2($2)
	.loc 1 622 0
	sw	$fp,4($2)
	.loc 1 623 0
	sw	$7,8($2)
	.loc 1 624 0
	sb	$16,1($2)
	.loc 1 626 0
	lw	$5,52($2)
	.set	noreorder
	.set	nomacro
	beq	$4,$0,$L252
	addiu	$3,$3,%lo(negative_cache_list_free)
	.set	macro
	.set	reorder

	sw	$5,52($4)
	lw	$4,48($2)
	.set	noreorder
	.set	nomacro
	j	$L253
	lw	$5,52($2)
	.set	macro
	.set	reorder

$L252:
	sw	$5,4($3)
$L253:
	li	$6,12			# 0xc
	mul	$18,$18,$6
	sw	$4,0($5)
	lw	$5,8($3)
	lui	$6,%hi(negative_cache_table)
	lw	$4,%lo(negative_cache_table)($6)
	addiu	$5,$5,-1
	.loc 1 627 0
	sw	$0,40($2)
	.loc 1 626 0
	sw	$5,8($3)
	.loc 1 627 0
	lui	$7,%hi(negative_cache_table)
	addiu	$6,$2,40
	addu	$3,$4,$18
	lw	$4,8($3)
	sw	$4,44($2)
	lw	$3,8($3)
	sw	$2,0($3)
	lw	$3,%lo(negative_cache_table)($7)
	addu	$4,$3,$18
	lw	$5,12($4)
	sw	$6,8($4)
	addiu	$5,$5,1
	sw	$5,12($4)
$LBB1399 = .
$LBB1400 = .
$LBB1401 = .
$LBB1402 = .
$LBB1403 = .
$LBB1404 = .
	.loc 3 136 0
	lhu	$4,2($3)
	addiu	$4,$4,1
	.loc 3 137 0
#APP
 # 137 "/home/extra_home/marklee/rtk_OpenWRT_BB/BB_v1407_branch_v25/v25_relase_source_test_0830/rtk_OpenWRT_v2.5_Branch_20160603/build_dir/target-mips_24kec_uClibc-0.9.33.2/linux-rtkmips_rtl8198c/linux-3.10.49/arch/mips/include/asm/spinlock.h" 1
	.set	push
	.set	noreorder
	.set	mips2
	sync
	.set	pop
 # 0 "" 2
	.loc 3 138 0
#NO_APP
	sh	$4,2($3)
	.loc 3 139 0
#APP
 # 139 "/home/extra_home/marklee/rtk_OpenWRT_BB/BB_v1407_branch_v25/v25_relase_source_test_0830/rtk_OpenWRT_v2.5_Branch_20160603/build_dir/target-mips_24kec_uClibc-0.9.33.2/linux-rtkmips_rtl8198c/linux-3.10.49/arch/mips/include/asm/spinlock.h" 1
	.set	push
	.set	noreorder
	.set	mips2
	sync
	.set	pop
 # 0 "" 2
#NO_APP
$LBE1404 = .
$LBE1403 = .
$LBE1402 = .
	.loc 4 153 0
$LBE1401 = .
$LBE1400 = .
$LBE1399 = .
	.loc 1 633 0
	lui	$3,%hi(jiffies)
	lw	$3,%lo(jiffies)($3)
	.loc 1 634 0
	addiu	$4,$2,12
$LBE1406 = .
$LBE1409 = .
	.loc 1 2339 0
	move	$18,$0
$LBB1410 = .
$LBB1407 = .
	.loc 1 633 0
	addiu	$3,$3,1000
	.loc 1 634 0
	.set	noreorder
	.set	nomacro
	jal	add_timer
	sw	$3,20($2)
	.set	macro
	.set	reorder

$LBE1407 = .
$LBE1410 = .
	.loc 1 2695 0
	.set	noreorder
	.set	nomacro
	j	$L413
	lw	$31,92($sp)
	.set	macro
	.set	reorder

$L333:
	li	$9,1			# 0x1
	.loc 1 2175 0
	li	$2,1			# 0x1
	sw	$9,44($sp)
	.set	noreorder
	.set	nomacro
	j	$L243
	sw	$2,40($sp)
	.set	macro
	.set	reorder

$L334:
	li	$4,1			# 0x1
	sw	$3,44($sp)
	sw	$4,40($sp)
$L243:
	.loc 1 2358 0
	lui	$5,%hi(table_path)
$LBB1411 = .
$LBB1412 = .
	.loc 1 728 0
	lw	$6,20($sp)
$LBE1412 = .
$LBE1411 = .
$LBB1417 = .
$LBB1418 = .
	.loc 2 293 0
	lw	$4,%lo(table_path)($5)
$LBE1418 = .
$LBE1417 = .
	.loc 1 2358 0
	sw	$5,24($sp)
$LBB1420 = .
$LBB1413 = .
	.loc 1 728 0
	srl	$6,$6,16
$LBE1413 = .
$LBE1420 = .
$LBB1421 = .
$LBB1419 = .
	.loc 2 293 0
	.set	noreorder
	.set	nomacro
	jal	_raw_spin_lock
	sw	$6,32($sp)
	.set	macro
	.set	reorder

$LBE1419 = .
$LBE1421 = .
$LBB1422 = .
$LBB1414 = .
	.loc 1 728 0
	lw	$7,32($sp)
	.loc 1 727 0
	srl	$3,$fp,8
	.loc 1 729 0
	lw	$9,16($sp)
	.loc 1 730 0
	lw	$2,28($sp)
	.loc 1 728 0
	xor	$3,$3,$20
	xor	$3,$3,$7
$LBE1414 = .
$LBE1422 = .
	.loc 1 2363 0
	lw	$5,24($sp)
$LBB1423 = .
$LBB1415 = .
	.loc 1 729 0
	xor	$3,$3,$9
	.loc 1 730 0
	xor	$3,$3,$2
	.loc 1 732 0
	lui	$2,%hi(path_table_list_max)
	.loc 1 729 0
	srl	$4,$21,4
	.loc 1 732 0
	lw	$2,%lo(path_table_list_max)($2)
	.loc 1 731 0
	xor	$4,$3,$4
$LBE1415 = .
$LBE1423 = .
	.loc 1 2363 0
	lw	$3,%lo(table_path)($5)
$LBB1424 = .
$LBB1416 = .
	.loc 1 732 0
	srl	$5,$4,12
	xor	$4,$5,$4
	addiu	$2,$2,-1
	and	$2,$4,$2
$LBE1416 = .
$LBE1424 = .
	.loc 1 2363 0
	lw	$4,4($3)
	sll	$5,$2,2
	sll	$2,$2,4
	subu	$2,$2,$5
	addu	$2,$4,$2
	lw	$17,0($2)
	.loc 1 2387 0
	li	$4,255			# 0xff
	.loc 1 2388 0
	li	$8,2			# 0x2
	.loc 1 2390 0
	li	$7,1			# 0x1
	li	$6,17			# 0x11
	.loc 1 2363 0
	.set	noreorder
	.set	nomacro
	j	$L254
	li	$5,6			# 0x6
	.set	macro
	.set	reorder

$L327:
	.loc 1 2383 0
	lw	$2,12($17)
	.set	noreorder
	.set	nomacro
	bne	$2,$21,$L255
	lw	$9,16($sp)
	.set	macro
	.set	reorder

	.loc 1 2384 0
	lw	$2,8($17)
	bne	$2,$9,$L255
	.loc 1 2385 0
	lw	$2,16($17)
	.set	noreorder
	.set	nomacro
	bne	$2,$fp,$L255
	lw	$9,20($sp)
	.set	macro
	.set	reorder

	.loc 1 2386 0
	lw	$2,20($17)
	bne	$2,$9,$L255
	.loc 1 2387 0
	lbu	$2,0($17)
	bne	$2,$4,$L255
	.loc 1 2389 0
	lw	$2,4($17)
	.loc 1 2388 0
	bne	$2,$8,$L256
	.loc 1 2389 0
	bne	$20,$5,$L255
$LBB1425 = .
	.loc 1 2404 0
	lw	$5,32($17)
$L414:
	lbu	$7,1($16)
	move	$4,$19
	.set	noreorder
	.set	nomacro
	jal	rtl_ip_route_input
	move	$6,$fp
	.set	macro
	.set	reorder

	.set	noreorder
	.set	nomacro
	bne	$2,$0,$L257
	move	$18,$2
	.set	macro
	.set	reorder

$LBE1425 = .
	.loc 1 2413 0
	.set	noreorder
	.set	nomacro
	j	$L410
	lw	$5,32($17)
	.set	macro
	.set	reorder

$L256:
	.loc 1 2390 0
	bne	$2,$7,$L255
	.loc 1 2390 0 is_stmt 0 discriminator 1
	bne	$20,$6,$L255
	.loc 1 2404 0 is_stmt 1
	.set	noreorder
	.set	nomacro
	j	$L414
	lw	$5,32($17)
	.set	macro
	.set	reorder

$L257:
$LBB1524 = .
	.loc 1 2406 0
	lw	$3,24($sp)
	lw	$2,%lo(table_path)($3)
$L407:
$LBB1426 = .
$LBB1427 = .
$LBB1428 = .
$LBB1429 = .
$LBB1430 = .
$LBB1431 = .
	.loc 3 136 0
	lhu	$3,2($2)
	addiu	$3,$3,1
	.loc 3 137 0
#APP
 # 137 "/home/extra_home/marklee/rtk_OpenWRT_BB/BB_v1407_branch_v25/v25_relase_source_test_0830/rtk_OpenWRT_v2.5_Branch_20160603/build_dir/target-mips_24kec_uClibc-0.9.33.2/linux-rtkmips_rtl8198c/linux-3.10.49/arch/mips/include/asm/spinlock.h" 1
	.set	push
	.set	noreorder
	.set	mips2
	sync
	.set	pop
 # 0 "" 2
	.loc 3 138 0
#NO_APP
	sh	$3,2($2)
	.loc 3 139 0
#APP
 # 139 "/home/extra_home/marklee/rtk_OpenWRT_BB/BB_v1407_branch_v25/v25_relase_source_test_0830/rtk_OpenWRT_v2.5_Branch_20160603/build_dir/target-mips_24kec_uClibc-0.9.33.2/linux-rtkmips_rtl8198c/linux-3.10.49/arch/mips/include/asm/spinlock.h" 1
	.set	push
	.set	noreorder
	.set	mips2
	sync
	.set	pop
 # 0 "" 2
#NO_APP
$LBE1431 = .
$LBE1430 = .
$LBE1429 = .
	.loc 4 153 0
$LBE1428 = .
$LBE1427 = .
$LBE1426 = .
	.loc 1 2408 0
	.set	noreorder
	.set	nomacro
	j	$L378
	move	$18,$0
	.set	macro
	.set	reorder

$L410:
	.loc 1 2413 0
	lw	$6,56($17)
	lbu	$7,1($17)
	.set	noreorder
	.set	nomacro
	jal	rtl_skb_dst_check
	move	$4,$19
	.set	macro
	.set	reorder

	li	$3,-1			# 0xffffffffffffffff
	beq	$2,$3,$L409
	.loc 1 2425 0
	li	$2,6			# 0x6
	.set	noreorder
	.set	nomacro
	bne	$20,$2,$L261
	addiu	$2,$22,6
	.set	macro
	.set	reorder

	.loc 1 2428 0
	addiu	$5,$22,16
	.set	noreorder
	.set	nomacro
	j	$L262
	sw	$5,36($sp)
	.set	macro
	.set	reorder

$L261:
	.loc 1 2442 0
	lhu	$3,6($22)
	.loc 1 2443 0
	movz	$2,$0,$3
	sw	$2,36($sp)
$L262:
	.loc 1 2452 0
	lw	$6,44($sp)
	.set	noreorder
	.set	nomacro
	beq	$6,$0,$L263
	lw	$2,48($sp)
	.set	macro
	.set	reorder

$LBB1432 = .
$LBB1433 = .
$LBB1434 = .
$LBB1435 = .
	.loc 1 371 0
	lw	$9,28($sp)
$LBE1435 = .
$LBE1434 = .
$LBE1433 = .
$LBE1432 = .
	.loc 1 2454 0
	lhu	$23,4($16)
$LBB1460 = .
$LBB1458 = .
$LBB1439 = .
$LBB1436 = .
	.loc 1 373 0
	lui	$2,%hi(max_udp_frag_entry)
	lw	$5,%lo(max_udp_frag_entry)($2)
	.loc 1 371 0
	xor	$3,$9,$23
	srl	$2,$9,16
$LBE1436 = .
$LBE1439 = .
	.loc 1 482 0
	lui	$7,%hi(udp_cache_table)
$LBB1440 = .
$LBB1437 = .
	.loc 1 371 0
	xor	$2,$3,$2
	.loc 1 372 0
	srl	$3,$2,8
$LBE1437 = .
$LBE1440 = .
$LBB1441 = .
$LBB1442 = .
	.loc 2 293 0
	lw	$4,%lo(udp_cache_table)($7)
$LBE1442 = .
$LBE1441 = .
$LBB1444 = .
$LBB1438 = .
	.loc 1 372 0
	xor	$2,$2,$20
	xor	$3,$2,$3
	.loc 1 373 0
	addiu	$2,$5,-1
	and	$2,$3,$2
	sw	$2,28($sp)
$LBE1438 = .
$LBE1444 = .
$LBB1445 = .
$LBB1443 = .
	.loc 2 293 0
	.set	noreorder
	.set	nomacro
	jal	_raw_spin_lock
	sw	$7,44($sp)
	.set	macro
	.set	reorder

$LBE1443 = .
$LBE1445 = .
	.loc 1 485 0
	lui	$3,%hi(udp_cache_list_free)
	lw	$2,%lo(udp_cache_list_free)($3)
	.set	noreorder
	.set	nomacro
	bne	$2,$0,$L264
	lw	$7,16($sp)
	.set	macro
	.set	reorder

	.loc 1 489 0
	lw	$3,44($sp)
	lw	$2,%lo(udp_cache_table)($3)
$LBB1446 = .
$LBB1447 = .
$LBB1448 = .
$LBB1449 = .
$LBB1450 = .
$LBB1451 = .
	.loc 3 136 0
	lhu	$3,2($2)
	addiu	$3,$3,1
	.loc 3 137 0
#APP
 # 137 "/home/extra_home/marklee/rtk_OpenWRT_BB/BB_v1407_branch_v25/v25_relase_source_test_0830/rtk_OpenWRT_v2.5_Branch_20160603/build_dir/target-mips_24kec_uClibc-0.9.33.2/linux-rtkmips_rtl8198c/linux-3.10.49/arch/mips/include/asm/spinlock.h" 1
	.set	push
	.set	noreorder
	.set	mips2
	sync
	.set	pop
 # 0 "" 2
	.loc 3 138 0
#NO_APP
	sh	$3,2($2)
	.loc 3 139 0
#APP
 # 139 "/home/extra_home/marklee/rtk_OpenWRT_BB/BB_v1407_branch_v25/v25_relase_source_test_0830/rtk_OpenWRT_v2.5_Branch_20160603/build_dir/target-mips_24kec_uClibc-0.9.33.2/linux-rtkmips_rtl8198c/linux-3.10.49/arch/mips/include/asm/spinlock.h" 1
	.set	push
	.set	noreorder
	.set	mips2
	sync
	.set	pop
 # 0 "" 2
#NO_APP
$LBE1451 = .
$LBE1450 = .
$LBE1449 = .
	.loc 4 153 0
$L409:
$LBE1448 = .
$LBE1447 = .
$LBE1446 = .
$LBE1458 = .
$LBE1460 = .
	.loc 1 2456 0
	.set	noreorder
	.set	nomacro
	jal	rtl_dst_release
	move	$4,$19
	.set	macro
	.set	reorder

	.loc 1 2458 0
	lw	$4,24($sp)
$LBE1524 = .
	.set	noreorder
	.set	nomacro
	j	$L408
	lw	$2,%lo(table_path)($4)
	.set	macro
	.set	reorder

$L264:
$LBB1525 = .
$LBB1461 = .
$LBB1459 = .
	.loc 1 498 0
	lw	$6,20($sp)
	.loc 1 503 0
	lw	$5,52($2)
	.loc 1 502 0
	li	$4,1			# 0x1
	.loc 1 496 0
	sh	$23,2($2)
	.loc 1 497 0
	sw	$fp,4($2)
	.loc 1 498 0
	sw	$6,8($2)
	.loc 1 499 0
	sb	$20,1($2)
	.loc 1 500 0
	sh	$21,12($2)
	.loc 1 501 0
	sh	$7,14($2)
	.loc 1 503 0
	.set	noreorder
	.set	nomacro
	beq	$5,$0,$L265
	sb	$4,0($2)
	.set	macro
	.set	reorder

	lw	$4,56($2)
	addiu	$3,$3,%lo(udp_cache_list_free)
	sw	$4,56($5)
	lw	$5,52($2)
	.set	noreorder
	.set	nomacro
	j	$L266
	lw	$6,56($2)
	.set	macro
	.set	reorder

$L265:
	lw	$6,56($2)
	addiu	$3,$3,%lo(udp_cache_list_free)
	sw	$6,4($3)
$L266:
	.loc 1 504 0
	lw	$7,28($sp)
	li	$4,12			# 0xc
	.loc 1 503 0
	sw	$5,0($6)
	.loc 1 504 0
	mul	$4,$7,$4
	lw	$9,44($sp)
	.loc 1 503 0
	lw	$6,8($3)
	.loc 1 504 0
	sw	$0,44($2)
	lw	$5,%lo(udp_cache_table)($9)
	.loc 1 503 0
	addiu	$6,$6,-1
	sw	$6,8($3)
	.loc 1 504 0
	lw	$3,4($5)
	addiu	$6,$2,44
	addu	$3,$3,$4
	lw	$3,4($3)
	sw	$3,48($2)
	lw	$3,4($5)
	addu	$3,$3,$4
	lw	$3,4($3)
	sw	$2,0($3)
	lw	$3,%lo(udp_cache_table)($9)
	lw	$5,4($3)
	addu	$5,$5,$4
	sw	$6,4($5)
	lw	$5,4($3)
	addu	$4,$5,$4
	lw	$5,8($4)
	addiu	$5,$5,1
	sw	$5,8($4)
$LBB1452 = .
$LBB1453 = .
$LBB1454 = .
$LBB1455 = .
$LBB1456 = .
$LBB1457 = .
	.loc 3 136 0
	lhu	$4,2($3)
	addiu	$4,$4,1
	.loc 3 137 0
#APP
 # 137 "/home/extra_home/marklee/rtk_OpenWRT_BB/BB_v1407_branch_v25/v25_relase_source_test_0830/rtk_OpenWRT_v2.5_Branch_20160603/build_dir/target-mips_24kec_uClibc-0.9.33.2/linux-rtkmips_rtl8198c/linux-3.10.49/arch/mips/include/asm/spinlock.h" 1
	.set	push
	.set	noreorder
	.set	mips2
	sync
	.set	pop
 # 0 "" 2
	.loc 3 138 0
#NO_APP
	sh	$4,2($3)
	.loc 3 139 0
#APP
 # 139 "/home/extra_home/marklee/rtk_OpenWRT_BB/BB_v1407_branch_v25/v25_relase_source_test_0830/rtk_OpenWRT_v2.5_Branch_20160603/build_dir/target-mips_24kec_uClibc-0.9.33.2/linux-rtkmips_rtl8198c/linux-3.10.49/arch/mips/include/asm/spinlock.h" 1
	.set	push
	.set	noreorder
	.set	mips2
	sync
	.set	pop
 # 0 "" 2
#NO_APP
$LBE1457 = .
$LBE1456 = .
$LBE1455 = .
	.loc 4 153 0
$LBE1454 = .
$LBE1453 = .
$LBE1452 = .
	.loc 1 509 0
	lui	$3,%hi(jiffies)
	lw	$3,%lo(jiffies)($3)
	.loc 1 510 0
	addiu	$4,$2,16
	.loc 1 509 0
	addiu	$3,$3,1000
	.loc 1 510 0
	.set	noreorder
	.set	nomacro
	jal	add_timer
	sw	$3,24($2)
	.set	macro
	.set	reorder

$LBE1459 = .
$LBE1461 = .
$LBE1525 = .
	.loc 1 2469 0
	.set	noreorder
	.set	nomacro
	j	$L415
	move	$4,$19
	.set	macro
	.set	reorder

$L263:
$LBB1526 = .
	.loc 1 2463 0
	.set	noreorder
	.set	nomacro
	beq	$2,$0,$L415
	move	$4,$19
	.set	macro
	.set	reorder

$LBB1462 = .
$LBB1463 = .
	.loc 1 405 0
	.set	noreorder
	.set	nomacro
	jal	del_timer
	addiu	$4,$23,16
	.set	macro
	.set	reorder

$LBB1464 = .
$LBB1465 = .
$LBB1466 = .
$LBB1467 = .
	.loc 1 369 0
	lw	$2,4($23)
	lw	$3,8($23)
	.loc 1 371 0
	lhu	$4,2($23)
	.loc 1 372 0
	lbu	$6,1($23)
	.loc 1 369 0
	xor	$3,$3,$2
	.loc 1 371 0
	srl	$2,$3,16
	xor	$3,$4,$3
	.loc 1 373 0
	lui	$4,%hi(max_udp_frag_entry)
	lw	$5,%lo(max_udp_frag_entry)($4)
$LBE1467 = .
$LBE1466 = .
	.loc 1 380 0
	lui	$4,%hi(udp_cache_table)
	sw	$4,44($sp)
$LBB1470 = .
$LBB1468 = .
	.loc 1 371 0
	xor	$2,$3,$2
$LBE1468 = .
$LBE1470 = .
$LBB1471 = .
$LBB1472 = .
	.loc 2 293 0
	lw	$4,%lo(udp_cache_table)($4)
$LBE1472 = .
$LBE1471 = .
$LBB1474 = .
$LBB1469 = .
	.loc 1 372 0
	srl	$3,$2,8
	xor	$2,$2,$6
	xor	$18,$2,$3
	.loc 1 373 0
	addiu	$2,$5,-1
$LBE1469 = .
$LBE1474 = .
$LBB1475 = .
$LBB1473 = .
	.loc 2 293 0
	.set	noreorder
	.set	nomacro
	jal	_raw_spin_lock
	and	$18,$18,$2
	.set	macro
	.set	reorder

$LBE1473 = .
$LBE1475 = .
	.loc 1 384 0
	lw	$2,44($23)
	.set	noreorder
	.set	nomacro
	beq	$2,$0,$L268
	sb	$0,0($23)
	.set	macro
	.set	reorder

	lw	$3,48($23)
$LBE1465 = .
$LBE1464 = .
$LBE1463 = .
$LBE1462 = .
$LBE1526 = .
	.set	noreorder
	.set	nomacro
	j	$L269
	sw	$3,48($2)
	.set	macro
	.set	reorder

$L268:
$LBB1527 = .
$LBB1485 = .
$LBB1484 = .
$LBB1483 = .
$LBB1482 = .
	lw	$5,44($sp)
	li	$4,12			# 0xc
	lw	$3,48($23)
	lw	$2,%lo(udp_cache_table)($5)
	mul	$5,$18,$4
	lw	$2,4($2)
	addu	$2,$5,$2
	sw	$3,4($2)
$L269:
	lw	$2,48($23)
	lw	$3,44($23)
	lw	$6,44($sp)
	.loc 1 387 0
	lw	$9,44($sp)
	.loc 1 384 0
	sw	$3,0($2)
	lw	$4,%lo(udp_cache_table)($6)
	li	$6,12			# 0xc
	mul	$7,$18,$6
	lw	$4,4($4)
	.loc 1 385 0
	lui	$2,%hi(udp_cache_list_free)
	addiu	$2,$2,%lo(udp_cache_list_free)
	lw	$3,4($2)
	addiu	$5,$23,52
	.loc 1 384 0
	addu	$18,$7,$4
	lw	$4,8($18)
	addiu	$4,$4,-1
	sw	$4,8($18)
	.loc 1 385 0
	sw	$3,56($23)
	sw	$0,52($23)
	sw	$23,0($3)
	lw	$4,8($2)
	.loc 1 387 0
	lw	$3,%lo(udp_cache_table)($9)
	.loc 1 385 0
	sw	$5,4($2)
	addiu	$4,$4,1
	sw	$4,8($2)
$LBB1476 = .
$LBB1477 = .
$LBB1478 = .
$LBB1479 = .
$LBB1480 = .
$LBB1481 = .
	.loc 3 136 0
	lhu	$2,2($3)
	addiu	$2,$2,1
	.loc 3 137 0
#APP
 # 137 "/home/extra_home/marklee/rtk_OpenWRT_BB/BB_v1407_branch_v25/v25_relase_source_test_0830/rtk_OpenWRT_v2.5_Branch_20160603/build_dir/target-mips_24kec_uClibc-0.9.33.2/linux-rtkmips_rtl8198c/linux-3.10.49/arch/mips/include/asm/spinlock.h" 1
	.set	push
	.set	noreorder
	.set	mips2
	sync
	.set	pop
 # 0 "" 2
	.loc 3 138 0
#NO_APP
	sh	$2,2($3)
	.loc 3 139 0
#APP
 # 139 "/home/extra_home/marklee/rtk_OpenWRT_BB/BB_v1407_branch_v25/v25_relase_source_test_0830/rtk_OpenWRT_v2.5_Branch_20160603/build_dir/target-mips_24kec_uClibc-0.9.33.2/linux-rtkmips_rtl8198c/linux-3.10.49/arch/mips/include/asm/spinlock.h" 1
	.set	push
	.set	noreorder
	.set	mips2
	sync
	.set	pop
 # 0 "" 2
#NO_APP
$LBE1481 = .
$LBE1480 = .
$LBE1479 = .
	.loc 4 153 0
$LBE1478 = .
$LBE1477 = .
$LBE1476 = .
$LBE1482 = .
$LBE1483 = .
$LBE1484 = .
$LBE1485 = .
	.loc 1 2469 0
	move	$4,$19
$L415:
	move	$5,$16
	.set	noreorder
	.set	nomacro
	jal	fast_path_before_nat_check
	move	$6,$20
	.set	macro
	.set	reorder

	.loc 1 2470 0
	li	$3,1			# 0x1
	.set	noreorder
	.set	nomacro
	bne	$2,$3,$L270
	li	$2,6			# 0x6
	.set	macro
	.set	reorder

	.loc 1 2473 0
	lw	$3,24($sp)
	lw	$2,%lo(table_path)($3)
$LBB1486 = .
$LBB1487 = .
$LBB1488 = .
$LBB1489 = .
$LBB1490 = .
$LBB1491 = .
	.loc 3 136 0
	lhu	$3,2($2)
	addiu	$3,$3,1
	.loc 3 137 0
#APP
 # 137 "/home/extra_home/marklee/rtk_OpenWRT_BB/BB_v1407_branch_v25/v25_relase_source_test_0830/rtk_OpenWRT_v2.5_Branch_20160603/build_dir/target-mips_24kec_uClibc-0.9.33.2/linux-rtkmips_rtl8198c/linux-3.10.49/arch/mips/include/asm/spinlock.h" 1
	.set	push
	.set	noreorder
	.set	mips2
	sync
	.set	pop
 # 0 "" 2
	.loc 3 138 0
#NO_APP
	sh	$3,2($2)
	.loc 3 139 0
#APP
 # 139 "/home/extra_home/marklee/rtk_OpenWRT_BB/BB_v1407_branch_v25/v25_relase_source_test_0830/rtk_OpenWRT_v2.5_Branch_20160603/build_dir/target-mips_24kec_uClibc-0.9.33.2/linux-rtkmips_rtl8198c/linux-3.10.49/arch/mips/include/asm/spinlock.h" 1
	.set	push
	.set	noreorder
	.set	mips2
	sync
	.set	pop
 # 0 "" 2
#NO_APP
$LBE1491 = .
$LBE1490 = .
$LBE1489 = .
	.loc 4 153 0
$LBE1488 = .
$LBE1487 = .
$LBE1486 = .
	.loc 1 2475 0
	.set	noreorder
	.set	nomacro
	j	$L378
	li	$18,1			# 0x1
	.set	macro
	.set	reorder

$L270:
	.loc 1 2480 0
	bne	$20,$2,$L271
	.loc 1 2481 0
	lw	$2,12($22)
	ext	$2,$2,20,1
	.set	noreorder
	.set	nomacro
	beq	$2,$0,$L271
	li	$2,40			# 0x28
	.set	macro
	.set	reorder

	.loc 1 2481 0 is_stmt 0 discriminator 1
	lhu	$3,2($16)
	.set	noreorder
	.set	nomacro
	bne	$3,$2,$L271
	move	$4,$19
	.set	macro
	.set	reorder

	.loc 1 2482 0 is_stmt 1
	.set	noreorder
	.set	nomacro
	jal	skb_trim
	li	$5,40			# 0x28
	.set	macro
	.set	reorder

$L271:
	.loc 1 2485 0
	lbu	$2,1($17)
	sltu	$3,$2,13
	.set	noreorder
	.set	nomacro
	beq	$3,$0,$L272
	lui	$3,%hi($L274)
	.set	macro
	.set	reorder

	sll	$2,$2,2
	addiu	$3,$3,%lo($L274)
	addu	$2,$3,$2
	lw	$2,0($2)
	j	$2
	.rdata
	.align	2
	.align	2
$L274:
	.word	$L273
	.word	$L275
	.word	$L276
	.word	$L276
	.word	$L277
	.word	$L272
	.word	$L272
	.word	$L272
	.word	$L278
	.word	$L272
	.word	$L272
	.word	$L272
	.word	$L278
	.text
$L275:
$LBB1492 = .
	.loc 1 2490 0
	lw	$3,24($17)
	srl	$5,$fp,16
	lhu	$4,10($16)
	srl	$2,$3,16
	andi	$3,$3,0xffff
	addu	$2,$2,$3
	subu	$2,$5,$2
	andi	$fp,$fp,0xffff
	addu	$2,$2,$fp
	addu	$2,$4,$2
	.set	noreorder
	.set	nomacro
	bgez	$2,$L279
	sra	$3,$2,16
	.set	macro
	.set	reorder

	.loc 1 2490 0 is_stmt 0 discriminator 1
	subu	$2,$0,$2
	sra	$3,$2,16
	andi	$2,$2,0xffff
	addu	$2,$3,$2
	sra	$3,$2,16
	addu	$2,$3,$2
	nor	$2,$0,$2
	.set	noreorder
	.set	nomacro
	j	$L280
	sh	$2,10($16)
	.set	macro
	.set	reorder

$L279:
	.loc 1 2490 0 discriminator 2
	andi	$2,$2,0xffff
	addu	$2,$3,$2
	sra	$3,$2,16
	addu	$2,$3,$2
	sh	$2,10($16)
$L280:
$LBE1492 = .
	.loc 1 2491 0 is_stmt 1
	lw	$4,40($sp)
	.set	noreorder
	.set	nomacro
	beq	$4,$0,$L290
	li	$2,17			# 0x11
	.set	macro
	.set	reorder

	.loc 1 2493 0
	.set	noreorder
	.set	nomacro
	bne	$20,$2,$L283
	lw	$9,36($sp)
	.set	macro
	.set	reorder

	.loc 1 2495 0
	lw	$5,36($sp)
	beq	$5,$0,$L290
	.loc 1 2495 0 is_stmt 0 discriminator 1
	lhu	$2,0($5)
	beq	$2,$0,$L290
$LBB1493 = .
	.loc 1 2498 0 is_stmt 1
	lw	$4,24($17)
	lw	$3,12($16)
	srl	$6,$4,16
	andi	$4,$4,0xffff
	srl	$5,$3,16
	addu	$4,$6,$4
	subu	$4,$5,$4
	andi	$3,$3,0xffff
	addu	$3,$4,$3
	addu	$2,$2,$3
	.set	noreorder
	.set	nomacro
	bgez	$2,$L285
	sra	$3,$2,16
	.set	macro
	.set	reorder

	.loc 1 2498 0 is_stmt 0 discriminator 1
	subu	$2,$0,$2
	sra	$3,$2,16
	andi	$2,$2,0xffff
	addu	$2,$3,$2
	sra	$3,$2,16
	lw	$6,36($sp)
	addu	$2,$3,$2
	nor	$2,$0,$2
	.set	noreorder
	.set	nomacro
	j	$L290
	sh	$2,0($6)
	.set	macro
	.set	reorder

$L285:
	.loc 1 2498 0 discriminator 2
	andi	$2,$2,0xffff
	addu	$2,$3,$2
	lw	$7,36($sp)
	sra	$3,$2,16
	addu	$2,$3,$2
$LBE1493 = .
$LBE1527 = .
	.set	noreorder
	.set	nomacro
	j	$L290
	sh	$2,0($7)
	.set	macro
	.set	reorder

$L283:
$LBB1528 = .
$LBB1494 = .
	.loc 1 2503 0 is_stmt 1
	lw	$4,24($17)
	lw	$3,12($16)
	srl	$2,$4,16
	andi	$4,$4,0xffff
	srl	$6,$3,16
	lhu	$5,0($9)
	addu	$2,$2,$4
	subu	$2,$6,$2
	andi	$3,$3,0xffff
	addu	$2,$2,$3
	addu	$2,$5,$2
	.set	noreorder
	.set	nomacro
	bgez	$2,$L286
	sra	$3,$2,16
	.set	macro
	.set	reorder

	.loc 1 2503 0 is_stmt 0 discriminator 1
	subu	$2,$0,$2
	sra	$3,$2,16
	andi	$2,$2,0xffff
	addu	$2,$3,$2
	sra	$3,$2,16
	addu	$2,$3,$2
	nor	$2,$0,$2
	.set	noreorder
	.set	nomacro
	j	$L287
	sh	$2,0($9)
	.set	macro
	.set	reorder

$L286:
	.loc 1 2503 0 discriminator 2
	andi	$2,$2,0xffff
	addu	$2,$3,$2
	sra	$3,$2,16
	addu	$2,$3,$2
	lw	$3,36($sp)
	sh	$2,0($3)
$L287:
$LBE1494 = .
	.loc 1 2504 0 is_stmt 1
	lw	$2,12($22)
	ext	$2,$2,20,1
	.set	noreorder
	.set	nomacro
	beq	$2,$0,$L290
	li	$2,40			# 0x28
	.set	macro
	.set	reorder

	.loc 1 2504 0 is_stmt 0 discriminator 1
	lhu	$3,2($16)
	.set	noreorder
	.set	nomacro
	bne	$3,$2,$L290
	move	$4,$19
	.set	macro
	.set	reorder

	.loc 1 2505 0 is_stmt 1
	.set	noreorder
	.set	nomacro
	jal	skb_trim
	li	$5,40			# 0x28
	.set	macro
	.set	reorder

$LBE1528 = .
	.loc 1 2533 0
	.set	noreorder
	.set	nomacro
	j	$L416
	lw	$2,24($17)
	.set	macro
	.set	reorder

$L276:
$LBB1529 = .
$LBB1495 = .
	.loc 1 2513 0
	lw	$3,24($17)
	srl	$5,$fp,16
	lhu	$4,10($16)
	srl	$2,$3,16
	andi	$3,$3,0xffff
	addu	$2,$2,$3
	subu	$2,$5,$2
	andi	$fp,$fp,0xffff
	addu	$2,$2,$fp
	addu	$2,$4,$2
	.set	noreorder
	.set	nomacro
	bgez	$2,$L288
	sra	$3,$2,16
	.set	macro
	.set	reorder

	.loc 1 2513 0 is_stmt 0 discriminator 1
	subu	$2,$0,$2
	sra	$3,$2,16
	andi	$2,$2,0xffff
	addu	$2,$3,$2
	sra	$3,$2,16
	addu	$2,$3,$2
	nor	$2,$0,$2
	.set	noreorder
	.set	nomacro
	j	$L289
	sh	$2,10($16)
	.set	macro
	.set	reorder

$L288:
	.loc 1 2513 0 discriminator 2
	andi	$2,$2,0xffff
	addu	$2,$3,$2
	sra	$3,$2,16
	addu	$2,$3,$2
	sh	$2,10($16)
$L289:
$LBE1495 = .
	.loc 1 2514 0 is_stmt 1
	lw	$4,40($sp)
	.set	noreorder
	.set	nomacro
	beq	$4,$0,$L290
	li	$2,17			# 0x11
	.set	macro
	.set	reorder

	.loc 1 2516 0
	.set	noreorder
	.set	nomacro
	bne	$20,$2,$L291
	lw	$9,36($sp)
	.set	macro
	.set	reorder

	.loc 1 2519 0
	lw	$5,36($sp)
	beq	$5,$0,$L293
	.loc 1 2519 0 is_stmt 0 discriminator 1
	lhu	$2,0($5)
	beq	$2,$0,$L293
$LBB1496 = .
	.loc 1 2522 0 is_stmt 1
	lw	$4,24($17)
	lw	$3,12($16)
	lhu	$5,0($22)
	srl	$7,$4,16
	andi	$4,$4,0xffff
	srl	$6,$3,16
	addu	$4,$7,$4
	subu	$6,$6,$4
	andi	$3,$3,0xffff
	lhu	$4,30($17)
	addu	$3,$6,$3
	addu	$3,$5,$3
	subu	$3,$3,$4
	addu	$2,$2,$3
	.set	noreorder
	.set	nomacro
	bgez	$2,$L295
	sra	$3,$2,16
	.set	macro
	.set	reorder

	.loc 1 2522 0 is_stmt 0 discriminator 1
	subu	$2,$0,$2
	sra	$3,$2,16
	andi	$2,$2,0xffff
	addu	$2,$3,$2
	sra	$3,$2,16
	lw	$6,36($sp)
	addu	$2,$3,$2
	nor	$2,$0,$2
	.set	noreorder
	.set	nomacro
	j	$L293
	sh	$2,0($6)
	.set	macro
	.set	reorder

$L295:
	.loc 1 2522 0 discriminator 2
	andi	$2,$2,0xffff
	addu	$2,$3,$2
	lw	$7,36($sp)
	sra	$3,$2,16
	addu	$2,$3,$2
$LBE1496 = .
$LBE1529 = .
	.set	noreorder
	.set	nomacro
	j	$L293
	sh	$2,0($7)
	.set	macro
	.set	reorder

$L291:
$LBB1530 = .
$LBB1497 = .
	.loc 1 2527 0 is_stmt 1
	lw	$3,24($17)
	lw	$2,12($16)
	andi	$6,$3,0xffff
	srl	$3,$3,16
	srl	$4,$2,16
	lhu	$5,0($22)
	addu	$3,$6,$3
	subu	$3,$4,$3
	andi	$2,$2,0xffff
	lhu	$4,30($17)
	addu	$2,$3,$2
	lhu	$3,0($9)
	addu	$2,$5,$2
	subu	$2,$2,$4
	addu	$2,$3,$2
	.set	noreorder
	.set	nomacro
	bgez	$2,$L296
	sra	$3,$2,16
	.set	macro
	.set	reorder

	.loc 1 2527 0 is_stmt 0 discriminator 1
	subu	$2,$0,$2
	sra	$3,$2,16
	andi	$2,$2,0xffff
	addu	$2,$3,$2
	sra	$3,$2,16
	addu	$2,$3,$2
	nor	$2,$0,$2
	.set	noreorder
	.set	nomacro
	j	$L297
	sh	$2,0($9)
	.set	macro
	.set	reorder

$L296:
	.loc 1 2527 0 discriminator 2
	andi	$2,$2,0xffff
	addu	$2,$3,$2
	sra	$3,$2,16
	addu	$2,$3,$2
	lw	$3,36($sp)
	sh	$2,0($3)
$L297:
$LBE1497 = .
	.loc 1 2528 0 is_stmt 1
	lw	$2,12($22)
	ext	$2,$2,20,1
	.set	noreorder
	.set	nomacro
	beq	$2,$0,$L293
	li	$2,40			# 0x28
	.set	macro
	.set	reorder

	.loc 1 2528 0 is_stmt 0 discriminator 1
	lhu	$3,2($16)
	.set	noreorder
	.set	nomacro
	bne	$3,$2,$L293
	move	$4,$19
	.set	macro
	.set	reorder

	.loc 1 2529 0 is_stmt 1
	.set	noreorder
	.set	nomacro
	jal	skb_trim
	li	$5,40			# 0x28
	.set	macro
	.set	reorder

$L293:
	.loc 1 2531 0
	lw	$2,28($17)
	sh	$2,0($22)
$L290:
	.loc 1 2533 0
	lw	$2,24($17)
$L416:
	.loc 1 2534 0
	.set	noreorder
	.set	nomacro
	j	$L273
	sw	$2,12($16)
	.set	macro
	.set	reorder

$L277:
$LBB1498 = .
	.loc 1 2545 0
	lw	$4,32($17)
	lw	$5,32($sp)
	lhu	$3,22($sp)
	andi	$2,$4,0xffff
	srl	$4,$4,16
	addu	$3,$3,$5
	lhu	$5,10($16)
	subu	$2,$3,$2
	subu	$2,$2,$4
	addu	$2,$5,$2
	.set	noreorder
	.set	nomacro
	bgez	$2,$L298
	sra	$4,$2,16
	.set	macro
	.set	reorder

	.loc 1 2545 0 is_stmt 0 discriminator 1
	subu	$2,$0,$2
	sra	$4,$2,16
	andi	$2,$2,0xffff
	addu	$2,$4,$2
	sra	$4,$2,16
	addu	$2,$4,$2
	nor	$2,$0,$2
	.set	noreorder
	.set	nomacro
	j	$L299
	sh	$2,10($16)
	.set	macro
	.set	reorder

$L298:
	.loc 1 2545 0 discriminator 2
	andi	$2,$2,0xffff
	addu	$2,$4,$2
	sra	$4,$2,16
	addu	$2,$4,$2
	sh	$2,10($16)
$L299:
$LBE1498 = .
	.loc 1 2546 0 is_stmt 1
	lw	$6,40($sp)
	.set	noreorder
	.set	nomacro
	beq	$6,$0,$L405
	li	$2,17			# 0x11
	.set	macro
	.set	reorder

	.loc 1 2548 0
	.set	noreorder
	.set	nomacro
	bne	$20,$2,$L301
	lw	$2,36($sp)
	.set	macro
	.set	reorder

	.loc 1 2551 0
	lw	$7,36($sp)
	beq	$7,$0,$L405
	.loc 1 2551 0 is_stmt 0 discriminator 1
	lhu	$2,0($7)
	beq	$2,$0,$L405
$LBB1499 = .
	.loc 1 2554 0 is_stmt 1
	lw	$4,32($17)
	andi	$5,$4,0xffff
	subu	$3,$3,$5
	srl	$4,$4,16
	subu	$3,$3,$4
	addu	$2,$2,$3
	.set	noreorder
	.set	nomacro
	bgez	$2,$L302
	sra	$3,$2,16
	.set	macro
	.set	reorder

	.loc 1 2554 0 is_stmt 0 discriminator 1
	subu	$2,$0,$2
	sra	$3,$2,16
	andi	$2,$2,0xffff
	addu	$2,$3,$2
	sra	$3,$2,16
	addu	$2,$3,$2
	nor	$2,$0,$2
	.set	noreorder
	.set	nomacro
	j	$L405
	sh	$2,0($7)
	.set	macro
	.set	reorder

$L302:
	.loc 1 2554 0 discriminator 2
	andi	$2,$2,0xffff
	addu	$2,$3,$2
	lw	$9,36($sp)
	sra	$3,$2,16
	addu	$2,$3,$2
$LBE1499 = .
$LBE1530 = .
	.set	noreorder
	.set	nomacro
	j	$L405
	sh	$2,0($9)
	.set	macro
	.set	reorder

$L301:
$LBB1531 = .
$LBB1500 = .
	.loc 1 2559 0 is_stmt 1
	lw	$4,32($17)
	lhu	$5,0($2)
	andi	$2,$4,0xffff
	subu	$2,$3,$2
	srl	$4,$4,16
	subu	$2,$2,$4
	addu	$2,$5,$2
	.set	noreorder
	.set	nomacro
	bgez	$2,$L303
	sra	$3,$2,16
	.set	macro
	.set	reorder

	.loc 1 2559 0 is_stmt 0 discriminator 1
	subu	$2,$0,$2
	sra	$3,$2,16
	andi	$2,$2,0xffff
	addu	$2,$3,$2
	sra	$3,$2,16
	addu	$2,$3,$2
	lw	$3,36($sp)
	nor	$2,$0,$2
	.set	noreorder
	.set	nomacro
	j	$L405
	sh	$2,0($3)
	.set	macro
	.set	reorder

$L303:
	.loc 1 2559 0 discriminator 2
	andi	$2,$2,0xffff
	addu	$2,$3,$2
	lw	$4,36($sp)
	sra	$3,$2,16
	addu	$2,$3,$2
$LBE1500 = .
$LBE1531 = .
	.set	noreorder
	.set	nomacro
	j	$L405
	sh	$2,0($4)
	.set	macro
	.set	reorder

$L278:
$LBB1532 = .
$LBB1501 = .
	.loc 1 2575 0 is_stmt 1
	lw	$4,32($17)
	lw	$5,32($sp)
	lhu	$3,22($sp)
	andi	$2,$4,0xffff
	srl	$4,$4,16
	addu	$3,$3,$5
	lhu	$5,10($16)
	subu	$2,$3,$2
	subu	$2,$2,$4
	addu	$2,$5,$2
	.set	noreorder
	.set	nomacro
	bgez	$2,$L304
	sra	$4,$2,16
	.set	macro
	.set	reorder

	.loc 1 2575 0 is_stmt 0 discriminator 1
	subu	$2,$0,$2
	sra	$4,$2,16
	andi	$2,$2,0xffff
	addu	$2,$4,$2
	sra	$4,$2,16
	addu	$2,$4,$2
	nor	$2,$0,$2
	.set	noreorder
	.set	nomacro
	j	$L305
	sh	$2,10($16)
	.set	macro
	.set	reorder

$L304:
	.loc 1 2575 0 discriminator 2
	andi	$2,$2,0xffff
	addu	$2,$4,$2
	sra	$4,$2,16
	addu	$2,$4,$2
	sh	$2,10($16)
$L305:
$LBE1501 = .
	.loc 1 2576 0 is_stmt 1
	lw	$6,40($sp)
	.set	noreorder
	.set	nomacro
	beq	$6,$0,$L405
	li	$2,17			# 0x11
	.set	macro
	.set	reorder

	.loc 1 2578 0
	.set	noreorder
	.set	nomacro
	bne	$20,$2,$L307
	lw	$7,36($sp)
	.set	macro
	.set	reorder

	.loc 1 2581 0
	beq	$7,$0,$L308
	.loc 1 2581 0 is_stmt 0 discriminator 1
	lhu	$2,0($7)
	beq	$2,$0,$L308
$LBB1502 = .
	.loc 1 2584 0 is_stmt 1
	lw	$4,32($17)
	lhu	$6,2($22)
	lhu	$5,38($17)
	andi	$7,$4,0xffff
	subu	$3,$3,$7
	srl	$4,$4,16
	subu	$3,$3,$4
	addu	$3,$6,$3
	subu	$3,$3,$5
	addu	$2,$2,$3
	.set	noreorder
	.set	nomacro
	bgez	$2,$L309
	sra	$3,$2,16
	.set	macro
	.set	reorder

	.loc 1 2584 0 is_stmt 0 discriminator 1
	subu	$2,$0,$2
	sra	$3,$2,16
	andi	$2,$2,0xffff
	addu	$2,$3,$2
	sra	$3,$2,16
	lw	$9,36($sp)
	addu	$2,$3,$2
	nor	$2,$0,$2
	.set	noreorder
	.set	nomacro
	j	$L308
	sh	$2,0($9)
	.set	macro
	.set	reorder

$L309:
	.loc 1 2584 0 discriminator 2
	andi	$2,$2,0xffff
	addu	$2,$3,$2
	sra	$3,$2,16
	addu	$2,$3,$2
	lw	$3,36($sp)
$LBE1502 = .
$LBE1532 = .
	.set	noreorder
	.set	nomacro
	j	$L308
	sh	$2,0($3)
	.set	macro
	.set	reorder

$L307:
$LBB1533 = .
$LBB1503 = .
	.loc 1 2589 0 is_stmt 1
	lw	$2,32($17)
	lhu	$5,2($22)
	lhu	$4,38($17)
	andi	$6,$2,0xffff
	subu	$3,$3,$6
	lw	$6,36($sp)
	srl	$2,$2,16
	subu	$2,$3,$2
	lhu	$3,0($6)
	addu	$2,$5,$2
	subu	$2,$2,$4
	addu	$2,$3,$2
	.set	noreorder
	.set	nomacro
	bgez	$2,$L310
	sra	$3,$2,16
	.set	macro
	.set	reorder

	.loc 1 2589 0 is_stmt 0 discriminator 1
	subu	$2,$0,$2
	sra	$3,$2,16
	andi	$2,$2,0xffff
	addu	$2,$3,$2
	sra	$3,$2,16
	addu	$2,$3,$2
	nor	$2,$0,$2
	.set	noreorder
	.set	nomacro
	j	$L308
	sh	$2,0($6)
	.set	macro
	.set	reorder

$L310:
	.loc 1 2589 0 discriminator 2
	andi	$2,$2,0xffff
	addu	$2,$3,$2
	lw	$7,36($sp)
	sra	$3,$2,16
	addu	$2,$3,$2
	sh	$2,0($7)
$L308:
$LBE1503 = .
	.loc 1 2591 0 is_stmt 1
	lw	$2,36($17)
$LBE1533 = .
	.set	noreorder
	.set	nomacro
	j	$L405
	sh	$2,2($22)
	.set	macro
	.set	reorder

$L272:
$LBB1534 = .
$LBB1504 = .
	.loc 1 2605 0
	lw	$3,24($17)
	andi	$4,$fp,0xffff
	srl	$fp,$fp,16
	andi	$2,$3,0xffff
	addu	$4,$4,$fp
	lhu	$5,10($16)
	subu	$2,$4,$2
	srl	$3,$3,16
	subu	$2,$2,$3
	addu	$2,$5,$2
	.set	noreorder
	.set	nomacro
	bgez	$2,$L311
	sra	$3,$2,16
	.set	macro
	.set	reorder

	.loc 1 2605 0 is_stmt 0 discriminator 1
	subu	$2,$0,$2
	sra	$3,$2,16
	andi	$2,$2,0xffff
	addu	$2,$3,$2
	sra	$3,$2,16
	addu	$2,$3,$2
	nor	$2,$0,$2
	.set	noreorder
	.set	nomacro
	j	$L312
	sh	$2,10($16)
	.set	macro
	.set	reorder

$L311:
	.loc 1 2605 0 discriminator 2
	andi	$2,$2,0xffff
	addu	$2,$3,$2
	sra	$3,$2,16
	addu	$2,$3,$2
	sh	$2,10($16)
$L312:
$LBE1504 = .
$LBB1505 = .
	.loc 1 2606 0 is_stmt 1
	lw	$5,32($17)
	lhu	$3,22($sp)
	lw	$9,32($sp)
	andi	$2,$5,0xffff
	lhu	$6,10($16)
	addu	$3,$3,$9
	subu	$2,$3,$2
	srl	$5,$5,16
	subu	$2,$2,$5
	addu	$2,$6,$2
	.set	noreorder
	.set	nomacro
	bgez	$2,$L313
	sra	$5,$2,16
	.set	macro
	.set	reorder

	.loc 1 2606 0 is_stmt 0 discriminator 1
	subu	$2,$0,$2
	sra	$5,$2,16
	andi	$2,$2,0xffff
	addu	$2,$5,$2
	sra	$5,$2,16
	addu	$2,$5,$2
	nor	$2,$0,$2
	.set	noreorder
	.set	nomacro
	j	$L314
	sh	$2,10($16)
	.set	macro
	.set	reorder

$L313:
	.loc 1 2606 0 discriminator 2
	andi	$2,$2,0xffff
	addu	$2,$5,$2
	sra	$5,$2,16
	addu	$2,$5,$2
	sh	$2,10($16)
$L314:
$LBE1505 = .
	.loc 1 2608 0 is_stmt 1
	lw	$2,40($sp)
	.set	noreorder
	.set	nomacro
	beq	$2,$0,$L315
	li	$2,17			# 0x11
	.set	macro
	.set	reorder

	.loc 1 2610 0
	.set	noreorder
	.set	nomacro
	bne	$20,$2,$L316
	lw	$5,36($sp)
	.set	macro
	.set	reorder

	.loc 1 2613 0
	beq	$5,$0,$L317
	.loc 1 2613 0 is_stmt 0 discriminator 1
	lhu	$2,0($5)
	beq	$2,$0,$L317
$LBB1506 = .
	.loc 1 2616 0 is_stmt 1
	lw	$5,24($17)
	lhu	$7,0($22)
	lhu	$6,30($17)
	andi	$8,$5,0xffff
	subu	$4,$4,$8
	srl	$5,$5,16
	subu	$4,$4,$5
	addu	$4,$7,$4
	subu	$4,$4,$6
	addu	$2,$2,$4
	.set	noreorder
	.set	nomacro
	bgez	$2,$L318
	sra	$4,$2,16
	.set	macro
	.set	reorder

	.loc 1 2616 0 is_stmt 0 discriminator 1
	subu	$2,$0,$2
	sra	$4,$2,16
	andi	$2,$2,0xffff
	addu	$2,$4,$2
	sra	$4,$2,16
	lw	$6,36($sp)
	addu	$2,$4,$2
	nor	$2,$0,$2
	.set	noreorder
	.set	nomacro
	j	$L319
	sh	$2,0($6)
	.set	macro
	.set	reorder

$L318:
	.loc 1 2616 0 discriminator 2
	andi	$2,$2,0xffff
	addu	$2,$4,$2
	lw	$7,36($sp)
	sra	$4,$2,16
	addu	$2,$4,$2
	sh	$2,0($7)
$L319:
$LBE1506 = .
$LBB1507 = .
	.loc 1 2617 0 is_stmt 1
	lw	$2,32($17)
	lw	$9,36($sp)
	lhu	$5,2($22)
	andi	$6,$2,0xffff
	subu	$3,$3,$6
	lhu	$4,38($17)
	srl	$2,$2,16
	subu	$2,$3,$2
	lhu	$3,0($9)
	addu	$2,$5,$2
	subu	$2,$2,$4
	addu	$2,$3,$2
	.set	noreorder
	.set	nomacro
	bgez	$2,$L320
	sra	$3,$2,16
	.set	macro
	.set	reorder

	.loc 1 2617 0 is_stmt 0 discriminator 1
	subu	$2,$0,$2
	sra	$3,$2,16
	andi	$2,$2,0xffff
	addu	$2,$3,$2
	sra	$3,$2,16
	addu	$2,$3,$2
	nor	$2,$0,$2
	.set	noreorder
	.set	nomacro
	j	$L317
	sh	$2,0($9)
	.set	macro
	.set	reorder

$L320:
	.loc 1 2617 0 discriminator 2
	andi	$2,$2,0xffff
	addu	$2,$3,$2
	sra	$3,$2,16
	addu	$2,$3,$2
	lw	$3,36($sp)
$LBE1507 = .
$LBE1534 = .
	.set	noreorder
	.set	nomacro
	j	$L317
	sh	$2,0($3)
	.set	macro
	.set	reorder

$L316:
$LBB1535 = .
$LBB1508 = .
	.loc 1 2622 0 is_stmt 1
	lw	$2,24($17)
	lhu	$6,0($22)
	lhu	$5,30($17)
	andi	$7,$2,0xffff
	subu	$4,$4,$7
	lw	$7,36($sp)
	srl	$2,$2,16
	subu	$2,$4,$2
	lhu	$4,0($7)
	addu	$2,$6,$2
	subu	$2,$2,$5
	addu	$2,$4,$2
	.set	noreorder
	.set	nomacro
	bgez	$2,$L321
	sra	$4,$2,16
	.set	macro
	.set	reorder

	.loc 1 2622 0 is_stmt 0 discriminator 1
	subu	$2,$0,$2
	sra	$4,$2,16
	andi	$2,$2,0xffff
	addu	$2,$4,$2
	sra	$4,$2,16
	addu	$2,$4,$2
	nor	$2,$0,$2
	.set	noreorder
	.set	nomacro
	j	$L322
	sh	$2,0($7)
	.set	macro
	.set	reorder

$L321:
	.loc 1 2622 0 discriminator 2
	andi	$2,$2,0xffff
	addu	$2,$4,$2
	lw	$9,36($sp)
	sra	$4,$2,16
	addu	$2,$4,$2
	sh	$2,0($9)
$L322:
$LBE1508 = .
$LBB1509 = .
	.loc 1 2623 0 is_stmt 1
	lw	$2,32($17)
	lhu	$5,2($22)
	lhu	$4,38($17)
	andi	$6,$2,0xffff
	subu	$3,$3,$6
	lw	$6,36($sp)
	srl	$2,$2,16
	subu	$2,$3,$2
	lhu	$3,0($6)
	addu	$2,$5,$2
	subu	$2,$2,$4
	addu	$2,$3,$2
	.set	noreorder
	.set	nomacro
	bgez	$2,$L323
	sra	$3,$2,16
	.set	macro
	.set	reorder

	.loc 1 2623 0 is_stmt 0 discriminator 1
	subu	$2,$0,$2
	sra	$3,$2,16
	andi	$2,$2,0xffff
	addu	$2,$3,$2
	sra	$3,$2,16
	addu	$2,$3,$2
	nor	$2,$0,$2
	.set	noreorder
	.set	nomacro
	j	$L317
	sh	$2,0($6)
	.set	macro
	.set	reorder

$L323:
	.loc 1 2623 0 discriminator 2
	andi	$2,$2,0xffff
	addu	$2,$3,$2
	lw	$7,36($sp)
	sra	$3,$2,16
	addu	$2,$3,$2
	sh	$2,0($7)
$L317:
$LBE1509 = .
	.loc 1 2625 0 is_stmt 1
	lw	$2,28($17)
	sh	$2,0($22)
	.loc 1 2626 0
	lw	$2,36($17)
	sh	$2,2($22)
$L315:
	.loc 1 2629 0
	lw	$2,24($17)
	sw	$2,12($16)
$L405:
	.loc 1 2630 0
	lw	$2,32($17)
	sw	$2,16($16)
$L273:
	.loc 1 2636 0
	lbu	$5,8($16)
$LBB1510 = .
	.loc 1 2639 0
	lbu	$4,9($16)
	lhu	$6,10($16)
$LBE1510 = .
	.loc 1 2637 0
	addiu	$3,$5,-1
	andi	$3,$3,0x00ff
$LBB1511 = .
	.loc 1 2639 0
	sll	$2,$5,8
	sll	$7,$3,8
	or	$2,$2,$4
	or	$4,$7,$4
	subu	$2,$2,$4
	addu	$2,$6,$2
	.set	noreorder
	.set	nomacro
	bgez	$2,$L324
	sb	$3,8($16)
	.set	macro
	.set	reorder

	.loc 1 2639 0 is_stmt 0 discriminator 1
	addiu	$2,$2,-1
	.set	noreorder
	.set	nomacro
	j	$L325
	sh	$2,10($16)
	.set	macro
	.set	reorder

$L324:
	.loc 1 2639 0 discriminator 2
	sra	$3,$2,16
	andi	$2,$2,0xffff
	addu	$2,$3,$2
	sra	$3,$2,16
	addu	$2,$3,$2
	sh	$2,10($16)
$L325:
$LBE1511 = .
	.loc 1 2642 0 is_stmt 1
	move	$4,$19
	.set	noreorder
	.set	nomacro
	jal	rtl_set_skb_ip_summed
	move	$5,$0
	.set	macro
	.set	reorder

	.loc 1 2643 0
	move	$4,$19
	.set	noreorder
	.set	nomacro
	jal	rtl_set_skb_dev
	move	$5,$0
	.set	macro
	.set	reorder

	.loc 1 2646 0
	lw	$5,48($17)
	lw	$6,52($17)
	.set	noreorder
	.set	nomacro
	jal	fastpath_set_qos_mark
	move	$4,$19
	.set	macro
	.set	reorder

	.loc 1 2667 0
	lui	$2,%hi(jiffies)
	lw	$2,%lo(jiffies)($2)
	.loc 1 2669 0
	move	$4,$16
	move	$5,$22
	.loc 1 2667 0
	sw	$2,40($17)
	.loc 1 2669 0
	.set	noreorder
	.set	nomacro
	jal	fast_path_post_process_xmit_check
	move	$6,$19
	.set	macro
	.set	reorder

	move	$18,$2
	li	$2,1			# 0x1
	.set	noreorder
	.set	nomacro
	bne	$18,$2,$L326
	lw	$3,24($sp)
	.set	macro
	.set	reorder

	.loc 1 2671 0
	lw	$9,24($sp)
	lw	$2,%lo(table_path)($9)
$L408:
$LBB1512 = .
$LBB1513 = .
$LBB1514 = .
$LBB1515 = .
$LBB1516 = .
$LBB1517 = .
	.loc 3 136 0
	lhu	$3,2($2)
	addiu	$3,$3,1
	.loc 3 137 0
#APP
 # 137 "/home/extra_home/marklee/rtk_OpenWRT_BB/BB_v1407_branch_v25/v25_relase_source_test_0830/rtk_OpenWRT_v2.5_Branch_20160603/build_dir/target-mips_24kec_uClibc-0.9.33.2/linux-rtkmips_rtl8198c/linux-3.10.49/arch/mips/include/asm/spinlock.h" 1
	.set	push
	.set	noreorder
	.set	mips2
	sync
	.set	pop
 # 0 "" 2
	.loc 3 138 0
#NO_APP
	sh	$3,2($2)
	.loc 3 139 0
#APP
 # 139 "/home/extra_home/marklee/rtk_OpenWRT_BB/BB_v1407_branch_v25/v25_relase_source_test_0830/rtk_OpenWRT_v2.5_Branch_20160603/build_dir/target-mips_24kec_uClibc-0.9.33.2/linux-rtkmips_rtl8198c/linux-3.10.49/arch/mips/include/asm/spinlock.h" 1
	.set	push
	.set	noreorder
	.set	mips2
	sync
	.set	pop
 # 0 "" 2
#NO_APP
$LBE1517 = .
$LBE1516 = .
$LBE1515 = .
	.loc 4 153 0
$LBE1514 = .
$LBE1513 = .
$LBE1512 = .
	.loc 1 2673 0
	.set	noreorder
	.set	nomacro
	j	$L413
	lw	$31,92($sp)
	.set	macro
	.set	reorder

$L326:
	.loc 1 2677 0
	lw	$2,%lo(table_path)($3)
$LBB1518 = .
$LBB1519 = .
$LBB1520 = .
$LBB1521 = .
$LBB1522 = .
$LBB1523 = .
	.loc 3 136 0
	lhu	$3,2($2)
	addiu	$3,$3,1
	.loc 3 137 0
#APP
 # 137 "/home/extra_home/marklee/rtk_OpenWRT_BB/BB_v1407_branch_v25/v25_relase_source_test_0830/rtk_OpenWRT_v2.5_Branch_20160603/build_dir/target-mips_24kec_uClibc-0.9.33.2/linux-rtkmips_rtl8198c/linux-3.10.49/arch/mips/include/asm/spinlock.h" 1
	.set	push
	.set	noreorder
	.set	mips2
	sync
	.set	pop
 # 0 "" 2
	.loc 3 138 0
#NO_APP
	sh	$3,2($2)
	.loc 3 139 0
#APP
 # 139 "/home/extra_home/marklee/rtk_OpenWRT_BB/BB_v1407_branch_v25/v25_relase_source_test_0830/rtk_OpenWRT_v2.5_Branch_20160603/build_dir/target-mips_24kec_uClibc-0.9.33.2/linux-rtkmips_rtl8198c/linux-3.10.49/arch/mips/include/asm/spinlock.h" 1
	.set	push
	.set	noreorder
	.set	mips2
	sync
	.set	pop
 # 0 "" 2
#NO_APP
$LBE1523 = .
$LBE1522 = .
$LBE1521 = .
	.loc 4 153 0
$LBE1520 = .
$LBE1519 = .
$LBE1518 = .
	.loc 1 2679 0
	lui	$2,%hi(statistic_fastpath)
	lw	$3,%lo(statistic_fastpath)($2)
	.loc 1 2680 0
	move	$4,$19
	.loc 1 2682 0
	li	$18,1			# 0x1
	.loc 1 2679 0
	addiu	$3,$3,1
	.loc 1 2680 0
	.set	noreorder
	.set	nomacro
	jal	ip_finish_output3
	sw	$3,%lo(statistic_fastpath)($2)
	.set	macro
	.set	reorder

	.loc 1 2682 0
	.set	noreorder
	.set	nomacro
	j	$L413
	lw	$31,92($sp)
	.set	macro
	.set	reorder

$L255:
$LBE1535 = .
	.loc 1 2363 0
	lw	$17,64($17)
$L254:
	.loc 1 2363 0 is_stmt 0 discriminator 1
	bne	$17,$0,$L327
$LBB1536 = .
$LBB1537 = .
$LBB1538 = .
$LBB1539 = .
$LBB1540 = .
$LBB1541 = .
	.loc 3 136 0 is_stmt 1
	lhu	$2,2($3)
	addiu	$2,$2,1
	.loc 3 137 0
#APP
 # 137 "/home/extra_home/marklee/rtk_OpenWRT_BB/BB_v1407_branch_v25/v25_relase_source_test_0830/rtk_OpenWRT_v2.5_Branch_20160603/build_dir/target-mips_24kec_uClibc-0.9.33.2/linux-rtkmips_rtl8198c/linux-3.10.49/arch/mips/include/asm/spinlock.h" 1
	.set	push
	.set	noreorder
	.set	mips2
	sync
	.set	pop
 # 0 "" 2
	.loc 3 138 0
#NO_APP
	sh	$2,2($3)
	.loc 3 139 0
#APP
 # 139 "/home/extra_home/marklee/rtk_OpenWRT_BB/BB_v1407_branch_v25/v25_relase_source_test_0830/rtk_OpenWRT_v2.5_Branch_20160603/build_dir/target-mips_24kec_uClibc-0.9.33.2/linux-rtkmips_rtl8198c/linux-3.10.49/arch/mips/include/asm/spinlock.h" 1
	.set	push
	.set	noreorder
	.set	mips2
	sync
	.set	pop
 # 0 "" 2
#NO_APP
$LBE1541 = .
$LBE1540 = .
$LBE1539 = .
	.loc 4 153 0
$LBE1538 = .
$LBE1537 = .
$LBE1536 = .
	.loc 1 2691 0
	.set	noreorder
	.set	nomacro
	jal	rtl_set_skb_inDev
	move	$4,$19
	.set	macro
	.set	reorder

	.loc 1 2695 0
	lw	$31,92($sp)
	lw	$fp,88($sp)
	lw	$23,84($sp)
	lw	$21,76($sp)
	lw	$20,72($sp)
	lw	$18,64($sp)
	lw	$17,60($sp)
	.loc 1 2694 0
	move	$4,$16
	move	$5,$22
	.loc 1 2695 0
	lw	$16,56($sp)
	lw	$22,80($sp)
	.loc 1 2694 0
	move	$6,$19
	.loc 1 2695 0
	lw	$19,68($sp)
	.cfi_remember_state
	.cfi_restore 16
	.cfi_restore 17
	.cfi_restore 18
	.cfi_restore 19
	.cfi_restore 20
	.cfi_restore 21
	.cfi_restore 22
	.cfi_restore 23
	.cfi_restore 30
	.cfi_restore 31
	.loc 1 2694 0
	.set	noreorder
	.set	nomacro
	j	fast_path_post_process_return_check
	addiu	$sp,$sp,96
	.set	macro
	.set	reorder

	.cfi_def_cfa_offset 0
$L230:
	.cfi_restore_state
	.loc 1 2277 0
	lw	$4,12($22)
$L412:
	ext	$5,$4,16,1
	.set	noreorder
	.set	nomacro
	beq	$5,$0,$L403
	lw	$5,20($sp)
	.set	macro
	.set	reorder

	.loc 1 728 0
	.set	noreorder
	.set	nomacro
	j	$L411
	lw	$6,16($sp)
	.set	macro
	.set	reorder

$L378:
	.loc 1 2695 0
	lw	$31,92($sp)
$L413:
	move	$2,$18
	lw	$fp,88($sp)
	lw	$23,84($sp)
	lw	$22,80($sp)
	lw	$21,76($sp)
	lw	$20,72($sp)
	lw	$19,68($sp)
	lw	$18,64($sp)
	lw	$17,60($sp)
	lw	$16,56($sp)
	.set	noreorder
	.set	nomacro
	j	$31
	addiu	$sp,$sp,96
	.set	macro
	.set	reorder

	.cfi_def_cfa_offset 0
	.cfi_restore 16
	.cfi_restore 17
	.cfi_restore 18
	.cfi_restore 19
	.cfi_restore 20
	.cfi_restore 21
	.cfi_restore 22
	.cfi_restore 23
	.cfi_restore 30
	.cfi_restore 31
	.end	enter_fast_path
	.cfi_endproc
$LFE3279:
	.size	enter_fast_path, .-enter_fast_path
	.section	.rodata.str1.4
	.align	2
$LC7:
	.ascii	"napt num: %d, path num: %d.\012\000"
	.text
	.align	2
	.globl	fastpath_dump_napt_entry_num
$LFB3288 = .
	.loc 1 2986 0
	.cfi_startproc
	.set	nomips16
	.ent	fastpath_dump_napt_entry_num
	.type	fastpath_dump_napt_entry_num, @function
fastpath_dump_napt_entry_num:
	.frame	$sp,24,$31		# vars= 0, regs= 2/0, args= 16, gp= 0
	.mask	0x80010000,-4
	.fmask	0x00000000,0
	.set	noreorder
	.set	nomacro
	addiu	$sp,$sp,-24
	.cfi_def_cfa_offset 24
	.loc 1 2995 0
	lui	$2,%hi(path_list_inuse)
	lw	$3,%lo(path_list_inuse)($2)
	.loc 1 2986 0
	sw	$16,16($sp)
	sw	$31,20($sp)
	.cfi_offset 16, -8
	.cfi_offset 31, -4
	.loc 1 2986 0
	move	$16,$5
	.loc 1 2995 0
	j	$L418
	move	$7,$0

$L419:
	.loc 1 2995 0 is_stmt 0 discriminator 2
	lw	$3,72($3)
	.loc 1 2996 0 is_stmt 1 discriminator 2
	addiu	$7,$7,1
$L418:
	.loc 1 2995 0 discriminator 1
	bne	$3,$0,$L419
	lui	$2,%hi(napt_list_inuse)

	.loc 1 3001 0
	lw	$3,%lo(napt_list_inuse)($2)
	j	$L420
	move	$6,$0

$L421:
	.loc 1 3001 0 is_stmt 0 discriminator 2
	lw	$3,44($3)
	.loc 1 3002 0 is_stmt 1 discriminator 2
	addiu	$6,$6,1
$L420:
	.loc 1 3001 0 discriminator 1
	bne	$3,$0,$L421
	lui	$5,%hi($LC7)

	.loc 1 3005 0
	addu	$4,$4,$16
	jal	sprintf
	addiu	$5,$5,%lo($LC7)

	.loc 1 3011 0
	lw	$31,20($sp)
	addu	$2,$2,$16
	lw	$16,16($sp)
	j	$31
	addiu	$sp,$sp,24

	.cfi_def_cfa_offset 0
	.cfi_restore 16
	.cfi_restore 31
	.set	macro
	.set	reorder
	.end	fastpath_dump_napt_entry_num
	.cfi_endproc
$LFE3288:
	.size	fastpath_dump_napt_entry_num, .-fastpath_dump_napt_entry_num
	.section	.rodata.str1.4
	.align	2
$LC8:
	.ascii	"fp_napt\000"
	.align	2
$LC9:
	.ascii	"fp_path\000"
	.text
	.align	2
	.globl	init_fastpath_debug_proc
$LFB3289 = .
	.loc 1 3054 0
	.cfi_startproc
	.set	nomips16
	.ent	init_fastpath_debug_proc
	.type	init_fastpath_debug_proc, @function
init_fastpath_debug_proc:
	.frame	$sp,32,$31		# vars= 0, regs= 2/0, args= 24, gp= 0
	.mask	0x80010000,-4
	.fmask	0x00000000,0
	.set	noreorder
	.set	nomacro
	addiu	$sp,$sp,-32
	.cfi_def_cfa_offset 32
	.loc 1 3065 0
	lui	$4,%hi($LC8)
	lui	$7,%hi(fastpath_napt_proc_fops)
	.loc 1 3054 0
	sw	$16,24($sp)
	.cfi_offset 16, -8
	.loc 1 3065 0
	lui	$16,%hi(proc_root)
	addiu	$6,$16,%lo(proc_root)
	addiu	$4,$4,%lo($LC8)
	move	$5,$0
	sw	$0,16($sp)
	.loc 1 3054 0
	sw	$31,28($sp)
	.cfi_offset 31, -4
	.loc 1 3065 0
	jal	proc_create_data
	addiu	$7,$7,%lo(fastpath_napt_proc_fops)

	.loc 1 3068 0
	lui	$4,%hi($LC9)
	lui	$7,%hi(fastpath_path_proc_fops)
	.loc 1 3065 0
	lui	$3,%hi(fp_napt)
	.loc 1 3068 0
	sw	$0,16($sp)
	addiu	$6,$16,%lo(proc_root)
	addiu	$4,$4,%lo($LC9)
	move	$5,$0
	addiu	$7,$7,%lo(fastpath_path_proc_fops)
	jal	proc_create_data
	sw	$2,%lo(fp_napt)($3)

	.loc 1 3101 0
	lw	$31,28($sp)
	.loc 1 3068 0
	lui	$3,%hi(fp_path)
	.loc 1 3101 0
	lw	$16,24($sp)
	.loc 1 3068 0
	sw	$2,%lo(fp_path)($3)
	.loc 1 3101 0
	j	$31
	addiu	$sp,$sp,32

	.cfi_def_cfa_offset 0
	.cfi_restore 16
	.cfi_restore 31
	.set	macro
	.set	reorder
	.end	init_fastpath_debug_proc
	.cfi_endproc
$LFE3289:
	.size	init_fastpath_debug_proc, .-init_fastpath_debug_proc
	.align	2
	.globl	remove_fastpath_debug_proc
$LFB3290 = .
	.loc 1 3104 0
	.cfi_startproc
	.set	nomips16
	.ent	remove_fastpath_debug_proc
	.type	remove_fastpath_debug_proc, @function
remove_fastpath_debug_proc:
	.frame	$sp,24,$31		# vars= 0, regs= 2/0, args= 16, gp= 0
	.mask	0x80010000,-4
	.fmask	0x00000000,0
	.set	noreorder
	.set	nomacro
	addiu	$sp,$sp,-24
	.cfi_def_cfa_offset 24
	sw	$16,16($sp)
	.cfi_offset 16, -8
	.loc 1 3130 0
	lui	$16,%hi(fp_napt)
	lw	$2,%lo(fp_napt)($16)
	.loc 1 3130 0
	beq	$2,$0,$L426
	sw	$31,20($sp)

	.cfi_offset 31, -4
	.loc 1 3133 0
	lui	$4,%hi($LC8)
	lui	$5,%hi(proc_root)
	addiu	$4,$4,%lo($LC8)
	jal	remove_proc_entry
	addiu	$5,$5,%lo(proc_root)

	.loc 1 3137 0
	sw	$0,%lo(fp_napt)($16)
$L426:
	.loc 1 3141 0
	lui	$16,%hi(fp_path)
	lw	$2,%lo(fp_path)($16)
	beq	$2,$0,$L425
	lui	$4,%hi($LC9)

	.loc 1 3144 0
	lui	$5,%hi(proc_root)
	addiu	$4,$4,%lo($LC9)
	jal	remove_proc_entry
	addiu	$5,$5,%lo(proc_root)

	.loc 1 3148 0
	sw	$0,%lo(fp_path)($16)
$L425:
	.loc 1 3150 0
	lw	$31,20($sp)
	lw	$16,16($sp)
	j	$31
	addiu	$sp,$sp,24

	.cfi_def_cfa_offset 0
	.cfi_restore 16
	.cfi_restore 31
	.set	macro
	.set	reorder
	.end	remove_fastpath_debug_proc
	.cfi_endproc
$LFE3290:
	.size	remove_fastpath_debug_proc, .-remove_fastpath_debug_proc
	.align	2
	.globl	init_table_napt
$LFB3291 = .
	.loc 1 3227 0
	.cfi_startproc
	.set	nomips16
	.ent	init_table_napt
	.type	init_table_napt, @function
init_table_napt:
	.frame	$sp,48,$31		# vars= 0, regs= 7/0, args= 16, gp= 0
	.mask	0x803f0000,-4
	.fmask	0x00000000,0
	.set	noreorder
	.set	nomacro
	addiu	$sp,$sp,-48
	.cfi_def_cfa_offset 48
	sw	$18,28($sp)
	.cfi_offset 18, -20
$LBB1542 = .
$LBB1543 = .
	.loc 5 170 0
	lui	$18,%hi(kmalloc_caches)
	addiu	$18,$18,%lo(kmalloc_caches)
$LBE1543 = .
$LBE1542 = .
	.loc 1 3227 0
	sw	$17,24($sp)
	.cfi_offset 17, -24
	move	$17,$4
$LBB1553 = .
$LBB1550 = .
$LBB1544 = .
$LBB1545 = .
	.loc 5 142 0
	lw	$4,28($18)
$LBE1545 = .
$LBE1544 = .
$LBE1550 = .
$LBE1553 = .
	.loc 1 3227 0
	sw	$19,32($sp)
	.cfi_offset 19, -16
	move	$19,$5
$LBB1554 = .
$LBB1551 = .
$LBB1548 = .
$LBB1546 = .
	.loc 5 142 0
	li	$5,32			# 0x20
$LBE1546 = .
$LBE1548 = .
$LBE1551 = .
$LBE1554 = .
	.loc 1 3227 0
	sw	$21,40($sp)
	sw	$20,36($sp)
	sw	$31,44($sp)
	sw	$16,20($sp)
	.cfi_offset 21, -8
	.cfi_offset 20, -12
	.cfi_offset 31, -4
	.cfi_offset 16, -28
$LBB1555 = .
$LBB1552 = .
$LBB1549 = .
$LBB1547 = .
	.loc 5 142 0
	jal	kmem_cache_alloc
	lui	$20,%hi(table_napt)

	move	$21,$2
$LBE1547 = .
$LBE1549 = .
$LBE1552 = .
$LBE1555 = .
	.loc 1 3231 0
	bne	$2,$0,$L436
	sw	$2,%lo(table_napt)($20)

$L438:
	.loc 1 3233 0
	j	$L437
	li	$2,-1			# 0xffffffffffffffff

$L436:
	.loc 1 3235 0
	lui	$6,%hi(napt_list_inuse)
	.loc 1 3236 0
	lui	$3,%hi(napt_list_free)
	.loc 1 3235 0
	addiu	$2,$6,%lo(napt_list_inuse)
	.loc 1 3239 0
	sll	$5,$17,4
	sll	$4,$17,2
	.loc 1 3236 0
	addiu	$16,$3,%lo(napt_list_free)
$LBB1556 = .
$LBB1557 = .
	.loc 5 174 0
	subu	$4,$5,$4
$LBE1557 = .
$LBE1556 = .
	.loc 1 3235 0
	sw	$0,8($2)
	sw	$2,4($2)
$LBB1560 = .
$LBB1558 = .
	.loc 5 174 0
	li	$5,32			# 0x20
$LBE1558 = .
$LBE1560 = .
	.loc 1 3238 0
	lui	$2,%hi(napt_table_list_max)
	.loc 1 3236 0
	sw	$0,%lo(napt_list_free)($3)
	.loc 1 3235 0
	sw	$0,%lo(napt_list_inuse)($6)
	.loc 1 3236 0
	sw	$0,8($16)
	sw	$16,4($16)
$LBB1561 = .
$LBB1559 = .
	.loc 5 174 0
	jal	__kmalloc
	sw	$17,%lo(napt_table_list_max)($2)

$LBE1559 = .
$LBE1561 = .
	.loc 1 3240 0
	lw	$3,%lo(table_napt)($20)
	.loc 1 3239 0
	sw	$2,4($21)
	.loc 1 3240 0
	lw	$2,4($3)
	beq	$2,$0,$L438
	move	$6,$0

	j	$L439
	move	$2,$0

$L440:
	.loc 1 3245 0 discriminator 2
	lw	$4,4($3)
	.loc 1 3244 0 discriminator 2
	addiu	$6,$6,1
	.loc 1 3245 0 discriminator 2
	addu	$4,$4,$2
	sw	$0,8($4)
	lw	$4,4($3)
	addu	$4,$4,$2
	sw	$0,0($4)
	lw	$5,4($3)
	addu	$5,$5,$2
	sw	$5,4($5)
	addiu	$2,$2,12
$L439:
	.loc 1 3244 0 discriminator 1
	slt	$4,$6,$17
	bne	$4,$0,$L440
	nop

	.loc 1 3244 0 is_stmt 0
	j	$L441
	move	$17,$0

$L442:
$LBB1562 = .
$LBB1563 = .
$LBB1564 = .
$LBB1565 = .
$LBB1566 = .
	.loc 5 142 0 is_stmt 1
	lw	$4,28($18)
	jal	kmem_cache_alloc
	addiu	$17,$17,1

$LBE1566 = .
$LBE1565 = .
$LBE1564 = .
$LBE1563 = .
	.loc 1 3251 0
	beq	$2,$0,$L443
	addiu	$4,$2,44

	.loc 1 3255 0
	lw	$3,4($16)
	sw	$0,44($2)
	sw	$3,48($2)
	sw	$2,0($3)
	lw	$2,8($16)
	sw	$4,4($16)
	addiu	$2,$2,1
	sw	$2,8($16)
$L441:
$LBE1562 = .
	.loc 1 3248 0 discriminator 1
	slt	$2,$17,$19
	bne	$2,$0,$L442
	li	$5,32			# 0x20

	.loc 1 3259 0
	lw	$3,%lo(table_napt)($20)
	.loc 1 3261 0
	move	$2,$0
	j	$L437
	sw	$0,0($3)

$L443:
$LBB1567 = .
	.loc 1 3253 0
	li	$2,-2			# 0xfffffffffffffffe
$L437:
$LBE1567 = .
	.loc 1 3263 0
	lw	$31,44($sp)
	lw	$21,40($sp)
	lw	$20,36($sp)
	lw	$19,32($sp)
	lw	$18,28($sp)
	lw	$17,24($sp)
	lw	$16,20($sp)
	j	$31
	addiu	$sp,$sp,48

	.cfi_def_cfa_offset 0
	.cfi_restore 16
	.cfi_restore 17
	.cfi_restore 18
	.cfi_restore 19
	.cfi_restore 20
	.cfi_restore 21
	.cfi_restore 31
	.set	macro
	.set	reorder
	.end	init_table_napt
	.cfi_endproc
$LFE3291:
	.size	init_table_napt, .-init_table_napt
	.align	2
	.globl	init_table_path
$LFB3292 = .
	.loc 1 3267 0
	.cfi_startproc
	.set	nomips16
	.ent	init_table_path
	.type	init_table_path, @function
init_table_path:
	.frame	$sp,48,$31		# vars= 0, regs= 7/0, args= 16, gp= 0
	.mask	0x803f0000,-4
	.fmask	0x00000000,0
	.set	noreorder
	.set	nomacro
	addiu	$sp,$sp,-48
	.cfi_def_cfa_offset 48
	sw	$19,32($sp)
	.cfi_offset 19, -16
$LBB1568 = .
$LBB1569 = .
	.loc 5 170 0
	lui	$19,%hi(kmalloc_caches)
	addiu	$19,$19,%lo(kmalloc_caches)
$LBE1569 = .
$LBE1568 = .
	.loc 1 3267 0
	sw	$17,24($sp)
	.cfi_offset 17, -24
	move	$17,$4
$LBB1579 = .
$LBB1576 = .
$LBB1570 = .
$LBB1571 = .
	.loc 5 142 0
	lw	$4,28($19)
$LBE1571 = .
$LBE1570 = .
$LBE1576 = .
$LBE1579 = .
	.loc 1 3267 0
	sw	$20,36($sp)
	.cfi_offset 20, -12
	move	$20,$5
$LBB1580 = .
$LBB1577 = .
$LBB1574 = .
$LBB1572 = .
	.loc 5 142 0
	li	$5,32			# 0x20
$LBE1572 = .
$LBE1574 = .
$LBE1577 = .
$LBE1580 = .
	.loc 1 3267 0
	sw	$21,40($sp)
	sw	$18,28($sp)
	sw	$31,44($sp)
	sw	$16,20($sp)
	.cfi_offset 21, -8
	.cfi_offset 18, -20
	.cfi_offset 31, -4
	.cfi_offset 16, -28
$LBB1581 = .
$LBB1578 = .
$LBB1575 = .
$LBB1573 = .
	.loc 5 142 0
	jal	kmem_cache_alloc
	lui	$18,%hi(table_path)

	move	$21,$2
$LBE1573 = .
$LBE1575 = .
$LBE1578 = .
$LBE1581 = .
	.loc 1 3271 0
	bne	$2,$0,$L449
	sw	$2,%lo(table_path)($18)

$L451:
	.loc 1 3273 0
	j	$L450
	li	$2,-1			# 0xffffffffffffffff

$L449:
	.loc 1 3275 0
	lui	$6,%hi(path_list_inuse)
	.loc 1 3276 0
	lui	$3,%hi(path_list_free)
	.loc 1 3275 0
	addiu	$2,$6,%lo(path_list_inuse)
	.loc 1 3279 0
	sll	$5,$17,4
	sll	$4,$17,2
	.loc 1 3276 0
	addiu	$16,$3,%lo(path_list_free)
$LBB1582 = .
$LBB1583 = .
	.loc 5 174 0
	subu	$4,$5,$4
$LBE1583 = .
$LBE1582 = .
	.loc 1 3275 0
	sw	$0,8($2)
	sw	$2,4($2)
$LBB1586 = .
$LBB1584 = .
	.loc 5 174 0
	li	$5,32			# 0x20
$LBE1584 = .
$LBE1586 = .
	.loc 1 3278 0
	lui	$2,%hi(path_table_list_max)
	.loc 1 3276 0
	sw	$0,%lo(path_list_free)($3)
	.loc 1 3275 0
	sw	$0,%lo(path_list_inuse)($6)
	.loc 1 3276 0
	sw	$0,8($16)
	sw	$16,4($16)
$LBB1587 = .
$LBB1585 = .
	.loc 5 174 0
	jal	__kmalloc
	sw	$17,%lo(path_table_list_max)($2)

$LBE1585 = .
$LBE1587 = .
	.loc 1 3280 0
	lw	$3,%lo(table_path)($18)
	.loc 1 3279 0
	sw	$2,4($21)
	.loc 1 3280 0
	lw	$2,4($3)
	beq	$2,$0,$L451
	move	$3,$0

	j	$L452
	move	$2,$0

$L453:
	.loc 1 3285 0 discriminator 2
	lw	$5,%lo(table_path)($18)
	lw	$4,4($5)
	addu	$4,$4,$2
	sw	$0,8($4)
	lw	$4,4($5)
	addu	$4,$4,$2
	sw	$0,0($4)
	lw	$4,%lo(table_path)($18)
	lw	$5,4($4)
	addu	$5,$5,$2
	sw	$5,4($5)
	addiu	$2,$2,12
$L452:
	.loc 1 3284 0 discriminator 1
	slt	$4,$3,$17
	bne	$4,$0,$L453
	addiu	$3,$3,1

	.loc 1 3284 0 is_stmt 0
	j	$L454
	move	$17,$0

$L455:
$LBB1588 = .
$LBB1589 = .
$LBB1590 = .
$LBB1591 = .
$LBB1592 = .
	.loc 5 142 0 is_stmt 1
	lw	$4,28($19)
	jal	kmem_cache_alloc
	addiu	$17,$17,1

$LBE1592 = .
$LBE1591 = .
$LBE1590 = .
$LBE1589 = .
	.loc 1 3291 0
	beq	$2,$0,$L456
	addiu	$4,$2,72

	.loc 1 3295 0
	lw	$3,4($16)
	sw	$0,72($2)
	sw	$3,76($2)
	sw	$2,0($3)
	lw	$2,8($16)
	sw	$4,4($16)
	addiu	$2,$2,1
	sw	$2,8($16)
$L454:
$LBE1588 = .
	.loc 1 3289 0 discriminator 1
	slt	$2,$17,$20
	bne	$2,$0,$L455
	li	$5,32			# 0x20

	.loc 1 3299 0
	lw	$3,%lo(table_path)($18)
	.loc 1 3301 0
	move	$2,$0
	j	$L450
	sw	$0,0($3)

$L456:
$LBB1593 = .
	.loc 1 3293 0
	li	$2,-2			# 0xfffffffffffffffe
$L450:
$LBE1593 = .
	.loc 1 3302 0
	lw	$31,44($sp)
	lw	$21,40($sp)
	lw	$20,36($sp)
	lw	$19,32($sp)
	lw	$18,28($sp)
	lw	$17,24($sp)
	lw	$16,20($sp)
	j	$31
	addiu	$sp,$sp,48

	.cfi_def_cfa_offset 0
	.cfi_restore 16
	.cfi_restore 17
	.cfi_restore 18
	.cfi_restore 19
	.cfi_restore 20
	.cfi_restore 21
	.cfi_restore 31
	.set	macro
	.set	reorder
	.end	init_table_path
	.cfi_endproc
$LFE3292:
	.size	init_table_path, .-init_table_path
	.section	.rodata.str1.4
	.align	2
$LC10:
	.ascii	"%s:%s\012\000"
	.align	2
$LC11:
	.ascii	"Realtek FastPath\000"
	.align	2
$LC12:
	.ascii	"v1.03\000"
	.text
	.align	2
	.globl	get_fastpath_module_info
$LFB3293 = .
	.loc 1 3305 0
	.cfi_startproc
	.set	nomips16
	.ent	get_fastpath_module_info
	.type	get_fastpath_module_info, @function
get_fastpath_module_info:
	.frame	$sp,0,$31		# vars= 0, regs= 0/0, args= 0, gp= 0
	.mask	0x00000000,0
	.fmask	0x00000000,0
	.set	noreorder
	.set	nomacro
	.loc 1 3306 0
	beq	$4,$0,$L463
	lui	$5,%hi($LC10)

	.loc 1 3310 0
	lui	$6,%hi($LC11)
	lui	$7,%hi($LC12)
	addiu	$5,$5,%lo($LC10)
	addiu	$6,$6,%lo($LC11)
	j	sprintf
	addiu	$7,$7,%lo($LC12)

$L463:
	j	$31
	nop

	.set	macro
	.set	reorder
	.end	get_fastpath_module_info
	.cfi_endproc
$LFE3293:
	.size	get_fastpath_module_info, .-get_fastpath_module_info
	.globl	fastpath_path_proc_fops
	.data
	.align	2
	.type	fastpath_path_proc_fops, @object
	.size	fastpath_path_proc_fops, 108
fastpath_path_proc_fops:
	.space	4
	.word	seq_lseek
	.word	seq_read
	.word	fastpath_path_single_write
	.space	28
	.word	fastpath_path_single_open
	.space	4
	.word	single_release
	.space	52
	.globl	fastpath_napt_proc_fops
	.align	2
	.type	fastpath_napt_proc_fops, @object
	.size	fastpath_napt_proc_fops, 108
fastpath_napt_proc_fops:
	.space	4
	.word	seq_lseek
	.word	seq_read
	.word	fastpath_napt_single_write
	.space	28
	.word	fastpath_napt_single_open
	.space	4
	.word	single_release
	.space	52
	.globl	negative_cache_table
	.section	.bss,"aw",@nobits
	.align	2
	.type	negative_cache_table, @object
	.size	negative_cache_table, 4
negative_cache_table:
	.space	4
	.globl	negative_cache_list_free
	.align	2
	.type	negative_cache_list_free, @object
	.size	negative_cache_list_free, 12
negative_cache_list_free:
	.space	12
	.local	max_udp_frag_entry
	.comm	max_udp_frag_entry,4,4
	.globl	udp_cache_table
	.align	2
	.type	udp_cache_table, @object
	.size	udp_cache_table, 4
udp_cache_table:
	.space	4
	.globl	udp_cache_list_free
	.align	2
	.type	udp_cache_list_free, @object
	.size	udp_cache_list_free, 12
udp_cache_list_free:
	.space	12
	.globl	fp_napt
	.align	2
	.type	fp_napt, @object
	.size	fp_napt, 4
fp_napt:
	.space	4
	.globl	fp_route
	.align	2
	.type	fp_route, @object
	.size	fp_route, 4
fp_route:
	.space	4
	.globl	fp_path
	.align	2
	.type	fp_path, @object
	.size	fp_path, 4
fp_path:
	.space	4
	.globl	fp_arp
	.align	2
	.type	fp_arp, @object
	.size	fp_arp, 4
fp_arp:
	.space	4
	.local	path_table_list_max
	.comm	path_table_list_max,4,4
	.globl	table_path
	.align	2
	.type	table_path, @object
	.size	table_path, 4
table_path:
	.space	4
	.globl	path_list_free
	.align	2
	.type	path_list_free, @object
	.size	path_list_free, 12
path_list_free:
	.space	12
	.globl	path_list_inuse
	.align	2
	.type	path_list_inuse, @object
	.size	path_list_inuse, 12
path_list_inuse:
	.space	12
	.local	napt_table_list_max
	.comm	napt_table_list_max,4,4
	.local	table_napt
	.comm	table_napt,4,4
	.globl	napt_list_free
	.align	2
	.type	napt_list_free, @object
	.size	napt_list_free, 12
napt_list_free:
	.space	12
	.globl	napt_list_inuse
	.align	2
	.type	napt_list_inuse, @object
	.size	napt_list_inuse, 12
napt_list_inuse:
	.space	12
	.globl	route_list_free
	.align	2
	.type	route_list_free, @object
	.size	route_list_free, 12
route_list_free:
	.space	12
	.globl	route_list_inuse
	.align	2
	.type	route_list_inuse, @object
	.size	route_list_inuse, 12
route_list_inuse:
	.space	12
	.text
$Letext0:
	.file 10 "include/uapi/asm-generic/int-ll64.h"
	.file 11 "include/asm-generic/int-ll64.h"
	.file 12 "/home/extra_home/marklee/rtk_OpenWRT_BB/BB_v1407_branch_v25/v25_relase_source_test_0830/rtk_OpenWRT_v2.5_Branch_20160603/build_dir/target-mips_24kec_uClibc-0.9.33.2/linux-rtkmips_rtl8198c/linux-3.10.49/include/uapi/asm-generic/posix_types.h"
	.file 13 "include/uapi/linux/types.h"
	.file 14 "include/linux/types.h"
	.file 15 "/home/extra_home/marklee/rtk_OpenWRT_BB/BB_v1407_branch_v25/v25_relase_source_test_0830/rtk_OpenWRT_v2.5_Branch_20160603/build_dir/target-mips_24kec_uClibc-0.9.33.2/linux-rtkmips_rtl8198c/linux-3.10.49/arch/mips/include/asm/spinlock_types.h"
	.file 16 "include/linux/spinlock_types.h"
	.file 17 "include/asm-generic/atomic-long.h"
	.file 18 "/home/extra_home/marklee/rtk_OpenWRT_BB/BB_v1407_branch_v25/v25_relase_source_test_0830/rtk_OpenWRT_v2.5_Branch_20160603/build_dir/target-mips_24kec_uClibc-0.9.33.2/linux-rtkmips_rtl8198c/linux-3.10.49/arch/mips/include/asm/page.h"
	.file 19 "include/linux/seqlock.h"
	.file 20 "include/uapi/linux/netfilter.h"
	.file 21 "include/uapi/linux/netfilter/nf_conntrack_tcp.h"
	.file 22 "include/net/netns/conntrack.h"
	.file 23 "include/uapi/linux/netfilter/nf_conntrack_common.h"
	.file 24 "/home/extra_home/marklee/rtk_OpenWRT_BB/BB_v1407_branch_v25/v25_relase_source_test_0830/rtk_OpenWRT_v2.5_Branch_20160603/build_dir/target-mips_24kec_uClibc-0.9.33.2/linux-rtkmips_rtl8198c/linux-3.10.49/include/uapi/linux/netfilter/nf_conntrack_tuple_common.h"
	.file 25 "include/net/rtl/rtl_types.h"
	.file 26 "include/net/rtl/fastpath/fastpath_core.h"
	.file 27 "include/linux/kmemleak.h"
	.file 28 "/home/extra_home/marklee/rtk_OpenWRT_BB/BB_v1407_branch_v25/v25_relase_source_test_0830/rtk_OpenWRT_v2.5_Branch_20160603/build_dir/target-mips_24kec_uClibc-0.9.33.2/linux-rtkmips_rtl8198c/linux-3.10.49/arch/mips/include/asm/bitops.h"
	.file 29 "include/linux/log2.h"
	.file 30 "include/asm-generic/getorder.h"
	.file 31 "include/linux/slab.h"
	.file 32 "/home/extra_home/marklee/rtk_OpenWRT_BB/BB_v1407_branch_v25/v25_relase_source_test_0830/rtk_OpenWRT_v2.5_Branch_20160603/build_dir/target-mips_24kec_uClibc-0.9.33.2/linux-rtkmips_rtl8198c/linux-3.10.49/arch/mips/include/asm/thread_info.h"
	.file 33 "include/net/inet_frag.h"
	.file 34 "include/linux/etherdevice.h"
	.file 35 "include/linux/export.h"
	.file 36 "/home/extra_home/marklee/rtk_OpenWRT_BB/BB_v1407_branch_v25/v25_relase_source_test_0830/rtk_OpenWRT_v2.5_Branch_20160603/build_dir/target-mips_24kec_uClibc-0.9.33.2/linux-rtkmips_rtl8198c/linux-3.10.49/arch/mips/include/asm/cpu-info.h"
	.file 37 "include/linux/printk.h"
	.file 38 "include/linux/kernel.h"
	.file 39 "include/linux/cpumask.h"
	.file 40 "/home/extra_home/marklee/rtk_OpenWRT_BB/BB_v1407_branch_v25/v25_relase_source_test_0830/rtk_OpenWRT_v2.5_Branch_20160603/build_dir/target-mips_24kec_uClibc-0.9.33.2/linux-rtkmips_rtl8198c/linux-3.10.49/arch/mips/include/asm/io.h"
	.file 41 "include/linux/mm.h"
	.file 42 "include/linux/time.h"
	.file 43 "include/linux/mmzone.h"
	.file 44 "include/linux/jiffies.h"
	.file 45 "include/linux/workqueue.h"
	.file 46 "/home/extra_home/marklee/rtk_OpenWRT_BB/BB_v1407_branch_v25/v25_relase_source_test_0830/rtk_OpenWRT_v2.5_Branch_20160603/build_dir/target-mips_24kec_uClibc-0.9.33.2/linux-rtkmips_rtl8198c/linux-3.10.49/arch/mips/include/asm/smp.h"
	.file 47 "/home/extra_home/marklee/rtk_OpenWRT_BB/BB_v1407_branch_v25/v25_relase_source_test_0830/rtk_OpenWRT_v2.5_Branch_20160603/build_dir/target-mips_24kec_uClibc-0.9.33.2/linux-rtkmips_rtl8198c/linux-3.10.49/arch/mips/include/asm/smp-ops.h"
	.file 48 "include/asm-generic/percpu.h"
	.file 49 "include/linux/ioport.h"
	.file 50 "include/linux/highuid.h"
	.file 51 "include/linux/cred.h"
	.file 52 "include/linux/debug_locks.h"
	.file 53 "/home/extra_home/marklee/rtk_OpenWRT_BB/BB_v1407_branch_v25/v25_relase_source_test_0830/rtk_OpenWRT_v2.5_Branch_20160603/build_dir/target-mips_24kec_uClibc-0.9.33.2/linux-rtkmips_rtl8198c/linux-3.10.49/arch/mips/include/asm/pgtable-32.h"
	.file 54 "/home/extra_home/marklee/rtk_OpenWRT_BB/BB_v1407_branch_v25/v25_relase_source_test_0830/rtk_OpenWRT_v2.5_Branch_20160603/build_dir/target-mips_24kec_uClibc-0.9.33.2/linux-rtkmips_rtl8198c/linux-3.10.49/arch/mips/include/asm/pgtable.h"
	.file 55 "include/asm-generic/pgtable.h"
	.file 56 "include/linux/vmstat.h"
	.file 57 "include/linux/netfilter.h"
	.file 58 "include/linux/percpu_counter.h"
	.file 59 "include/linux/sched.h"
	.file 60 "include/linux/quota.h"
	.file 61 "include/net/netfilter/nf_conntrack.h"
	.file 62 "include/linux/netfilter/x_tables.h"
	.file 63 "include/linux/interrupt.h"
	.file 64 "include/net/sock.h"
	.file 65 "include/net/inet_sock.h"
	.file 66 "include/net/inet_connection_sock.h"
	.file 67 "include/net/rtl/features/rtl_features.h"
	.file 68 "include/net/ndisc.h"
	.file 69 "include/net/route.h"
	.file 70 "include/net/sch_generic.h"
	.file 71 "include/net/netfilter/nf_conntrack_l3proto.h"
	.file 72 "include/uapi/linux/in.h"
	.file 73 "/home/extra_home/marklee/rtk_OpenWRT_BB/BB_v1407_branch_v25/v25_relase_source_test_0830/rtk_OpenWRT_v2.5_Branch_20160603/build_dir/target-mips_24kec_uClibc-0.9.33.2/linux-rtkmips_rtl8198c/linux-3.10.49/arch/mips/include/asm/bug.h"