	.section .mdebug.abi32
	.previous
	.gnu_attribute 4, 3
	.text
$Ltext0:
	.cfi_sections	.debug_frame
	.align	2
$LFB3047 = .
	.file 1 "/home/extra_home/marklee/rtk_OpenWRT_BB/BB_v1407_branch_v25/v25_relase_source_test_0830/rtk_OpenWRT_v2.5_Branch_20160603/build_dir/target-mips_24kec_uClibc-0.9.33.2/linux-rtkmips_rtl8198c/fastpath-0.1/fast_l2tp_core.c"
	.loc 1 455 0
	.cfi_startproc
	.set	nomips16
	.ent	get_fast_l2tp_lastxmit
	.type	get_fast_l2tp_lastxmit, @function
get_fast_l2tp_lastxmit:
	.frame	$sp,0,$31		# vars= 0, regs= 0/0, args= 0, gp= 0
	.mask	0x00000000,0
	.fmask	0x00000000,0
	.set	noreorder
	.set	nomacro
	.loc 1 456 0
	lui	$3,%hi(l2tpInfo)
	addiu	$3,$3,%lo(l2tpInfo)
	lhu	$5,38($3)
	li	$4,1			# 0x1
	bne	$5,$4,$L5
	move	$2,$0

	.loc 1 457 0
	lw	$2,8($3)
$L5:
	.loc 1 459 0
	j	$31
	nop

	.set	macro
	.set	reorder
	.end	get_fast_l2tp_lastxmit
	.cfi_endproc
$LFE3047:
	.size	get_fast_l2tp_lastxmit, .-get_fast_l2tp_lastxmit
	.align	2
$LFB3048 = .
	.loc 1 464 0
	.cfi_startproc
	.set	nomips16
	.ent	check_for_fast_l2tp_to_wan
	.type	check_for_fast_l2tp_to_wan, @function
check_for_fast_l2tp_to_wan:
	.frame	$sp,24,$31		# vars= 0, regs= 2/0, args= 16, gp= 0
	.mask	0x80010000,-4
	.fmask	0x00000000,0
	.set	noreorder
	.set	nomacro
	addiu	$sp,$sp,-24
	.cfi_def_cfa_offset 24
	sw	$16,16($sp)
	sw	$31,20($sp)
	.cfi_offset 16, -8
	.cfi_offset 31, -4
	.loc 1 467 0
	jal	rtl_ip_hdr
	move	$16,$4

	.loc 1 477 0
	jal	rtl_ip_hdr
	move	$4,$16

	lw	$3,12($2)
	li	$2,-256			# 0xffffffffffffff00
	.loc 1 481 0
	lw	$31,20($sp)
	.loc 1 477 0
	and	$2,$3,$2
	li	$3,-172032000			# 0xfffffffff5bf0000
	ori	$3,$3,0xc000
	addu	$2,$2,$3
	.loc 1 481 0
	lw	$16,16($sp)
	sltu	$2,$0,$2
	j	$31
	addiu	$sp,$sp,24

	.cfi_def_cfa_offset 0
	.cfi_restore 16
	.cfi_restore 31
	.set	macro
	.set	reorder
	.end	check_for_fast_l2tp_to_wan
	.cfi_endproc
$LFE3048:
	.size	check_for_fast_l2tp_to_wan, .-check_for_fast_l2tp_to_wan
	.section	.rodata.str1.4,"aMS",@progbits,1
	.align	2
$LC0:
	.ascii	"ppp0\000"
	.align	2
$LC1:
	.ascii	"eth1\000"
	.align	2
$LC2:
	.ascii	"wlan\000"
	.text
	.align	2
	.globl	l2tp_tx_id
$LFB3045 = .
	.loc 1 104 0
	.cfi_startproc
	.set	nomips16
	.ent	l2tp_tx_id
	.type	l2tp_tx_id, @function
l2tp_tx_id:
	.frame	$sp,40,$31		# vars= 0, regs= 5/0, args= 16, gp= 0
	.mask	0x800f0000,-4
	.fmask	0x00000000,0
	.set	noreorder
	.set	nomacro
	addiu	$sp,$sp,-40
	.cfi_def_cfa_offset 40
	sw	$16,20($sp)
	.cfi_offset 16, -20
	move	$16,$4
	sw	$17,24($sp)
	sw	$31,36($sp)
	sw	$19,32($sp)
	.cfi_offset 17, -16
	.cfi_offset 31, -4
	.cfi_offset 19, -8
	.cfi_offset 18, -12
	.loc 1 114 0
	jal	rtl_get_skb_data
	sw	$18,28($sp)

	.loc 1 115 0
	move	$4,$16
	jal	rtl_ip_hdr
	move	$17,$2

	.loc 1 116 0
	beq	$2,$0,$L8
	li	$4,1701			# 0x6a5

	.loc 1 118 0
	lw	$3,0($2)
	ext	$3,$3,24,4
	sll	$3,$3,2
	addu	$3,$2,$3
	.loc 1 120 0
	lhu	$5,0($3)
	bne	$5,$4,$L44
	lw	$31,36($sp)

	.loc 1 120 0 is_stmt 0 discriminator 1
	lhu	$4,2($3)
	bne	$4,$5,$L44
	nop

	lhu	$5,8($3)
	seh	$4,$5
	bgez	$4,$L12
	addiu	$6,$3,10

	.loc 1 122 0 is_stmt 1
	andi	$5,$5,0x4000
	.loc 1 123 0
	addiu	$3,$3,12
	movn	$6,$3,$5
	.loc 1 127 0
	lhu	$3,14($6)
	.loc 1 128 0
	li	$4,4			# 0x4
	bne	$3,$4,$L15
	li	$4,11			# 0xb

	.loc 1 128 0 is_stmt 0 discriminator 1
	lui	$4,%hi(l2tpInfo)
	addiu	$4,$4,%lo(l2tpInfo)
	lhu	$3,20($4)
	lhu	$2,0($6)
	bne	$3,$2,$L45
	lw	$19,32($sp)

$LBB44 = .
	.loc 1 130 0 is_stmt 1
	move	$5,$0
	jal	memset
	li	$6,40			# 0x28

$LBE44 = .
	.loc 1 134 0
	lui	$4,%hi($LC0)
	addiu	$4,$4,%lo($LC0)
	jal	rtl865x_setNetifType
	li	$5,2			# 0x2

	.loc 1 136 0
	lui	$2,%hi(state)
	j	$L8
	sw	$0,%lo(state)($2)

$L15:
	.loc 1 139 0
	bne	$3,$4,$L18
	lui	$18,%hi(state)

$LBB45 = .
	.loc 1 149 0
	lw	$2,%lo(state)($18)
	bne	$2,$0,$L44
	lw	$31,36($sp)

	.loc 1 150 0 discriminator 1
	lui	$19,%hi(rtl865x_curOpMode)
	lw	$2,%lo(rtl865x_curOpMode)($19)
	.loc 1 149 0 discriminator 1
	bne	$2,$0,$L46
	li	$3,2			# 0x2

	.loc 1 150 0
	jal	rtl_get_skb_dev_name
	move	$4,$16

	lui	$5,%hi($LC1)
	move	$4,$2
	addiu	$5,$5,%lo($LC1)
	jal	memcmp
	li	$6,4			# 0x4

	bne	$2,$0,$L20
	lw	$2,%lo(rtl865x_curOpMode)($19)

$L21:
	.loc 1 155 0
	jal	rtl_get_skb_dev
	move	$4,$16

	lui	$3,%hi(l2tpInfo)
	sw	$2,%lo(l2tpInfo)($3)
$LBB46 = .
	.loc 1 156 0
	addiu	$3,$17,-8
	lwl	$5,0($3)
	lui	$6,%hi(l2tpInfo+24)
	addiu	$7,$6,%lo(l2tpInfo+24)
	lwr	$5,3($3)
$LBE46 = .
$LBB47 = .
	.loc 1 157 0
	addiu	$2,$17,-14
	lui	$4,%hi(l2tpInfo+30)
$LBE47 = .
$LBB48 = .
	.loc 1 156 0
	sw	$5,%lo(l2tpInfo+24)($6)
	lbu	$8,4($3)
$LBE48 = .
$LBB49 = .
	.loc 1 157 0
	addiu	$5,$4,%lo(l2tpInfo+30)
$LBE49 = .
$LBB50 = .
	.loc 1 158 0
	lui	$6,%hi(l2tpInfo+36)
$LBE50 = .
$LBB51 = .
	.loc 1 156 0
	sb	$8,4($7)
	lbu	$3,5($3)
$LBE51 = .
$LBB52 = .
	.loc 1 158 0
	addiu	$8,$6,%lo(l2tpInfo+36)
$LBE52 = .
$LBB53 = .
	.loc 1 156 0
	sb	$3,5($7)
$LBE53 = .
$LBB54 = .
	.loc 1 157 0
	lwl	$3,0($2)
	lwr	$3,3($2)
	swl	$3,%lo(l2tpInfo+30)($4)
	swr	$3,3($5)
	lbu	$3,4($2)
	sb	$3,4($5)
	lbu	$2,5($2)
$LBE54 = .
	.loc 1 160 0
	li	$3,1			# 0x1
$LBB55 = .
	.loc 1 157 0
	sb	$2,5($5)
$LBE55 = .
$LBB56 = .
	.loc 1 158 0
	lbu	$2,-2($17)
	sb	$2,%lo(l2tpInfo+36)($6)
	lbu	$2,-1($17)
$LBE56 = .
	.loc 1 160 0
	sw	$3,%lo(state)($18)
$LBE45 = .
	.loc 1 158 0
	j	$L8
	sb	$2,1($8)

$L20:
$LBB57 = .
	.loc 1 151 0
	li	$3,2			# 0x2
$L46:
	bne	$2,$3,$L44
	lw	$31,36($sp)

	.loc 1 151 0 is_stmt 0 discriminator 1
	jal	rtl_get_skb_dev_name
	move	$4,$16

	lui	$5,%hi($LC2)
	move	$4,$2
	addiu	$5,$5,%lo($LC2)
	jal	memcmp
	li	$6,4			# 0x4

	beq	$2,$0,$L21
	lw	$31,36($sp)

$LBE57 = .
	.loc 1 246 0 is_stmt 1
	j	$L45
	lw	$19,32($sp)

$L18:
	.loc 1 164 0
	li	$4,12			# 0xc
	bne	$3,$4,$L44
	lw	$31,36($sp)

	.loc 1 164 0 is_stmt 0 discriminator 1
	lhu	$3,2($6)
	beq	$3,$0,$L44
	lui	$16,%hi(state)

	.loc 1 167 0 is_stmt 1
	lw	$3,%lo(state)($16)
	sltu	$3,$3,2
	beq	$3,$0,$L45
	lw	$19,32($sp)

	.loc 1 169 0
	lhu	$3,0($6)
	lui	$17,%hi(l2tpInfo)
	addiu	$17,$17,%lo(l2tpInfo)
	sh	$3,20($17)
	.loc 1 170 0
	lhu	$3,2($6)
	sh	$3,22($17)
	.loc 1 171 0
	lw	$3,12($2)
	sw	$3,16($17)
	.loc 1 172 0
	lw	$2,16($2)
	.loc 1 174 0
	move	$4,$2
	jal	filter_addconnect
	sw	$2,12($17)

	.loc 1 179 0
	lui	$4,%hi($LC0)
	.loc 1 176 0
	li	$2,1			# 0x1
	.loc 1 179 0
	addiu	$4,$4,%lo($LC0)
	li	$5,4			# 0x4
	jal	rtl865x_setNetifType
	sh	$2,38($17)

	.loc 1 182 0
	li	$2,2			# 0x2
	j	$L8
	sw	$2,%lo(state)($16)

$L43:
	.loc 1 199 0
	jal	filter_addconnect
	lw	$4,12($17)

$L23:
	.loc 1 203 0
	lhu	$3,6($16)
	li	$2,49185			# 0xc021
	bne	$3,$2,$L44
	lw	$31,36($sp)

	.loc 1 206 0
	lbu	$2,8($16)
	li	$3,5			# 0x5
	bne	$2,$3,$L47
	li	$3,6			# 0x6

$LBB58 = .
	.loc 1 208 0
	sw	$0,%lo(l2tpInfo)($18)
	sw	$0,4($17)
	sw	$0,8($17)
	sw	$0,12($17)
	sw	$0,16($17)
	sw	$0,20($17)
	sw	$0,24($17)
	sw	$0,28($17)
	sw	$0,32($17)
	sw	$0,36($17)
	lbu	$2,8($16)
$LBE58 = .
	.loc 1 209 0
	lui	$3,%hi(state)
	sw	$0,%lo(state)($3)
	.loc 1 212 0
	li	$3,6			# 0x6
$L47:
	bne	$2,$3,$L48
	li	$3,1			# 0x1

	.loc 1 214 0
	lhu	$3,20($17)
	lhu	$2,0($16)
	bne	$3,$2,$L44
	lw	$31,36($sp)

	.loc 1 214 0 is_stmt 0 discriminator 1
	lhu	$3,22($17)
	lhu	$2,2($16)
	bne	$3,$2,$L45
	lw	$19,32($sp)

$LBB59 = .
	.loc 1 216 0 is_stmt 1
	move	$4,$17
	move	$5,$0
	jal	memset
	li	$6,40			# 0x28

	lbu	$2,8($16)
$LBE59 = .
	.loc 1 217 0
	lui	$3,%hi(state)
	sw	$0,%lo(state)($3)
	.loc 1 222 0
	li	$3,1			# 0x1
$L48:
	bne	$2,$3,$L8
	addiu	$7,$16,8

	lhu	$6,10($16)
$LBB60 = .
	.loc 1 228 0
	li	$2,4			# 0x4
	.loc 1 229 0
	j	$L26
	li	$8,5			# 0x5

$L28:
	.loc 1 233 0
	lbu	$4,0($3)
	bne	$4,$8,$L27
	lbu	$5,1($3)

	.loc 1 235 0
	lw	$3,2($3)
	lui	$2,%hi(l2tp_ppp_imagic)
	.loc 1 236 0
	j	$L8
	sw	$3,%lo(l2tp_ppp_imagic)($2)

$L27:
	.loc 1 238 0
	addu	$2,$2,$5
$L26:
	.loc 1 229 0 discriminator 1
	slt	$4,$2,$6
	bne	$4,$0,$L28
	addu	$3,$7,$2

$LBE60 = .
	.loc 1 246 0
	j	$L44
	lw	$31,36($sp)

$L12:
	.loc 1 198 0
	lui	$18,%hi(l2tpInfo)
	addiu	$17,$18,%lo(l2tpInfo)
	lw	$4,12($17)
	.loc 1 194 0
	addiu	$16,$3,12
	.loc 1 191 0
	andi	$5,$5,0x4000
	.loc 1 194 0
	addiu	$3,$3,10
	.loc 1 198 0
	jal	filter_checkConnect
	movz	$16,$3,$5

	beq	$2,$0,$L23
	nop

	j	$L43
	nop

$L8:
	.loc 1 246 0
	lw	$31,36($sp)
$L44:
	lw	$19,32($sp)
$L45:
	lw	$18,28($sp)
	lw	$17,24($sp)
	lw	$16,20($sp)
	j	$31
	addiu	$sp,$sp,40

	.cfi_def_cfa_offset 0
	.cfi_restore 16
	.cfi_restore 17
	.cfi_restore 18
	.cfi_restore 19
	.cfi_restore 31
	.set	macro
	.set	reorder
	.end	l2tp_tx_id
	.cfi_endproc
$LFE3045:
	.size	l2tp_tx_id, .-l2tp_tx_id
	.align	2
	.globl	fastpath_l2tp_single_open
$LFB3052 = .
	.loc 1 747 0
	.cfi_startproc
	.set	nomips16
	.ent	fastpath_l2tp_single_open
	.type	fastpath_l2tp_single_open, @function
fastpath_l2tp_single_open:
	.frame	$sp,0,$31		# vars= 0, regs= 0/0, args= 0, gp= 0
	.mask	0x00000000,0
	.fmask	0x00000000,0
	.set	noreorder
	.set	nomacro
	.loc 1 748 0
	move	$4,$5
	lui	$5,%hi(l2tp_read_proc)
	move	$6,$0
	j	single_open
	addiu	$5,$5,%lo(l2tp_read_proc)

	.set	macro
	.set	reorder
	.end	fastpath_l2tp_single_open
	.cfi_endproc
$LFE3052:
	.size	fastpath_l2tp_single_open, .-fastpath_l2tp_single_open
	.section	.rodata.str1.4
	.align	2
$LC3:
	.ascii	"%c\012\000"
	.text
	.align	2
$LFB3051 = .
	.loc 1 740 0
	.cfi_startproc
	.set	nomips16
	.ent	l2tp_read_proc
	.type	l2tp_read_proc, @function
l2tp_read_proc:
	.frame	$sp,24,$31		# vars= 0, regs= 1/0, args= 16, gp= 0
	.mask	0x80000000,-4
	.fmask	0x00000000,0
	.set	noreorder
	.set	nomacro
	.loc 1 741 0
	lui	$2,%hi(fast_l2tp_fw)
	lw	$6,%lo(fast_l2tp_fw)($2)
	lui	$5,%hi($LC3)
	.loc 1 740 0
	addiu	$sp,$sp,-24
	.cfi_def_cfa_offset 24
	.loc 1 741 0
	addiu	$5,$5,%lo($LC3)
	.loc 1 740 0
	sw	$31,20($sp)
	.cfi_offset 31, -4
	.loc 1 741 0
	jal	seq_printf
	addiu	$6,$6,48

	.loc 1 744 0
	lw	$31,20($sp)
	move	$2,$0
	j	$31
	addiu	$sp,$sp,24

	.cfi_def_cfa_offset 0
	.cfi_restore 31
	.set	macro
	.set	reorder
	.end	l2tp_read_proc
	.cfi_endproc
$LFE3051:
	.size	l2tp_read_proc, .-l2tp_read_proc
	.align	2
$LFB3042 = .
	.loc 1 68 0
	.cfi_startproc
	.set	nomips16
	.ent	is_l2tp_device
	.type	is_l2tp_device, @function
is_l2tp_device:
	.frame	$sp,24,$31		# vars= 0, regs= 2/0, args= 16, gp= 0
	.mask	0x80010000,-4
	.fmask	0x00000000,0
	.loc 1 69 0
	lui	$2,%hi(l2tpInfo+4)
	lw	$2,%lo(l2tpInfo+4)($2)
	beq	$2,$0,$L54
	.loc 1 68 0 discriminator 1
	addiu	$sp,$sp,-24
	.cfi_def_cfa_offset 24
	sw	$16,16($sp)
	.cfi_offset 16, -8
	move	$16,$4
	sw	$31,20($sp)
	.cfi_offset 31, -4
	.loc 1 69 0 discriminator 1
	.set	noreorder
	.set	nomacro
	jal	rtl_get_ppp_dev_name
	move	$4,$2
	.set	macro
	.set	reorder

$LBB61 = .
$LBB62 = .
	.file 2 "/home/extra_home/marklee/rtk_OpenWRT_BB/BB_v1407_branch_v25/v25_relase_source_test_0830/rtk_OpenWRT_v2.5_Branch_20160603/build_dir/target-mips_24kec_uClibc-0.9.33.2/linux-rtkmips_rtl8198c/linux-3.10.49/arch/mips/include/asm/string.h"
	.loc 2 77 0 discriminator 1
	move	$4,$16
#APP
 # 77 "/home/extra_home/marklee/rtk_OpenWRT_BB/BB_v1407_branch_v25/v25_relase_source_test_0830/rtk_OpenWRT_v2.5_Branch_20160603/build_dir/target-mips_24kec_uClibc-0.9.33.2/linux-rtkmips_rtl8198c/linux-3.10.49/arch/mips/include/asm/string.h" 1
	.set	noreorder
	.set	noat
	lbu	$3,($2)
1:	lbu	$1,($4)
	addiu	$2,1
	bne	$1,$3,2f
	addiu	$4,1
	bnez	$3,1b
	lbu	$3,($2)
	move	$3,$1
2:	subu	$3,$1
3:	.set	at
	.set	reorder
 # 0 "" 2
#NO_APP
$LBE62 = .
$LBE61 = .
	.loc 1 69 0 discriminator 1
	sltu	$2,$3,1
	.loc 1 75 0 discriminator 1
	lw	$31,20($sp)
	lw	$16,16($sp)
	.set	noreorder
	.set	nomacro
	j	$31
	addiu	$sp,$sp,24
	.set	macro
	.set	reorder

	.cfi_def_cfa_offset 0
	.cfi_restore 16
	.cfi_restore 31
$L54:
	.loc 1 74 0
	.set	noreorder
	.set	nomacro
	j	$31
	move	$2,$0
	.set	macro
	.set	reorder

	.end	is_l2tp_device
	.cfi_endproc
$LFE3042:
	.size	is_l2tp_device, .-is_l2tp_device
	.align	2
$LFB3043 = .
	.loc 1 78 0
	.cfi_startproc
	.set	nomips16
	.ent	set_l2tp_device
	.type	set_l2tp_device, @function
set_l2tp_device:
	.frame	$sp,24,$31		# vars= 0, regs= 1/0, args= 16, gp= 0
	.mask	0x80000000,-4
	.fmask	0x00000000,0
	.set	noreorder
	.set	nomacro
	.loc 1 79 0
	lui	$2,%hi(fast_l2tp_fw)
	lw	$2,%lo(fast_l2tp_fw)($2)
	beq	$2,$0,$L64
	nop

	.loc 1 78 0
	addiu	$sp,$sp,-24
	.cfi_def_cfa_offset 24
	sw	$31,20($sp)
	.cfi_offset 31, -4
$LBB65 = .
$LBB66 = .
	.loc 1 82 0
	jal	rtl_get_dev_by_name
	nop

	lui	$3,%hi(l2tpInfo+4)
$LBE66 = .
$LBE65 = .
	.loc 1 84 0
	lw	$31,20($sp)
$LBB68 = .
$LBB67 = .
	.loc 1 82 0
	sw	$2,%lo(l2tpInfo+4)($3)
$LBE67 = .
$LBE68 = .
	.loc 1 84 0
	addiu	$sp,$sp,24
	.cfi_restore 31
	.cfi_def_cfa_offset 0
$L64:
	j	$31
	nop

	.set	macro
	.set	reorder
	.end	set_l2tp_device
	.cfi_endproc
$LFE3043:
	.size	set_l2tp_device, .-set_l2tp_device
	.align	2
$LFB3053 = .
	.loc 1 753 0
	.cfi_startproc
	.set	nomips16
	.ent	fastpath_l2tp_single_write
	.type	fastpath_l2tp_single_write, @function
fastpath_l2tp_single_write:
	.frame	$sp,16,$31		# vars= 8, regs= 1/0, args= 0, gp= 0
	.mask	0x80000000,-4
	.fmask	0x00000000,0
$LBB77 = .
$LBB78 = .
	.loc 1 719 0
	sltu	$4,$6,2
	.set	noreorder
	.set	nomacro
	beq	$4,$0,$L66
	move	$2,$6
	.set	macro
	.set	reorder

$LBE78 = .
$LBE77 = .
	.loc 1 720 0
	.set	noreorder
	.set	nomacro
	j	$31
	li	$2,-14			# 0xfffffffffffffff2
	.set	macro
	.set	reorder

$L68:
	.cfi_def_cfa_offset 16
	.cfi_offset 31, -4
	.set	noreorder
	.set	nomacro
	j	$L67
	li	$2,-14			# 0xfffffffffffffff2
	.set	macro
	.set	reorder

$L66:
	.cfi_def_cfa_offset 0
	.cfi_restore 31
$LBB87 = .
$LBB83 = .
	.loc 1 722 0
	.set	noreorder
	.set	nomacro
	beq	$5,$0,$L75
	addiu	$4,$5,1
	.set	macro
	.set	reorder

$LBE83 = .
$LBE87 = .
	.loc 1 753 0
	addiu	$sp,$sp,-16
	.cfi_def_cfa_offset 16
	sw	$31,12($sp)
	.cfi_offset 31, -4
$LBB88 = .
$LBB84 = .
$LBB79 = .
$LBB80 = .
	.loc 1 722 0
	or	$3,$4,$5
	lw	$4,24($28)
	and	$3,$3,$4
$LBE80 = .
	.set	noreorder
	.set	nomacro
	bne	$3,$0,$L68
	move	$4,$sp
	.set	macro
	.set	reorder

$LBB81 = .
	li	$6,1			# 0x1
#APP
 # 722 "/home/extra_home/marklee/rtk_OpenWRT_BB/BB_v1407_branch_v25/v25_relase_source_test_0830/rtk_OpenWRT_v2.5_Branch_20160603/build_dir/target-mips_24kec_uClibc-0.9.33.2/linux-rtkmips_rtl8198c/fastpath-0.1/fast_l2tp_core.c" 1
	.set	noreorder
	.set	noat
	la	$1, __copy_user
	jalr	$1
	.set	at
	.set	noat
	addu	$1, $5, $6
	.set	at
	.set	reorder
 # 0 "" 2
#NO_APP
$LBE81 = .
$LBE79 = .
	.set	noreorder
	.set	nomacro
	bne	$6,$0,$L68
	lb	$3,0($sp)
	.set	macro
	.set	reorder

	.loc 1 723 0
	lui	$4,%hi(fast_l2tp_fw)
	addiu	$3,$3,-48
	sw	$3,%lo(fast_l2tp_fw)($4)
	.loc 1 724 0
	li	$4,1			# 0x1
	.set	noreorder
	.set	nomacro
	bne	$3,$4,$L69
	lui	$3,%hi(l2tp_tx_id_hook)
	.set	macro
	.set	reorder

	.loc 1 725 0
	lui	$4,%hi(l2tp_tx_id)
	addiu	$4,$4,%lo(l2tp_tx_id)
$LBE84 = .
$LBE88 = .
	.set	noreorder
	.set	nomacro
	j	$L70
	sw	$4,%lo(l2tp_tx_id_hook)($3)
	.set	macro
	.set	reorder

$L69:
$LBB89 = .
$LBB85 = .
	.loc 1 729 0
	sw	$0,%lo(l2tp_tx_id_hook)($3)
$L70:
$LBB82 = .
	.loc 1 732 0
	lui	$4,%hi(l2tpInfo)
	addiu	$3,$4,%lo(l2tpInfo)
	sw	$0,%lo(l2tpInfo)($4)
	sw	$0,4($3)
	sw	$0,8($3)
	sw	$0,12($3)
	sw	$0,16($3)
	sw	$0,20($3)
	sw	$0,24($3)
	sw	$0,28($3)
	sw	$0,32($3)
	sw	$0,36($3)
$LBE82 = .
	.loc 1 733 0
	lui	$3,%hi(state)
	sw	$0,%lo(state)($3)
$L67:
$LBE85 = .
$LBE89 = .
	.loc 1 755 0
	lw	$31,12($sp)
	.set	noreorder
	.set	nomacro
	j	$31
	addiu	$sp,$sp,16
	.set	macro
	.set	reorder

	.cfi_def_cfa_offset 0
	.cfi_restore 31
$L75:
$LBB90 = .
$LBB86 = .
	.loc 1 720 0
	li	$2,-14			# 0xfffffffffffffff2
$LBE86 = .
$LBE90 = .
	.loc 1 755 0
	j	$31
	.end	fastpath_l2tp_single_write
	.cfi_endproc
$LFE3053:
	.size	fastpath_l2tp_single_write, .-fastpath_l2tp_single_write
	.align	2
$LFB3049 = .
	.loc 1 485 0
	.cfi_startproc
	.set	nomips16
	.ent	fast_l2tp_to_wan
	.type	fast_l2tp_to_wan, @function
fast_l2tp_to_wan:
	.frame	$sp,88,$31		# vars= 40, regs= 8/0, args= 16, gp= 0
	.mask	0x807f0000,-4
	.fmask	0x00000000,0
	.loc 1 493 0
	lui	$2,%hi(fast_l2tp_fw)
	lw	$3,%lo(fast_l2tp_fw)($2)
	.set	noreorder
	.set	nomacro
	beq	$3,$0,$L104
	move	$2,$0
	.set	macro
	.set	reorder

	.loc 1 485 0 discriminator 1
	addiu	$sp,$sp,-88
	.cfi_def_cfa_offset 88
	sw	$17,60($sp)
	.cfi_offset 17, -28
	.loc 1 493 0 discriminator 1
	lui	$17,%hi(l2tpInfo)
	.loc 1 485 0 discriminator 1
	sw	$16,56($sp)
	sw	$31,84($sp)
	sw	$22,80($sp)
	sw	$21,76($sp)
	sw	$20,72($sp)
	sw	$19,68($sp)
	sw	$18,64($sp)
	.cfi_offset 16, -32
	.cfi_offset 31, -4
	.cfi_offset 22, -8
	.cfi_offset 21, -12
	.cfi_offset 20, -16
	.cfi_offset 19, -20
	.cfi_offset 18, -24
	.loc 1 493 0 discriminator 1
	addiu	$16,$17,%lo(l2tpInfo)
	lhu	$3,20($16)
	beq	$3,$0,$L78
	lhu	$3,22($16)
	.set	noreorder
	.set	nomacro
	beq	$3,$0,$L78
	lw	$3,%lo(l2tpInfo)($17)
	.set	macro
	.set	reorder

	.set	noreorder
	.set	nomacro
	beq	$3,$0,$L78
	li	$3,1			# 0x1
	.set	macro
	.set	reorder

	.loc 1 496 0
	lhu	$5,38($16)
	.set	noreorder
	.set	nomacro
	bne	$5,$3,$L107
	lw	$31,84($sp)
	.set	macro
	.set	reorder

$LBB103 = .
$LBB104 = .
	.loc 1 499 0
	.set	noreorder
	.set	nomacro
	jal	rtl_ip_hdr
	move	$18,$4
	.set	macro
	.set	reorder

	.loc 1 502 0
	move	$4,$18
	.loc 1 499 0
	move	$20,$2
	.loc 1 502 0
	.set	noreorder
	.set	nomacro
	jal	rtl_skb_headroom
	lhu	$21,2($2)
	.set	macro
	.set	reorder

	sltu	$2,$2,52
	.set	noreorder
	.set	nomacro
	beq	$2,$0,$L79
	move	$4,$18
	.set	macro
	.set	reorder

$L106:
$LBB105 = .
	.loc 1 504 0
	.set	noreorder
	.set	nomacro
	jal	skb_realloc_headroom
	li	$5,52			# 0x34
	.set	macro
	.set	reorder

	.loc 1 505 0
	.set	noreorder
	.set	nomacro
	bne	$2,$0,$L101
	move	$19,$2
	.set	macro
	.set	reorder

$LBE105 = .
$LBE104 = .
$LBE103 = .
	.loc 1 507 0
	.set	noreorder
	.set	nomacro
	j	$L105
	move	$2,$0
	.set	macro
	.set	reorder

$L79:
$LBB131 = .
$LBB128 = .
	.loc 1 502 0
	.set	noreorder
	.set	nomacro
	jal	rtl_skb_cloned
	move	$4,$18
	.set	macro
	.set	reorder

	.set	noreorder
	.set	nomacro
	bne	$2,$0,$L106
	move	$4,$18
	.set	macro
	.set	reorder

	.set	noreorder
	.set	nomacro
	jal	rtl_skb_shared
	move	$4,$18
	.set	macro
	.set	reorder

	.set	noreorder
	.set	nomacro
	beq	$2,$0,$L83
	move	$19,$18
	.set	macro
	.set	reorder

$LBE128 = .
$LBE131 = .
	.loc 1 504 0
	.set	noreorder
	.set	nomacro
	j	$L106
	move	$4,$18
	.set	macro
	.set	reorder

$L101:
$LBB132 = .
$LBB129 = .
$LBB106 = .
	.loc 1 509 0
	.set	noreorder
	.set	nomacro
	jal	consume_skb
	move	$4,$18
	.set	macro
	.set	reorder

$L83:
$LBE106 = .
$LBB107 = .
	.loc 1 516 0
	move	$4,$19
	li	$5,52			# 0x34
	.set	noreorder
	.set	nomacro
	jal	skb_push
	lbu	$22,1($20)
	.set	macro
	.set	reorder

	lw	$5,24($16)
	move	$3,$2
	lw	$4,28($16)
	lw	$2,32($16)
	swl	$5,0($3)
	swr	$5,3($3)
	swl	$4,4($3)
	swr	$4,7($3)
	swl	$2,8($3)
	swr	$2,11($3)
	lbu	$4,36($16)
$LBE107 = .
	.loc 1 520 0
	lbu	$2,16($sp)
	li	$5,4			# 0x4
$LBB108 = .
	.loc 1 516 0
	sb	$4,12($3)
	lbu	$4,37($16)
$LBE108 = .
	.loc 1 520 0
	ins	$2,$5,4,4
	.loc 1 529 0
	move	$5,$0
$LBB109 = .
	.loc 1 516 0
	sb	$4,13($3)
$LBE109 = .
	.loc 1 521 0
	li	$3,5			# 0x5
	ins	$2,$3,0,4
	.loc 1 526 0
	lw	$18,12($16)
	.loc 1 527 0
	lw	$20,16($16)
	.loc 1 521 0
	sb	$2,16($sp)
	.loc 1 523 0
	li	$2,16384			# 0x4000
	sh	$2,22($sp)
	.loc 1 524 0
	li	$2,17			# 0x11
	.loc 1 529 0
	move	$4,$19
	.loc 1 524 0
	sb	$2,25($sp)
	.loc 1 528 0
	li	$2,64			# 0x40
	.loc 1 526 0
	sw	$18,32($sp)
	.loc 1 527 0
	sw	$20,28($sp)
	.loc 1 528 0
	sb	$2,24($sp)
	.loc 1 529 0
	.set	noreorder
	.set	nomacro
	jal	rtl_set_skb_ip_summed
	sb	$22,17($sp)
	.set	macro
	.set	reorder

	.loc 1 530 0
	.set	noreorder
	.set	nomacro
	jal	rtl_get_skb_len
	move	$4,$19
	.set	macro
	.set	reorder

	addiu	$2,$2,-14
	sh	$2,18($sp)
	.loc 1 531 0
	sh	$0,20($sp)
$LBB110 = .
$LBB111 = .
	.file 3 "/home/extra_home/marklee/rtk_OpenWRT_BB/BB_v1407_branch_v25/v25_relase_source_test_0830/rtk_OpenWRT_v2.5_Branch_20160603/build_dir/target-mips_24kec_uClibc-0.9.33.2/linux-rtkmips_rtl8198c/linux-3.10.49/arch/mips/include/asm/checksum.h"
	.loc 3 109 0
	lw	$3,20($sp)
$LBE111 = .
$LBE110 = .
	.loc 1 533 0
	sh	$0,26($sp)
$LBB117 = .
$LBB114 = .
	.loc 3 109 0
	lw	$4,16($sp)
	.loc 3 113 0
	lw	$2,24($sp)
$LBE114 = .
$LBE117 = .
	.loc 1 539 0
	addiu	$21,$21,18
$LBB118 = .
$LBB115 = .
	.loc 3 109 0
	addu	$4,$3,$4
	.loc 3 110 0
	sltu	$3,$4,$3
	.loc 3 111 0
	addu	$4,$4,$2
	.loc 3 113 0
	addu	$3,$4,$3
	.loc 3 114 0
	sltu	$2,$3,$2
	.loc 3 115 0
	addu	$3,$3,$20
	.loc 3 117 0
	addu	$2,$3,$2
	.loc 3 118 0
	sltu	$20,$2,$20
	.loc 3 119 0
	addu	$2,$2,$18
	.loc 3 123 0
	addu	$20,$2,$20
$LBE115 = .
$LBE118 = .
$LBB119 = .
	.loc 1 535 0
	move	$4,$19
$LBE119 = .
$LBB120 = .
$LBB116 = .
	.loc 3 124 0
	sltu	$18,$20,$18
	.loc 3 125 0
	addu	$18,$18,$20
$LBB112 = .
$LBB113 = .
	.loc 3 78 0
#APP
 # 78 "/home/extra_home/marklee/rtk_OpenWRT_BB/BB_v1407_branch_v25/v25_relase_source_test_0830/rtk_OpenWRT_v2.5_Branch_20160603/build_dir/target-mips_24kec_uClibc-0.9.33.2/linux-rtkmips_rtl8198c/linux-3.10.49/arch/mips/include/asm/checksum.h" 1
		.set	push		# csum_fold
	.set	noat		
	sll	$1, $18, 16	
	addu	$18, $1		
	sltu	$1, $18, $1	
	srl	$18, $18, 16	
	addu	$18, $1		
	xori	$18, 0xffff	
	.set	pop
 # 0 "" 2
#NO_APP
$LBE113 = .
$LBE112 = .
$LBE116 = .
$LBE120 = .
$LBB121 = .
	.loc 1 535 0
	.set	noreorder
	.set	nomacro
	jal	rtl_get_skb_data
	sh	$18,26($sp)
	.set	macro
	.set	reorder

	lw	$5,16($sp)
	lw	$4,20($sp)
	addiu	$3,$2,14
	swl	$5,14($2)
	swr	$5,3($3)
	lw	$5,24($sp)
	swl	$4,4($3)
	swr	$4,7($3)
	lw	$4,28($sp)
	swl	$5,8($3)
	swr	$5,11($3)
	lw	$2,32($sp)
	swl	$4,12($3)
	swr	$4,15($3)
	swl	$2,16($3)
$LBE121 = .
	.loc 1 537 0
	li	$4,1701			# 0x6a5
$LBB122 = .
	.loc 1 535 0
	swr	$2,19($3)
$LBE122 = .
	.loc 1 537 0
	sh	$4,36($sp)
	.loc 1 538 0
	sh	$4,38($sp)
	.loc 1 539 0
	sh	$21,40($sp)
	.loc 1 540 0
	sh	$0,42($sp)
	.loc 1 543 0
	lhu	$2,22($16)
	.loc 1 542 0
	lhu	$3,20($16)
	.loc 1 541 0
	li	$5,2			# 0x2
	.loc 1 543 0
	sh	$2,48($sp)
	.loc 1 544 0
	li	$2,-253			# 0xffffffffffffff03
$LBB123 = .
	.loc 1 546 0
	move	$4,$19
$LBE123 = .
	.loc 1 544 0
	sh	$2,50($sp)
	.loc 1 545 0
	li	$2,33			# 0x21
	.loc 1 542 0
	sh	$3,46($sp)
	.loc 1 541 0
	sh	$5,44($sp)
$LBB124 = .
	.loc 1 546 0
	.set	noreorder
	.set	nomacro
	jal	rtl_get_skb_data
	sh	$2,52($sp)
	.set	macro
	.set	reorder

	lw	$5,36($sp)
	lw	$4,40($sp)
	addiu	$3,$2,34
	swl	$5,34($2)
	swr	$5,3($3)
	lw	$5,44($sp)
	swl	$4,4($3)
	swr	$4,7($3)
	lw	$2,48($sp)
	swl	$5,8($3)
	lbu	$7,52($sp)
	lbu	$6,53($sp)
	swr	$5,11($3)
$LBE124 = .
	.loc 1 548 0
	lw	$5,%lo(l2tpInfo)($17)
$LBB125 = .
	.loc 1 546 0
	swl	$2,12($3)
	swr	$2,15($3)
$LBE125 = .
	.loc 1 548 0
	move	$4,$19
$LBB126 = .
	.loc 1 546 0
	sb	$7,16($3)
$LBE126 = .
	.loc 1 548 0
	.set	noreorder
	.set	nomacro
	jal	rtl_set_skb_dev
	sb	$6,17($3)
	.set	macro
	.set	reorder

	.loc 1 552 0
	.set	noreorder
	.set	nomacro
	jal	rtl_get_skb_data
	move	$4,$19
	.set	macro
	.set	reorder

	.loc 1 554 0
	.set	noreorder
	.set	nomacro
	jal	timeoutCheck_skipp_pkt
	addiu	$4,$2,52
	.set	macro
	.set	reorder

	li	$3,1			# 0x1
	.set	noreorder
	.set	nomacro
	beq	$2,$3,$L84
	lui	$2,%hi(jiffies)
	.set	macro
	.set	reorder

	.loc 1 555 0
	lw	$2,%lo(jiffies)($2)
	sw	$2,8($16)
$L84:
$LBB127 = .
	.loc 1 562 0
	lw	$4,4($16)
	.set	noreorder
	.set	nomacro
	beq	$4,$0,$L108
	lui	$2,%hi(gQosEnabled)
	.set	macro
	.set	reorder

	jal	rtl_get_ppp_dev_priv
	.set	noreorder
	.set	nomacro
	beq	$2,$0,$L108
	lui	$2,%hi(gQosEnabled)
	.set	macro
	.set	reorder

	.loc 1 563 0
	.set	noreorder
	.set	nomacro
	jal	rtl_get_ppp_dev_priv
	lw	$4,4($16)
	.set	macro
	.set	reorder

	.loc 1 564 0
	move	$4,$19
	.set	noreorder
	.set	nomacro
	jal	rtl_get_skb_len
	move	$16,$2
	.set	macro
	.set	reorder

	move	$6,$2
	move	$4,$16
	.set	noreorder
	.set	nomacro
	jal	rtl_inc_ppp_stats
	li	$5,1			# 0x1
	.set	macro
	.set	reorder

$LBE127 = .
	.loc 1 572 0
	lui	$2,%hi(gQosEnabled)
$L108:
	lw	$2,%lo(gQosEnabled)($2)
	.set	noreorder
	.set	nomacro
	beq	$2,$0,$L88
	move	$4,$19
	.set	macro
	.set	reorder

	.loc 1 575 0
	jal	dev_queue_xmit
$LBE129 = .
$LBE132 = .
	.loc 1 576 0
	.set	noreorder
	.set	nomacro
	j	$L78
	li	$2,1			# 0x1
	.set	macro
	.set	reorder

$L88:
$LBB133 = .
$LBB130 = .
	.loc 1 582 0
	jal	rtl_call_skb_ndo_start_xmit
	li	$2,1			# 0x1
$L105:
$L78:
$LBE130 = .
$LBE133 = .
	.loc 1 584 0
	lw	$31,84($sp)
$L107:
	lw	$22,80($sp)
	lw	$21,76($sp)
	lw	$20,72($sp)
	lw	$19,68($sp)
	lw	$18,64($sp)
	lw	$17,60($sp)
	lw	$16,56($sp)
	addiu	$sp,$sp,88
	.cfi_restore 16
	.cfi_restore 17
	.cfi_restore 18
	.cfi_restore 19
	.cfi_restore 20
	.cfi_restore 21
	.cfi_restore 22
	.cfi_restore 31
	.cfi_def_cfa_offset 0
$L104:
	j	$31
	.end	fast_l2tp_to_wan
	.cfi_endproc
$LFE3049:
	.size	fast_l2tp_to_wan, .-fast_l2tp_to_wan
	.align	2
$LFB3044 = .
	.loc 1 88 0
	.cfi_startproc
	.set	nomips16
	.ent	event_ppp_dev_down
	.type	event_ppp_dev_down, @function
event_ppp_dev_down:
	.frame	$sp,32,$31		# vars= 0, regs= 4/0, args= 16, gp= 0
	.mask	0x80070000,-4
	.fmask	0x00000000,0
	addiu	$sp,$sp,-32
	.cfi_def_cfa_offset 32
	sw	$17,20($sp)
	.cfi_offset 17, -12
	.loc 1 89 0
	lui	$17,%hi(l2tpInfo)
	.loc 1 88 0
	sw	$16,16($sp)
	.cfi_offset 16, -16
	.loc 1 89 0
	addiu	$16,$17,%lo(l2tpInfo)
	lhu	$2,38($16)
	.loc 1 88 0
	sw	$31,28($sp)
	.cfi_offset 31, -4
	.loc 1 89 0
	.set	noreorder
	.set	nomacro
	beq	$2,$0,$L109
	sw	$18,24($sp)
	.set	macro
	.set	reorder

	.cfi_offset 18, -8
	move	$18,$4
	.loc 1 91 0
	lw	$4,4($16)
	.set	noreorder
	.set	nomacro
	beq	$4,$0,$L117
	lw	$31,28($sp)
	.set	macro
	.set	reorder

	.loc 1 91 0 is_stmt 0 discriminator 1
	jal	rtl_get_ppp_dev_name
$LBB141 = .
$LBB142 = .
	.loc 2 77 0 is_stmt 1 discriminator 1
	move	$4,$18
#APP
 # 77 "/home/extra_home/marklee/rtk_OpenWRT_BB/BB_v1407_branch_v25/v25_relase_source_test_0830/rtk_OpenWRT_v2.5_Branch_20160603/build_dir/target-mips_24kec_uClibc-0.9.33.2/linux-rtkmips_rtl8198c/linux-3.10.49/arch/mips/include/asm/string.h" 1
	.set	noreorder
	.set	noat
	lbu	$3,($2)
1:	lbu	$1,($4)
	addiu	$2,1
	bne	$1,$3,2f
	addiu	$4,1
	bnez	$3,1b
	lbu	$3,($2)
	move	$3,$1
2:	subu	$3,$1
3:	.set	at
	.set	reorder
 # 0 "" 2
#NO_APP
$LBE142 = .
$LBE141 = .
	.loc 1 91 0 discriminator 1
	.set	noreorder
	.set	nomacro
	bne	$3,$0,$L117
	lw	$31,28($sp)
	.set	macro
	.set	reorder

$LBB143 = .
$LBB144 = .
	.loc 1 94 0
	lui	$2,%hi(state)
$LBB145 = .
	.loc 1 93 0
	sw	$0,%lo(l2tpInfo)($17)
$LBE145 = .
	.loc 1 94 0
	sw	$0,%lo(state)($2)
$LBB146 = .
	.loc 1 93 0
	sw	$0,4($16)
	sw	$0,8($16)
	sw	$0,12($16)
	sw	$0,16($16)
	sw	$0,20($16)
	sw	$0,24($16)
	sw	$0,28($16)
	sw	$0,32($16)
	sw	$0,36($16)
$L109:
$LBE146 = .
$LBE144 = .
$LBE143 = .
	.loc 1 97 0
	lw	$31,28($sp)
$L117:
	lw	$18,24($sp)
	lw	$17,20($sp)
	lw	$16,16($sp)
	.set	noreorder
	.set	nomacro
	j	$31
	addiu	$sp,$sp,32
	.set	macro
	.set	reorder

	.cfi_def_cfa_offset 0
	.cfi_restore 16
	.cfi_restore 17
	.cfi_restore 18
	.cfi_restore 31
	.end	event_ppp_dev_down
	.cfi_endproc
$LFE3044:
	.size	event_ppp_dev_down, .-event_ppp_dev_down
	.align	2
	.globl	fast_l2tp_rx
$LFB3046 = .
	.loc 1 353 0
	.cfi_startproc
	.set	nomips16
	.ent	fast_l2tp_rx
	.type	fast_l2tp_rx, @function
fast_l2tp_rx:
	.frame	$sp,40,$31		# vars= 0, regs= 6/0, args= 16, gp= 0
	.mask	0x801f0000,-4
	.fmask	0x00000000,0
	.set	noreorder
	.set	nomacro
	addiu	$sp,$sp,-40
	.cfi_def_cfa_offset 40
	sw	$31,36($sp)
	sw	$19,28($sp)
	sw	$18,24($sp)
	sw	$17,20($sp)
	sw	$16,16($sp)
	sw	$20,32($sp)
	.cfi_offset 31, -4
	.cfi_offset 19, -12
	.cfi_offset 18, -16
	.cfi_offset 17, -20
	.cfi_offset 16, -24
	.cfi_offset 20, -8
	.loc 1 354 0
	jal	rtl_ip_hdr
	move	$16,$4

	move	$17,$2
	.loc 1 355 0
	lw	$2,0($2)
	.loc 1 363 0
	move	$4,$16
	jal	rtl_get_skb_data
	ext	$18,$2,24,4

	.loc 1 365 0
	move	$4,$16
	jal	rtl_get_skb_len
	move	$19,$2

	sltu	$2,$2,40
	bne	$2,$0,$L149
	sll	$18,$18,2

	.loc 1 355 0
	addu	$18,$17,$18
	.loc 1 368 0
	lhu	$3,0($18)
	li	$5,1701			# 0x6a5
	bne	$3,$5,$L120
	move	$2,$0

	.loc 1 368 0 is_stmt 0 discriminator 1
	lhu	$2,2($18)
	bne	$2,$3,$L120
	move	$2,$0

	.loc 1 369 0 is_stmt 1
	lui	$20,%hi(l2tpInfo)
	lw	$2,%lo(l2tpInfo)($20)
	bne	$2,$0,$L122
	nop

	.loc 1 370 0
	jal	l2tp_tx_id
	move	$4,$16

$L122:
	.loc 1 379 0
	lbu	$2,28($19)
	.loc 1 356 0
	li	$3,2			# 0x2
	.loc 1 402 0
	move	$4,$19
	.loc 1 379 0
	andi	$18,$2,0x40
	.loc 1 356 0
	movz	$3,$0,$18
	.loc 1 382 0
	andi	$2,$2,0x2
	.loc 1 383 0
	addu	$18,$3,$2
	.loc 1 402 0
	move	$5,$18
	jal	fast_l2tp_tx_lcp_echo_reply
	move	$6,$16

	li	$3,1			# 0x1
	beq	$2,$3,$L120
	addiu	$20,$20,%lo(l2tpInfo)

	.loc 1 404 0
	lhu	$2,20($20)
	beq	$2,$0,$L120
	move	$2,$0

	.loc 1 404 0 is_stmt 0 discriminator 1
	lhu	$2,22($20)
	beq	$2,$0,$L149
	addu	$2,$19,$18

	lbu	$3,36($2)
	bne	$3,$0,$L149
	nop

	lbu	$3,37($2)
	li	$2,33			# 0x21
	bne	$3,$2,$L120
	move	$2,$0

	lui	$2,%hi(l2tpInfo)
	lw	$2,%lo(l2tpInfo)($2)
	beq	$2,$0,$L120
	move	$2,$0

	.loc 1 405 0 is_stmt 1
	lw	$3,16($20)
	lw	$2,16($17)
	bne	$3,$2,$L120
	move	$2,$0

	.loc 1 415 0
	lw	$2,4($20)
	bne	$2,$0,$L150
	addiu	$18,$18,38

	addiu	$18,$18,-38
	.loc 1 417 0
	lui	$4,%hi($LC0)
	jal	rtl_get_dev_by_name
	addiu	$4,$4,%lo($LC0)

	.loc 1 420 0
	beq	$2,$0,$L149
	sw	$2,4($20)

	.loc 1 421 0
	addiu	$18,$18,38
$L150:
	addu	$19,$19,$18
	lbu	$3,9($19)
	li	$4,6			# 0x6
	beq	$3,$4,$L126
	andi	$5,$3,0xef

	.loc 1 422 0
	li	$4,1			# 0x1
	beq	$5,$4,$L126
	li	$4,47			# 0x2f

	.loc 1 423 0
	bne	$3,$4,$L149
	nop

$L126:
	.loc 1 426 0
	move	$5,$2
	jal	rtl_set_skb_dev
	move	$4,$16

	.loc 1 427 0
	move	$5,$18
	jal	skb_pull
	move	$4,$16

	.loc 1 428 0
	jal	rtl_skb_reset_network_header
	move	$4,$16

	.loc 1 429 0
	jal	rtl_skb_reset_transport_header
	move	$4,$16

$LBB147 = .
	.loc 1 434 0
	lw	$4,4($20)
	beq	$4,$0,$L120
	move	$2,$0

	.loc 1 434 0 is_stmt 0 discriminator 1
	jal	rtl_get_ppp_dev_priv
	nop

	beq	$2,$0,$L120
	move	$2,$0

	.loc 1 435 0 is_stmt 1
	jal	rtl_get_ppp_dev_priv
	lw	$4,4($20)

	.loc 1 436 0
	move	$4,$16
	jal	rtl_get_skb_len
	move	$17,$2

	move	$6,$2
	move	$4,$17
	jal	rtl_inc_ppp_stats
	move	$5,$0

$L149:
$LBE147 = .
	.loc 1 450 0
	move	$2,$0
$L120:
	.loc 1 452 0
	lw	$31,36($sp)
	lw	$20,32($sp)
	lw	$19,28($sp)
	lw	$18,24($sp)
	lw	$17,20($sp)
	lw	$16,16($sp)
	j	$31
	addiu	$sp,$sp,40

	.cfi_def_cfa_offset 0
	.cfi_restore 16
	.cfi_restore 17
	.cfi_restore 18
	.cfi_restore 19
	.cfi_restore 20
	.cfi_restore 31
	.set	macro
	.set	reorder
	.end	fast_l2tp_rx
	.cfi_endproc
$LFE3046:
	.size	fast_l2tp_rx, .-fast_l2tp_rx
	.section	.rodata.str1.4
	.align	2
$LC4:
	.ascii	"fast_l2tp\000"
	.section	.init.text,"ax",@progbits
	.align	2
	.globl	fast_l2tp_init
$LFB3054 = .
	.loc 1 796 0
	.cfi_startproc
	.set	nomips16
	.ent	fast_l2tp_init
	.type	fast_l2tp_init, @function
fast_l2tp_init:
	.frame	$sp,32,$31		# vars= 0, regs= 1/0, args= 24, gp= 0
	.mask	0x80000000,-4
	.fmask	0x00000000,0
	.set	noreorder
	.set	nomacro
	.loc 1 797 0
	lui	$3,%hi(event_ppp_dev_down)
	addiu	$3,$3,%lo(event_ppp_dev_down)
	lui	$2,%hi(event_ppp_dev_down_fphook)
	sw	$3,%lo(event_ppp_dev_down_fphook)($2)
	.loc 1 798 0
	lui	$3,%hi(set_l2tp_device)
	addiu	$3,$3,%lo(set_l2tp_device)
	lui	$2,%hi(set_l2tp_device_fphook)
	sw	$3,%lo(set_l2tp_device_fphook)($2)
	.loc 1 799 0
	lui	$3,%hi(get_fast_l2tp_lastxmit)
	addiu	$3,$3,%lo(get_fast_l2tp_lastxmit)
	lui	$2,%hi(get_fast_l2tp_lastxmit_fphook)
	sw	$3,%lo(get_fast_l2tp_lastxmit_fphook)($2)
	.loc 1 800 0
	lui	$3,%hi(is_l2tp_device)
	addiu	$3,$3,%lo(is_l2tp_device)
	lui	$2,%hi(is_l2tp_device_fphook)
	sw	$3,%lo(is_l2tp_device_fphook)($2)
	.loc 1 801 0
	lui	$3,%hi(check_for_fast_l2tp_to_wan)
	addiu	$3,$3,%lo(check_for_fast_l2tp_to_wan)
	lui	$2,%hi(check_for_fast_l2tp_to_wan_fphook)
	.loc 1 796 0
	addiu	$sp,$sp,-32
	.cfi_def_cfa_offset 32
	.loc 1 801 0
	sw	$3,%lo(check_for_fast_l2tp_to_wan_fphook)($2)
	.loc 1 806 0
	lui	$4,%hi($LC4)
	lui	$6,%hi(proc_root)
	lui	$7,%hi(fastpath_l2tp_proc_fops)
	.loc 1 802 0
	lui	$3,%hi(fast_l2tp_to_wan)
	addiu	$3,$3,%lo(fast_l2tp_to_wan)
	.loc 1 806 0
	addiu	$4,$4,%lo($LC4)
	move	$5,$0
	addiu	$6,$6,%lo(proc_root)
	addiu	$7,$7,%lo(fastpath_l2tp_proc_fops)
	sw	$0,16($sp)
	.loc 1 802 0
	lui	$2,%hi(fast_l2tp_to_wan_fphook)
	.loc 1 796 0
	sw	$31,28($sp)
	.cfi_offset 31, -4
	.loc 1 806 0
	jal	proc_create_data
	sw	$3,%lo(fast_l2tp_to_wan_fphook)($2)

	lui	$3,%hi(res1)
	sw	$2,%lo(res1)($3)
	.loc 1 817 0
	lui	$2,%hi(l2tp_tx_id_hook)
	sw	$0,%lo(l2tp_tx_id_hook)($2)
$LBB148 = .
	.loc 1 820 0
	lui	$4,%hi(l2tpInfo)
$LBE148 = .
	.loc 1 818 0
	lui	$2,%hi(fast_l2tp_fw)
	sw	$0,%lo(fast_l2tp_fw)($2)
$LBB149 = .
	.loc 1 820 0
	addiu	$4,$4,%lo(l2tpInfo)
$LBE149 = .
	.loc 1 819 0
	lui	$2,%hi(state)
$LBB150 = .
	.loc 1 820 0
	move	$5,$0
	li	$6,40			# 0x28
	jal	memset
	sw	$0,%lo(state)($2)

$LBE150 = .
	.loc 1 822 0
	lw	$31,28($sp)
	move	$2,$0
	j	$31
	addiu	$sp,$sp,32

	.cfi_def_cfa_offset 0
	.cfi_restore 31
	.set	macro
	.set	reorder
	.end	fast_l2tp_init
	.cfi_endproc
$LFE3054:
	.size	fast_l2tp_init, .-fast_l2tp_init
	.section	.exit.text,"ax",@progbits
	.align	2
	.globl	fast_l2tp_exit
$LFB3055 = .
	.loc 1 825 0
	.cfi_startproc
	.set	nomips16
	.ent	fast_l2tp_exit
	.type	fast_l2tp_exit, @function
fast_l2tp_exit:
	.frame	$sp,24,$31		# vars= 0, regs= 2/0, args= 16, gp= 0
	.mask	0x80010000,-4
	.fmask	0x00000000,0
	.set	noreorder
	.set	nomacro
	.loc 1 826 0
	lui	$3,%hi(event_ppp_dev_down_fphook)
	sw	$0,%lo(event_ppp_dev_down_fphook)($3)
	.loc 1 827 0
	lui	$3,%hi(set_l2tp_device_fphook)
	.loc 1 825 0
	addiu	$sp,$sp,-24
	.cfi_def_cfa_offset 24
	.loc 1 827 0
	sw	$0,%lo(set_l2tp_device_fphook)($3)
	.loc 1 828 0
	lui	$3,%hi(get_fast_l2tp_lastxmit_fphook)
	sw	$0,%lo(get_fast_l2tp_lastxmit_fphook)($3)
	.loc 1 825 0
	sw	$16,16($sp)
	.loc 1 829 0
	lui	$3,%hi(is_l2tp_device_fphook)
	.cfi_offset 16, -8
	.loc 1 834 0
	lui	$16,%hi(res1)
	.loc 1 829 0
	sw	$0,%lo(is_l2tp_device_fphook)($3)
	.loc 1 834 0
	lw	$2,%lo(res1)($16)
	.loc 1 830 0
	lui	$3,%hi(check_for_fast_l2tp_to_wan_fphook)
	sw	$0,%lo(check_for_fast_l2tp_to_wan_fphook)($3)
	.loc 1 831 0
	lui	$3,%hi(fast_l2tp_to_wan_fphook)
	sw	$0,%lo(fast_l2tp_to_wan_fphook)($3)
	.loc 1 832 0
	lui	$3,%hi(fast_l2tp_fw)
	.loc 1 825 0
	sw	$31,20($sp)
	.cfi_offset 31, -4
	.loc 1 834 0
	beq	$2,$0,$L153
	sw	$0,%lo(fast_l2tp_fw)($3)

	.loc 1 836 0
	lui	$4,%hi($LC4)
	lui	$5,%hi(proc_root)
	addiu	$4,$4,%lo($LC4)
	jal	remove_proc_entry
	addiu	$5,$5,%lo(proc_root)

	.loc 1 840 0
	sw	$0,%lo(res1)($16)
$L153:
	.loc 1 843 0
	lw	$31,20($sp)
	lw	$16,16($sp)
	j	$31
	addiu	$sp,$sp,24

	.cfi_def_cfa_offset 0
	.cfi_restore 16
	.cfi_restore 31
	.set	macro
	.set	reorder
	.end	fast_l2tp_exit
	.cfi_endproc
$LFE3055:
	.size	fast_l2tp_exit, .-fast_l2tp_exit
	.local	res1
	.comm	res1,4,4
	.globl	fastpath_l2tp_proc_fops
	.data
	.align	2
	.type	fastpath_l2tp_proc_fops, @object
	.size	fastpath_l2tp_proc_fops, 108
fastpath_l2tp_proc_fops:
	.space	4
	.word	seq_lseek
	.word	seq_read
	.word	fastpath_l2tp_single_write
	.space	28
	.word	fastpath_l2tp_single_open
	.space	4
	.word	single_release
	.space	52
	.globl	l2tp_ppp_imagic
	.section	.bss,"aw",@nobits
	.align	2
	.type	l2tp_ppp_imagic, @object
	.size	l2tp_ppp_imagic, 4
l2tp_ppp_imagic:
	.space	4
	.globl	l2tpInfo
	.align	2
	.type	l2tpInfo, @object
	.size	l2tpInfo, 40
l2tpInfo:
	.space	40
	.globl	l2tp_tx_id_hook
	.align	2
	.type	l2tp_tx_id_hook, @object
	.size	l2tp_tx_id_hook, 4
l2tp_tx_id_hook:
	.space	4
	.text
$Letext0:
	.file 4 "include/uapi/asm-generic/int-ll64.h"
	.file 5 "include/asm-generic/int-ll64.h"
	.file 6 "/home/extra_home/marklee/rtk_OpenWRT_BB/BB_v1407_branch_v25/v25_relase_source_test_0830/rtk_OpenWRT_v2.5_Branch_20160603/build_dir/target-mips_24kec_uClibc-0.9.33.2/linux-rtkmips_rtl8198c/linux-3.10.49/include/uapi/asm-generic/posix_types.h"
	.file 7 "include/uapi/linux/types.h"
	.file 8 "include/linux/types.h"
	.file 9 "include/asm-generic/atomic-long.h"
	.file 10 "/home/extra_home/marklee/rtk_OpenWRT_BB/BB_v1407_branch_v25/v25_relase_source_test_0830/rtk_OpenWRT_v2.5_Branch_20160603/build_dir/target-mips_24kec_uClibc-0.9.33.2/linux-rtkmips_rtl8198c/linux-3.10.49/arch/mips/include/asm/page.h"
	.file 11 "include/uapi/linux/in.h"
	.file 12 "include/uapi/linux/if_link.h"
	.file 13 "include/uapi/linux/rtnetlink.h"
	.file 14 "include/net/ndisc.h"
	.file 15 "include/net/rtl/rtl_types.h"
	.file 16 "/home/extra_home/marklee/rtk_OpenWRT_BB/BB_v1407_branch_v25/v25_relase_source_test_0830/rtk_OpenWRT_v2.5_Branch_20160603/build_dir/target-mips_24kec_uClibc-0.9.33.2/linux-rtkmips_rtl8198c/linux-3.10.49/arch/mips/include/asm/thread_info.h"
	.file 17 "include/net/inet_frag.h"
	.file 18 "include/linux/etherdevice.h"
	.file 19 "include/linux/export.h"
	.file 20 "/home/extra_home/marklee/rtk_OpenWRT_BB/BB_v1407_branch_v25/v25_relase_source_test_0830/rtk_OpenWRT_v2.5_Branch_20160603/build_dir/target-mips_24kec_uClibc-0.9.33.2/linux-rtkmips_rtl8198c/linux-3.10.49/arch/mips/include/asm/cpu-info.h"
	.file 21 "include/linux/printk.h"
	.file 22 "include/linux/kernel.h"
	.file 23 "include/linux/cpumask.h"
	.file 24 "include/linux/time.h"
	.file 25 "include/linux/highuid.h"
	.file 26 "include/linux/seq_file.h"
	.file 27 "/home/extra_home/marklee/rtk_OpenWRT_BB/BB_v1407_branch_v25/v25_relase_source_test_0830/rtk_OpenWRT_v2.5_Branch_20160603/build_dir/target-mips_24kec_uClibc-0.9.33.2/linux-rtkmips_rtl8198c/linux-3.10.49/arch/mips/include/asm/io.h"
	.file 28 "include/linux/mm.h"
	.file 29 "include/linux/mmzone.h"
	.file 30 "include/linux/jiffies.h"
	.file 31 "include/linux/workqueue.h"
	.file 32 "/home/extra_home/marklee/rtk_OpenWRT_BB/BB_v1407_branch_v25/v25_relase_source_test_0830/rtk_OpenWRT_v2.5_Branch_20160603/build_dir/target-mips_24kec_uClibc-0.9.33.2/linux-rtkmips_rtl8198c/linux-3.10.49/arch/mips/include/asm/smp.h"
	.file 33 "/home/extra_home/marklee/rtk_OpenWRT_BB/BB_v1407_branch_v25/v25_relase_source_test_0830/rtk_OpenWRT_v2.5_Branch_20160603/build_dir/target-mips_24kec_uClibc-0.9.33.2/linux-rtkmips_rtl8198c/linux-3.10.49/arch/mips/include/asm/smp-ops.h"
	.file 34 "include/asm-generic/percpu.h"
	.file 35 "include/linux/sched.h"
	.file 36 "include/linux/percpu_counter.h"
	.file 37 "include/linux/quota.h"
	.file 38 "include/linux/interrupt.h"
	.file 39 "include/linux/kernel_stat.h"
	.file 40 "include/linux/slab.h"
	.file 41 "include/linux/ioport.h"
	.file 42 "include/linux/debug_locks.h"
	.file 43 "/home/extra_home/marklee/rtk_OpenWRT_BB/BB_v1407_branch_v25/v25_relase_source_test_0830/rtk_OpenWRT_v2.5_Branch_20160603/build_dir/target-mips_24kec_uClibc-0.9.33.2/linux-rtkmips_rtl8198c/linux-3.10.49/arch/mips/include/asm/pgtable-32.h"
	.file 44 "/home/extra_home/marklee/rtk_OpenWRT_BB/BB_v1407_branch_v25/v25_relase_source_test_0830/rtk_OpenWRT_v2.5_Branch_20160603/build_dir/target-mips_24kec_uClibc-0.9.33.2/linux-rtkmips_rtl8198c/linux-3.10.49/arch/mips/include/asm/pgtable.h"
	.file 45 "include/asm-generic/pgtable.h"
	.file 46 "include/linux/vmstat.h"
	.file 47 "include/linux/netfilter.h"
	.file 48 "include/net/net_namespace.h"
	.file 49 "include/linux/netdevice.h"
	.file 50 "include/net/sock.h"
	.file 51 "include/net/inet_sock.h"
	.file 52 "include/net/ip.h"
	.file 53 "include/net/inet_connection_sock.h"
	.file 54 "include/net/route.h"
	.file 55 "include/net/arp.h"
	.file 56 "include/net/rtl/fastpath/fastpath_core.h"
	.file 57 "/home/extra_home/marklee/rtk_OpenWRT_BB/BB_v1407_branch_v25/v25_relase_source_test_0830/rtk_OpenWRT_v2.5_Branch_20160603/build_dir/target-mips_24kec_uClibc-0.9.33.2/linux-rtkmips_rtl8198c/fastpath-0.1/fast_l2tp_core.h"