	.section .mdebug.abi32
	.previous
	.gnu_attribute 4, 3
	.text
$Ltext0:
	.cfi_sections	.debug_frame
	.align	2
$LFB3309 = .
	.file 1 "/home/extra_home/marklee/rtk_OpenWRT_BB/BB_v1407_branch_v25/v25_relase_source_test_0830/rtk_OpenWRT_v2.5_Branch_20160603/build_dir/target-mips_24kec_uClibc-0.9.33.2/linux-rtkmips_rtl8198c/fastpath-0.1/filter_v2.c"
	.loc 1 503 0
	.cfi_startproc
	.set	nomips16
	.ent	rtl_ip_range_filter_fastpath
	.type	rtl_ip_range_filter_fastpath, @function
rtl_ip_range_filter_fastpath:
	.frame	$sp,24,$31		# vars= 0, regs= 2/0, args= 16, gp= 0
	.mask	0x80010000,-4
	.fmask	0x00000000,0
	.set	noreorder
	.set	nomacro
	addiu	$sp,$sp,-24
	.cfi_def_cfa_offset 24
	sw	$16,16($sp)
	sw	$31,20($sp)
	.cfi_offset 16, -8
	.cfi_offset 31, -4
	.loc 1 507 0
	jal	rtl_ip_hdr
	move	$16,$5

	.loc 1 513 0
	lw	$3,12($2)
	lw	$4,0($16)
	sltu	$4,$3,$4
	bne	$4,$0,$L2
	move	$2,$0

	.loc 1 513 0 is_stmt 0 discriminator 1
	lw	$2,4($16)
	sltu	$2,$2,$3
	xori	$2,$2,0x1
$L2:
	.loc 1 518 0 is_stmt 1
	lw	$31,20($sp)
	lw	$16,16($sp)
	j	$31
	addiu	$sp,$sp,24

	.cfi_def_cfa_offset 0
	.cfi_restore 16
	.cfi_restore 31
	.set	macro
	.set	reorder
	.end	rtl_ip_range_filter_fastpath
	.cfi_endproc
$LFE3309:
	.size	rtl_ip_range_filter_fastpath, .-rtl_ip_range_filter_fastpath
	.align	2
	.globl	rtl_mac_filter_fastpath
$LFB3308 = .
	.loc 1 483 0
	.cfi_startproc
	.set	nomips16
	.ent	rtl_mac_filter_fastpath
	.type	rtl_mac_filter_fastpath, @function
rtl_mac_filter_fastpath:
	.frame	$sp,40,$31		# vars= 0, regs= 6/0, args= 16, gp= 0
	.mask	0x801f0000,-4
	.fmask	0x00000000,0
	.set	noreorder
	.set	nomacro
	addiu	$sp,$sp,-40
	.cfi_def_cfa_offset 40
	sw	$20,32($sp)
	sw	$19,28($sp)
	sw	$18,24($sp)
	sw	$16,16($sp)
	sw	$31,36($sp)
	sw	$17,20($sp)
	.cfi_offset 20, -8
	.cfi_offset 19, -12
	.cfi_offset 18, -16
	.cfi_offset 16, -24
	.cfi_offset 31, -4
	.cfi_offset 17, -20
	.loc 1 483 0
	move	$19,$4
	move	$18,$5
	li	$16,6			# 0x6
	.loc 1 487 0
	li	$20,12			# 0xc
$L8:
	addu	$2,$18,$16
	.loc 1 490 0
	move	$4,$19
	jal	rtl_skb_mac_header
	lbu	$17,-6($2)

	addu	$2,$2,$16
	lbu	$2,0($2)
	bne	$17,$2,$L9
	addiu	$16,$16,1

	.loc 1 487 0
	bne	$16,$20,$L8
	li	$2,1			# 0x1

	.loc 1 498 0
	j	$L13
	lw	$31,36($sp)

$L9:
	move	$2,$0
	lw	$31,36($sp)
$L13:
	lw	$20,32($sp)
	lw	$19,28($sp)
	lw	$18,24($sp)
	lw	$17,20($sp)
	lw	$16,16($sp)
	j	$31
	addiu	$sp,$sp,40

	.cfi_def_cfa_offset 0
	.cfi_restore 16
	.cfi_restore 17
	.cfi_restore 18
	.cfi_restore 19
	.cfi_restore 20
	.cfi_restore 31
	.set	macro
	.set	reorder
	.end	rtl_mac_filter_fastpath
	.cfi_endproc
$LFE3308:
	.size	rtl_mac_filter_fastpath, .-rtl_mac_filter_fastpath
	.align	2
$LFB3310 = .
	.loc 1 523 0
	.cfi_startproc
	.set	nomips16
	.ent	rtl_schedule_filter_fastpath
	.type	rtl_schedule_filter_fastpath, @function
rtl_schedule_filter_fastpath:
	.frame	$sp,32,$31		# vars= 8, regs= 2/0, args= 16, gp= 0
	.mask	0x80010000,-4
	.fmask	0x00000000,0
	.set	noreorder
	.set	nomacro
	addiu	$sp,$sp,-32
	.cfi_def_cfa_offset 32
	.loc 1 533 0
	addiu	$4,$sp,16
	.loc 1 523 0
	sw	$16,24($sp)
	sw	$31,28($sp)
	.cfi_offset 16, -8
	.cfi_offset 31, -4
	.loc 1 533 0
	jal	do_gettimeofday
	move	$16,$5

	.loc 1 534 0
	lw	$3,16($sp)
	li	$4,-1037172736			# 0xffffffffc22e0000
	addiu	$4,$4,17671
	mult	$3,$4
	.loc 1 536 0
	li	$6,-1851654144			# 0xffffffff91a20000
	ori	$6,$6,0xb3c5
	.loc 1 538 0
	li	$8,-2004353024			# 0xffffffff88880000
	ori	$8,$8,0x8889
	.loc 1 536 0
	sra	$7,$3,31
	.loc 1 534 0
	li	$12,-1840709632			# 0xffffffff92490000
	addiu	$12,$12,9363
	lw	$11,8($16)
	mfhi	$4
	addu	$4,$4,$3
	sra	$4,$4,16
	.loc 1 536 0
	mult	$3,$6
	.loc 1 534 0
	subu	$4,$4,$7
	addiu	$4,$4,4
	sra	$2,$4,31
	.loc 1 536 0
	mfhi	$6
	addu	$6,$6,$3
	sra	$6,$6,11
	.loc 1 538 0
	mult	$3,$8
	.loc 1 536 0
	subu	$6,$6,$7
	sra	$10,$6,31
	.loc 1 538 0
	mfhi	$5
	addu	$3,$5,$3
	.loc 1 536 0
	li	$5,715784192			# 0x2aaa0000
	.loc 1 534 0
	mult	$4,$12
	.loc 1 536 0
	ori	$5,$5,0xaaab
	.loc 1 538 0
	sra	$3,$3,5
	subu	$3,$3,$7
	sra	$9,$3,31
	.loc 1 534 0
	mfhi	$12
	addu	$7,$12,$4
	sra	$7,$7,2
	.loc 1 536 0
	mult	$6,$5
	.loc 1 534 0
	subu	$7,$7,$2
	sll	$2,$7,3
	subu	$7,$2,$7
	subu	$4,$4,$7
	.loc 1 543 0
	li	$2,1			# 0x1
	sll	$2,$2,$4
	ori	$2,$2,0x80
	and	$2,$2,$11
	.loc 1 536 0
	mfhi	$5
	sra	$5,$5,2
	subu	$5,$5,$10
	.loc 1 538 0
	mult	$3,$8
	.loc 1 536 0
	sll	$7,$5,3
	sll	$5,$5,5
	subu	$5,$5,$7
	subu	$6,$6,$5
	.loc 1 539 0
	sll	$5,$6,2
	sll	$6,$6,6
	subu	$6,$6,$5
	.loc 1 538 0
	mfhi	$4
	addu	$4,$4,$3
	sra	$4,$4,5
	subu	$4,$4,$9
	sll	$5,$4,2
	sll	$4,$4,6
	subu	$4,$4,$5
	subu	$3,$3,$4
	.loc 1 543 0
	beq	$2,$0,$L15
	addu	$3,$6,$3

	.loc 1 545 0
	lw	$5,0($16)
	bne	$5,$0,$L16
	nop

	.loc 1 545 0 is_stmt 0 discriminator 1
	lw	$6,4($16)
	bne	$6,$0,$L17
	li	$2,1			# 0x1

	.loc 1 553 0 is_stmt 1
	j	$L25
	lw	$31,28($sp)

$L16:
	.loc 1 545 0 discriminator 2
	sltu	$5,$3,$5
	bne	$5,$0,$L15
	move	$2,$0

	lw	$6,4($16)
$L17:
	.loc 1 545 0 is_stmt 0 discriminator 1
	sltu	$3,$6,$3
	xori	$2,$3,0x1
$L15:
	.loc 1 553 0 is_stmt 1
	lw	$31,28($sp)
$L25:
	lw	$16,24($sp)
	j	$31
	addiu	$sp,$sp,32

	.cfi_def_cfa_offset 0
	.cfi_restore 16
	.cfi_restore 31
	.set	macro
	.set	reorder
	.end	rtl_schedule_filter_fastpath
	.cfi_endproc
$LFE3310:
	.size	rtl_schedule_filter_fastpath, .-rtl_schedule_filter_fastpath
	.align	2
	.globl	filter_table_single_open
$LFB3318 = .
	.loc 1 1167 0
	.cfi_startproc
	.set	nomips16
	.ent	filter_table_single_open
	.type	filter_table_single_open, @function
filter_table_single_open:
	.frame	$sp,0,$31		# vars= 0, regs= 0/0, args= 0, gp= 0
	.mask	0x00000000,0
	.fmask	0x00000000,0
	.set	noreorder
	.set	nomacro
	.loc 1 1168 0
	move	$4,$5
	lui	$5,%hi(filter_table_read_proc)
	move	$6,$0
	j	single_open
	addiu	$5,$5,%lo(filter_table_read_proc)

	.set	macro
	.set	reorder
	.end	filter_table_single_open
	.cfi_endproc
$LFE3318:
	.size	filter_table_single_open, .-filter_table_single_open
	.align	2
$LFB3369 = .
	.file 2 "/home/extra_home/marklee/rtk_OpenWRT_BB/BB_v1407_branch_v25/v25_relase_source_test_0830/rtk_OpenWRT_v2.5_Branch_20160603/build_dir/target-mips_24kec_uClibc-0.9.33.2/linux-rtkmips_rtl8198c/fastpath-0.1/filter.c"
	.loc 2 3600 0
	.cfi_startproc
	.set	nomips16
	.ent	dos_single_open
	.type	dos_single_open, @function
dos_single_open:
	.frame	$sp,0,$31		# vars= 0, regs= 0/0, args= 0, gp= 0
	.mask	0x00000000,0
	.fmask	0x00000000,0
	.set	noreorder
	.set	nomacro
	.loc 2 3601 0
	move	$4,$5
	lui	$5,%hi(dos_read_proc)
	move	$6,$0
	j	single_open
	addiu	$5,$5,%lo(dos_read_proc)

	.set	macro
	.set	reorder
	.end	dos_single_open
	.cfi_endproc
$LFE3369:
	.size	dos_single_open, .-dos_single_open
	.section	.rodata.str1.4,"aMS",@progbits,1
	.align	2
$LC0:
	.ascii	"type=%d num=%d\012\000"
	.align	2
$LC1:
	.ascii	"index=%d\011\000"
	.align	2
$LC2:
	.ascii	"mac=%02x:%02x:%02x:%02x:%02x:%02x\012\000"
	.align	2
$LC3:
	.ascii	"index=%d\011\011\000"
	.align	2
$LC4:
	.ascii	"url=%s\012\000"
	.align	2
$LC5:
	.ascii	"start=%x\011\000"
	.align	2
$LC6:
	.ascii	"end=%x\011\000"
	.align	2
$LC7:
	.ascii	"day=%x\012\000"
	.align	2
$LC8:
	.ascii	"unknow table type\012\000"
	.align	2
$LC9:
	.ascii	"Mode:%d %s\012\000"
	.text
	.align	2
$LFB3317 = .
	.loc 1 1046 0
	.cfi_startproc
	.set	nomips16
	.ent	filter_table_read_proc
	.type	filter_table_read_proc, @function
filter_table_read_proc:
	.frame	$sp,72,$31		# vars= 0, regs= 10/0, args= 32, gp= 0
	.mask	0xc0ff0000,-4
	.fmask	0x00000000,0
	.set	noreorder
	.set	nomacro
	addiu	$sp,$sp,-72
	.cfi_def_cfa_offset 72
	sw	$16,32($sp)
	.cfi_offset 16, -40
$LBB563 = .
$LBB564 = .
	.file 3 "include/linux/slub_def.h"
	.loc 3 170 0
	lui	$16,%hi(kmalloc_caches)
$LBE564 = .
$LBE563 = .
	.loc 1 1046 0
	sw	$17,36($sp)
	sw	$31,68($sp)
	sw	$fp,64($sp)
	sw	$23,60($sp)
	sw	$22,56($sp)
	sw	$21,52($sp)
	sw	$20,48($sp)
	sw	$19,44($sp)
	sw	$18,40($sp)
	.cfi_offset 17, -36
	.cfi_offset 31, -4
	.cfi_offset 30, -8
	.cfi_offset 23, -12
	.cfi_offset 22, -16
	.cfi_offset 21, -20
	.cfi_offset 20, -24
	.cfi_offset 19, -28
	.cfi_offset 18, -32
$LBB569 = .
$LBB567 = .
	.loc 3 170 0
	addiu	$16,$16,%lo(kmalloc_caches)
$LBE567 = .
$LBE569 = .
	.loc 1 1046 0
	sw	$4,72($sp)
$LBB570 = .
$LBB568 = .
$LBB565 = .
$LBB566 = .
	.loc 3 142 0
	lw	$4,36($16)
	jal	kmem_cache_alloc
	li	$5,208			# 0xd0

$LBE566 = .
$LBE565 = .
$LBE568 = .
$LBE570 = .
	.loc 1 1053 0
	beq	$2,$0,$L29
	move	$17,$2

$LBB571 = .
	.loc 1 1055 0
	move	$4,$2
	move	$5,$0
	jal	memset
	li	$6,512			# 0x200

$LBE571 = .
$LBB572 = .
$LBB573 = .
$LBB574 = .
$LBB575 = .
	.loc 3 142 0
	lw	$4,32($16)
	jal	kmem_cache_alloc
	li	$5,208			# 0xd0

$LBE575 = .
$LBE574 = .
$LBE573 = .
$LBE572 = .
	.loc 1 1058 0
	bne	$2,$0,$L30
	move	$16,$2

	.loc 1 1060 0
	jal	kfree
	move	$4,$17

	.loc 1 1061 0
	j	$L50
	lw	$31,68($sp)

$L30:
$LBB576 = .
	.loc 1 1063 0
	move	$4,$2
	move	$5,$0
	jal	memset
	li	$6,256			# 0x100

$LBE576 = .
	.loc 1 1095 0
	lui	$22,%hi($LC3)
	.loc 1 1065 0
	lui	$2,%hi(table_list_head)
$LBB577 = .
	.loc 1 1134 0
	lui	$20,%hi($LC1)
$LBE577 = .
	.loc 1 1065 0
	lw	$19,%lo(table_list_head)($2)
	.loc 1 1095 0
	addiu	$22,$22,%lo($LC3)
	.loc 1 1065 0
	j	$L51
	addiu	$20,$20,%lo($LC1)

$L44:
	.loc 1 1075 0
	lw	$7,24($19)
	lw	$6,16($19)
	move	$4,$17
	addiu	$5,$2,%lo($LC0)
	jal	sprintf
	addiu	$7,$7,-1

	.loc 1 1077 0
	lw	$2,16($19)
	li	$3,3			# 0x3
	beq	$2,$3,$L33
	li	$3,4			# 0x4

	beq	$2,$3,$L34
	li	$3,2			# 0x2

	bne	$2,$3,$L48
	move	$4,$16

	.loc 1 1086 0
	lui	$23,%hi($LC2)
	.loc 1 1080 0
	lw	$18,8($19)
	addiu	$21,$19,8
	j	$L52
	addiu	$23,$23,%lo($LC2)

$L37:
	.loc 1 1083 0 discriminator 2
	jal	sprintf
	lw	$6,20($18)

	.loc 1 1085 0 discriminator 2
	move	$4,$17
	jal	strcat
	move	$5,$16

	.loc 1 1086 0 discriminator 2
	lbu	$2,30($18)
	lbu	$6,28($18)
	lbu	$7,29($18)
	sw	$2,16($sp)
	lbu	$2,31($18)
	move	$4,$16
	move	$5,$23
	sw	$2,20($sp)
	lbu	$2,32($18)
	sw	$2,24($sp)
	lbu	$2,33($18)
	jal	sprintf
	sw	$2,28($sp)

	.loc 1 1087 0 discriminator 2
	move	$4,$17
	jal	strcat
	move	$5,$16

	.loc 1 1080 0 discriminator 2
	lw	$18,0($18)
	.loc 1 1083 0 discriminator 1
	move	$4,$16
$L52:
	.loc 1 1080 0 discriminator 1
	bne	$18,$21,$L37
	move	$5,$20

	.loc 1 1065 0
	j	$L31
	lw	$19,0($19)

$L33:
	.loc 1 1092 0
	lw	$18,8($19)
	j	$L39
	addiu	$21,$19,8

$L40:
	.loc 1 1095 0 discriminator 2
	jal	sprintf
	lw	$6,20($18)

	.loc 1 1096 0 discriminator 2
	move	$4,$17
	jal	strcat
	move	$5,$16

	.loc 1 1101 0 discriminator 2
	lui	$5,%hi($LC4)
	addiu	$6,$18,28
	move	$4,$16
	jal	sprintf
	addiu	$5,$5,%lo($LC4)

	.loc 1 1103 0 discriminator 2
	move	$4,$17
	jal	strcat
	move	$5,$16

	.loc 1 1092 0 discriminator 2
	lw	$18,0($18)
$L39:
	.loc 1 1095 0 discriminator 1
	move	$4,$16
	.loc 1 1092 0 discriminator 1
	bne	$18,$21,$L40
	move	$5,$22

	.loc 1 1065 0
	j	$L31
	lw	$19,0($19)

$L34:
$LBB578 = .
	.loc 1 1140 0
	lui	$2,%hi($LC5)
	.loc 1 1143 0
	lui	$23,%hi($LC6)
	.loc 1 1131 0
	lw	$18,8($19)
	addiu	$21,$19,8
	.loc 1 1140 0
	addiu	$fp,$2,%lo($LC5)
	.loc 1 1131 0
	j	$L42
	addiu	$23,$23,%lo($LC6)

$L43:
	.loc 1 1134 0 discriminator 2
	jal	sprintf
	lw	$6,20($18)

	.loc 1 1135 0 discriminator 2
	move	$4,$17
	jal	strcat
	move	$5,$16

	.loc 1 1140 0 discriminator 2
	lw	$6,28($18)
	move	$4,$16
	jal	sprintf
	move	$5,$fp

	.loc 1 1141 0 discriminator 2
	move	$4,$17
	jal	strcat
	move	$5,$16

	.loc 1 1143 0 discriminator 2
	lw	$6,32($18)
	move	$4,$16
	jal	sprintf
	move	$5,$23

	.loc 1 1144 0 discriminator 2
	move	$4,$17
	jal	strcat
	move	$5,$16

	.loc 1 1146 0 discriminator 2
	lw	$6,36($18)
	lui	$5,%hi($LC7)
	move	$4,$16
	jal	sprintf
	addiu	$5,$5,%lo($LC7)

	.loc 1 1147 0 discriminator 2
	move	$4,$17
	jal	strcat
	move	$5,$16

	.loc 1 1131 0 discriminator 2
	lw	$18,0($18)
$L42:
	.loc 1 1134 0 discriminator 1
	move	$4,$16
	.loc 1 1131 0 discriminator 1
	bne	$18,$21,$L43
	move	$5,$20

$LBE578 = .
	.loc 1 1065 0
	j	$L31
	lw	$19,0($19)

$L48:
	.loc 1 1153 0
	lui	$5,%hi($LC8)
	jal	sprintf
	addiu	$5,$5,%lo($LC8)

	.loc 1 1154 0
	move	$4,$17
	jal	strcat
	move	$5,$16

	.loc 1 1065 0
	lw	$19,0($19)
$L31:
	.loc 1 1065 0 is_stmt 0 discriminator 1
	lui	$2,%hi(table_list_head)
$L51:
	addiu	$2,$2,%lo(table_list_head)
	bne	$19,$2,$L44
	lui	$2,%hi($LC0)

	.loc 1 1159 0 is_stmt 1
	lui	$2,%hi(url_filter_mode)
	lw	$6,%lo(url_filter_mode)($2)
	lw	$4,72($sp)
	lui	$5,%hi($LC9)
	addiu	$5,$5,%lo($LC9)
	jal	seq_printf
	move	$7,$17

	.loc 1 1161 0
	jal	kfree
	move	$4,$17

	.loc 1 1162 0
	jal	kfree
	move	$4,$16

$L29:
	.loc 1 1164 0
	lw	$31,68($sp)
$L50:
	lw	$fp,64($sp)
	lw	$23,60($sp)
	lw	$22,56($sp)
	lw	$21,52($sp)
	lw	$20,48($sp)
	lw	$19,44($sp)
	lw	$18,40($sp)
	lw	$17,36($sp)
	lw	$16,32($sp)
	move	$2,$0
	j	$31
	addiu	$sp,$sp,72

	.cfi_def_cfa_offset 0
	.cfi_restore 16
	.cfi_restore 17
	.cfi_restore 18
	.cfi_restore 19
	.cfi_restore 20
	.cfi_restore 21
	.cfi_restore 22
	.cfi_restore 23
	.cfi_restore 30
	.cfi_restore 31
	.set	macro
	.set	reorder
	.end	filter_table_read_proc
	.cfi_endproc
$LFE3317:
	.size	filter_table_read_proc, .-filter_table_read_proc
	.section	.rodata.str1.4
	.align	2
$LC10:
	.ascii	"br-lan\000"
	.align	2
$LC11:
	.ascii	"HTTP/1.1 401 The web site is blocked by administrator\015"
	.ascii	"\012Server: Embedded HTTP Server 2.00\015\012Connection:"
	.ascii	" close\015\012\015\012<HTML><HEAD><TITLE>401 The web sit"
	.ascii	"e is blocked by administrator</TITLE></HEAD>\012<BODY BG"
	.ascii	"COLOR=\"#ffffff\"><H4>401 The web site is blocked by adm"
	.ascii	"inistrator</H4></BODY></HTML>\012\000"
	.text
	.align	2
	.globl	GenerateHTTP401
$LFB3329 = .
	.loc 2 809 0
	.cfi_startproc
	.set	nomips16
	.ent	GenerateHTTP401
	.type	GenerateHTTP401, @function
GenerateHTTP401:
	.frame	$sp,168,$31		# vars= 112, regs= 10/0, args= 16, gp= 0
	.mask	0xc0ff0000,-4
	.fmask	0x00000000,0
	addiu	$sp,$sp,-168
	.cfi_def_cfa_offset 168
	sw	$19,140($sp)
	.cfi_offset 19, -28
	move	$19,$4
	.loc 2 847 0
	lui	$4,%hi($LC10)
	addiu	$4,$4,%lo($LC10)
	.loc 2 809 0
	sw	$31,164($sp)
	sw	$16,128($sp)
	sw	$fp,160($sp)
	sw	$23,156($sp)
	sw	$22,152($sp)
	sw	$21,148($sp)
	sw	$20,144($sp)
	sw	$18,136($sp)
	.cfi_offset 31, -4
	.cfi_offset 16, -40
	.cfi_offset 30, -8
	.cfi_offset 23, -12
	.cfi_offset 22, -16
	.cfi_offset 21, -20
	.cfi_offset 20, -24
	.cfi_offset 18, -32
	.cfi_offset 17, -36
	.loc 2 847 0
	.set	noreorder
	.set	nomacro
	jal	rtl_get_dev_by_name
	sw	$17,132($sp)
	.set	macro
	.set	reorder

	.loc 2 849 0
	move	$4,$19
	.set	noreorder
	.set	nomacro
	jal	rtl_ip_hdr
	move	$16,$2
	.set	macro
	.set	reorder

	.loc 2 852 0
	addiu	$4,$2,12
	.set	noreorder
	.set	nomacro
	jal	rtl_neigh_lookup
	move	$5,$16
	.set	macro
	.set	reorder

	.loc 2 853 0
	.set	noreorder
	.set	nomacro
	beq	$2,$0,$L86
	move	$16,$2
	.set	macro
	.set	reorder

	.loc 2 853 0 is_stmt 0 discriminator 1
	.set	noreorder
	.set	nomacro
	jal	rtl_get_hh_from_neigh
	move	$4,$2
	.set	macro
	.set	reorder

	.set	noreorder
	.set	nomacro
	bne	$2,$0,$L89
	lui	$22,%hi(block_message)
	.set	macro
	.set	reorder

	.file 4 "include/net/neighbour.h"
	.loc 4 300 0 is_stmt 1
	.set	noreorder
	.set	nomacro
	j	$L97
	addiu	$2,$16,24
	.set	macro
	.set	reorder

$L83:
$LBB579 = .
$LBB580 = .
$LBB581 = .
$LBB582 = .
$LBB583 = .
	.file 5 "/home/extra_home/marklee/rtk_OpenWRT_BB/BB_v1407_branch_v25/v25_relase_source_test_0830/rtk_OpenWRT_v2.5_Branch_20160603/build_dir/target-mips_24kec_uClibc-0.9.33.2/linux-rtkmips_rtl8198c/linux-3.10.49/arch/mips/include/asm/atomic.h"
	.loc 5 207 0
#APP
 # 207 "/home/extra_home/marklee/rtk_OpenWRT_BB/BB_v1407_branch_v25/v25_relase_source_test_0830/rtk_OpenWRT_v2.5_Branch_20160603/build_dir/target-mips_24kec_uClibc-0.9.33.2/linux-rtkmips_rtl8198c/linux-3.10.49/arch/mips/include/asm/atomic.h" 1
		.set	mips3				
	ll	$3, 0($2)	# atomic_sub_return	
	subu	$4, $3, 1			
	sc	$4, 0($2)				
	.set	mips0				

 # 0 "" 2
	.loc 5 215 0
#NO_APP
	bne	$4,$0,$L96
	j	$L83
$L89:
$LBE583 = .
$LBE582 = .
$LBE581 = .
$LBE580 = .
$LBE579 = .
	.loc 2 927 0
	lw	$4,%lo(block_message)($22)
	bne	$4,$0,$L93
	.loc 2 930 0
	lui	$4,%hi($LC11)
	addiu	$4,$4,%lo($LC11)
$L93:
	jal	strlen
	move	$6,$2
	move	$4,$19
	li	$5,128			# 0x80
	.set	noreorder
	.set	nomacro
	jal	skb_copy_expand
	li	$7,32			# 0x20
	.set	macro
	.set	reorder

	.loc 2 932 0
	.set	noreorder
	.set	nomacro
	bne	$2,$0,$L90
	move	$18,$2
	.set	macro
	.set	reorder

$LBB587 = .
$LBB588 = .
	.loc 4 300 0
	addiu	$2,$16,24
$LBB589 = .
$LBB590 = .
	.loc 5 185 0
#APP
 # 185 "/home/extra_home/marklee/rtk_OpenWRT_BB/BB_v1407_branch_v25/v25_relase_source_test_0830/rtk_OpenWRT_v2.5_Branch_20160603/build_dir/target-mips_24kec_uClibc-0.9.33.2/linux-rtkmips_rtl8198c/linux-3.10.49/arch/mips/include/asm/atomic.h" 1
			

 # 0 "" 2
#NO_APP
$L63:
$LBB591 = .
	.loc 5 207 0
#APP
 # 207 "/home/extra_home/marklee/rtk_OpenWRT_BB/BB_v1407_branch_v25/v25_relase_source_test_0830/rtk_OpenWRT_v2.5_Branch_20160603/build_dir/target-mips_24kec_uClibc-0.9.33.2/linux-rtkmips_rtl8198c/linux-3.10.49/arch/mips/include/asm/atomic.h" 1
		.set	mips3				
	ll	$3, 0($2)	# atomic_sub_return	
	subu	$4, $3, 1			
	sc	$4, 0($2)				
	.set	mips0				

 # 0 "" 2
	.loc 5 215 0
#NO_APP
	beq	$4,$0,$L63
$L96:
$LBE591 = .
	.loc 5 228 0
#APP
 # 228 "/home/extra_home/marklee/rtk_OpenWRT_BB/BB_v1407_branch_v25/v25_relase_source_test_0830/rtk_OpenWRT_v2.5_Branch_20160603/build_dir/target-mips_24kec_uClibc-0.9.33.2/linux-rtkmips_rtl8198c/linux-3.10.49/arch/mips/include/asm/atomic.h" 1
			

 # 0 "" 2
#NO_APP
$LBE590 = .
$LBE589 = .
	.loc 4 300 0
	li	$2,1			# 0x1
	bne	$3,$2,$L86
	.loc 4 301 0
	.set	noreorder
	.set	nomacro
	jal	neigh_destroy
	move	$4,$16
	.set	macro
	.set	reorder

$LBE588 = .
$LBE587 = .
	.loc 2 1040 0
	.set	noreorder
	.set	nomacro
	j	$L98
	lw	$31,164($sp)
	.set	macro
	.set	reorder

$L90:
	.loc 2 940 0
	.set	noreorder
	.set	nomacro
	jal	rtl_ip_hdr
	move	$4,$18
	.set	macro
	.set	reorder

	move	$17,$2
	.loc 2 941 0
	lw	$2,0($2)
	.loc 2 944 0
	move	$4,$18
	.loc 2 941 0
	ext	$2,$2,24,4
	sll	$21,$2,2
	addu	$21,$17,$21
	.loc 2 944 0
	lw	$3,12($21)
	srl	$3,$3,28
	addu	$5,$2,$3
	.set	noreorder
	.set	nomacro
	jal	skb_trim
	sll	$5,$5,2
	.set	macro
	.set	reorder

	.loc 2 946 0
	lw	$4,%lo(block_message)($22)
	bne	$4,$0,$L92
	.loc 2 949 0
	lui	$4,%hi($LC11)
	addiu	$4,$4,%lo($LC11)
$L92:
	jal	strlen
	move	$5,$2
	.set	noreorder
	.set	nomacro
	jal	skb_put
	move	$4,$18
	.set	macro
	.set	reorder

	.loc 2 951 0
	.set	noreorder
	.set	nomacro
	jal	rtl_get_hh_from_neigh
	move	$4,$16
	.set	macro
	.set	reorder

	move	$20,$2
$L66:
$LBB592 = .
$LBB593 = .
$LBB594 = .
$LBB595 = .
$LBB596 = .
	.file 6 "include/linux/seqlock.h"
	.loc 6 64 0
	lw	$23,4($20)
	.loc 6 65 0
	andi	$2,$23,0x1
	beq	$2,$0,$L67
	.loc 6 66 0
	j	$L66
$L67:
$LBE596 = .
$LBE595 = .
	.loc 6 84 0
#APP
 # 84 "include/linux/seqlock.h" 1
	sync
 # 0 "" 2
#NO_APP
$LBE594 = .
$LBE593 = .
$LBE592 = .
$LBB597 = .
	.loc 2 956 0
	.set	noreorder
	.set	nomacro
	jal	rtl_get_skb_data
	move	$4,$18
	.set	macro
	.set	reorder

	move	$4,$20
	.set	noreorder
	.set	nomacro
	jal	rtl_get_data_from_hh
	move	$fp,$2
	.set	macro
	.set	reorder

	lwl	$7,0($2)
	lwl	$6,4($2)
	lwl	$5,8($2)
	lwl	$4,12($2)
	lwr	$7,3($2)
	addiu	$3,$fp,-16
	lwr	$6,7($2)
	lwr	$5,11($2)
	lwr	$4,15($2)
	swl	$7,0($3)
	swr	$7,3($3)
	swl	$6,4($3)
	swr	$6,7($3)
	swl	$5,8($3)
	swr	$5,11($3)
	swl	$4,12($3)
	swr	$4,15($3)
$LBE597 = .
$LBB598 = .
$LBB599 = .
$LBB600 = .
	.loc 6 140 0
#APP
 # 140 "include/linux/seqlock.h" 1
	sync
 # 0 "" 2
#NO_APP
$LBE600 = .
$LBE599 = .
$LBE598 = .
	.loc 2 958 0
	lw	$2,4($20)
	bne	$23,$2,$L66
	.loc 2 959 0
	.set	noreorder
	.set	nomacro
	jal	rtl_get_len_from_hh
	move	$4,$20
	.set	macro
	.set	reorder

	move	$5,$2
	.set	noreorder
	.set	nomacro
	jal	skb_push
	move	$4,$18
	.set	macro
	.set	reorder

$LBB601 = .
$LBB602 = .
	.loc 4 300 0
	addiu	$2,$16,24
$LBB603 = .
$LBB604 = .
	.loc 5 185 0
#APP
 # 185 "/home/extra_home/marklee/rtk_OpenWRT_BB/BB_v1407_branch_v25/v25_relase_source_test_0830/rtk_OpenWRT_v2.5_Branch_20160603/build_dir/target-mips_24kec_uClibc-0.9.33.2/linux-rtkmips_rtl8198c/linux-3.10.49/arch/mips/include/asm/atomic.h" 1
			

 # 0 "" 2
#NO_APP
$L70:
$LBB605 = .
	.loc 5 207 0
#APP
 # 207 "/home/extra_home/marklee/rtk_OpenWRT_BB/BB_v1407_branch_v25/v25_relase_source_test_0830/rtk_OpenWRT_v2.5_Branch_20160603/build_dir/target-mips_24kec_uClibc-0.9.33.2/linux-rtkmips_rtl8198c/linux-3.10.49/arch/mips/include/asm/atomic.h" 1
		.set	mips3				
	ll	$3, 0($2)	# atomic_sub_return	
	subu	$4, $3, 1			
	sc	$4, 0($2)				
	.set	mips0				

 # 0 "" 2
	.loc 5 215 0
#NO_APP
	beq	$4,$0,$L70
$LBE605 = .
	.loc 5 228 0
#APP
 # 228 "/home/extra_home/marklee/rtk_OpenWRT_BB/BB_v1407_branch_v25/v25_relase_source_test_0830/rtk_OpenWRT_v2.5_Branch_20160603/build_dir/target-mips_24kec_uClibc-0.9.33.2/linux-rtkmips_rtl8198c/linux-3.10.49/arch/mips/include/asm/atomic.h" 1
			

 # 0 "" 2
#NO_APP
$LBE604 = .
$LBE603 = .
	.loc 4 300 0
	li	$2,1			# 0x1
	.set	noreorder
	.set	nomacro
	bne	$3,$2,$L100
	move	$4,$18
	.set	macro
	.set	reorder

	.loc 4 301 0
	.set	noreorder
	.set	nomacro
	jal	neigh_destroy
	move	$4,$16
	.set	macro
	.set	reorder

$LBE602 = .
$LBE601 = .
	.loc 2 962 0
	move	$4,$18
$L100:
	.set	noreorder
	.set	nomacro
	jal	rtl_set_skb_nfct
	move	$5,$0
	.set	macro
	.set	reorder

	.loc 2 968 0
	lw	$16,0($17)
	.loc 2 965 0
	lw	$2,12($17)
	.loc 2 966 0
	lw	$3,16($17)
	.loc 2 968 0
	ext	$16,$16,24,4
	sll	$16,$16,2
	addu	$16,$17,$16
	.loc 2 967 0
	sw	$2,16($17)
	.loc 2 966 0
	sw	$3,12($17)
	.loc 2 969 0
	lw	$4,12($16)
	.loc 2 970 0
	lhu	$3,0($16)
	.loc 2 971 0
	lhu	$5,2($16)
	.loc 2 974 0
	lw	$2,%lo(block_message)($22)
	.loc 2 969 0
	srl	$4,$4,28
	sll	$4,$4,2
	addu	$20,$16,$4
	.loc 2 971 0
	sh	$5,0($16)
	.loc 2 974 0
	.set	noreorder
	.set	nomacro
	beq	$2,$0,$L72
	sh	$3,2($16)
	.set	macro
	.set	reorder

$LBB606 = .
	.loc 2 975 0
	.set	noreorder
	.set	nomacro
	jal	strlen
	move	$4,$2
	.set	macro
	.set	reorder

	lui	$3,%hi(block_message)
	lw	$5,%lo(block_message)($3)
	move	$4,$20
	.set	noreorder
	.set	nomacro
	jal	memcpy
	addiu	$6,$2,1
	.set	macro
	.set	reorder

$LBE606 = .
	.set	noreorder
	.set	nomacro
	j	$L99
	lw	$2,8($16)
	.set	macro
	.set	reorder

$L72:
$LBB607 = .
	.loc 2 977 0
	lui	$22,%hi($LC11)
	.set	noreorder
	.set	nomacro
	jal	strlen
	addiu	$4,$22,%lo($LC11)
	.set	macro
	.set	reorder

	move	$6,$2
	move	$4,$20
	.set	noreorder
	.set	nomacro
	jal	memcpy
	addiu	$5,$22,%lo($LC11)
	.set	macro
	.set	reorder

$LBE607 = .
	.loc 2 980 0
	lw	$2,8($16)
$L99:
	.loc 2 979 0
	lw	$22,4($16)
	.loc 2 982 0
	move	$4,$19
	.set	noreorder
	.set	nomacro
	jal	rtl_get_skb_len
	sw	$2,4($16)
	.set	macro
	.set	reorder

	lw	$6,12($21)
	lw	$5,0($17)
	.loc 2 984 0
	sb	$0,13($16)
	.loc 2 985 0
	lhu	$3,12($16)
	.loc 2 982 0
	srl	$6,$6,28
	ext	$5,$5,24,4
	subu	$6,$0,$6
	.loc 2 983 0
	lui	$20,%hi(url_cache)
	.loc 2 986 0
	li	$4,1			# 0x1
	.loc 2 982 0
	subu	$6,$6,$5
	.loc 2 985 0
	ins	$3,$0,2,1
	.loc 2 983 0
	addiu	$19,$20,%lo(url_cache)
	lhu	$5,12($19)
	.loc 2 986 0
	ins	$3,$4,4,1
	.loc 2 982 0
	sll	$6,$6,2
	.loc 2 987 0
	ins	$3,$4,3,1
	.loc 2 982 0
	addu	$22,$6,$22
	.loc 2 988 0
	ins	$3,$0,0,1
	.loc 2 982 0
	addu	$2,$22,$2
	.loc 2 983 0
	sh	$5,14($16)
	.loc 2 988 0
	sh	$3,12($16)
	.loc 2 991 0
	move	$4,$18
	.loc 2 982 0
	sw	$2,8($16)
	.loc 2 991 0
	.set	noreorder
	.set	nomacro
	jal	rtl_get_skb_len
	sh	$0,18($16)
	.set	macro
	.set	reorder

	lw	$5,0($17)
	.loc 2 993 0
	lw	$4,12($21)
	.loc 2 836 0
	li	$3,20			# 0x14
	.loc 2 991 0
	ext	$21,$5,24,4
	subu	$21,$0,$21
	sll	$21,$21,2
	addiu	$21,$21,-14
	.loc 2 993 0
	srl	$4,$4,28
	.loc 2 991 0
	addu	$21,$21,$2
	.loc 2 993 0
	sll	$4,$4,2
	.loc 2 995 0
	.set	noreorder
	.set	nomacro
	j	$L74
	li	$5,8			# 0x8
	.set	macro
	.set	reorder

$L79:
	.loc 2 997 0
	lbu	$7,0($6)
	.loc 2 998 0
	sltu	$2,$7,2
	beq	$2,$0,$L75
	.loc 2 1001 0
	.set	noreorder
	.set	nomacro
	j	$L74
	addiu	$3,$3,1
	.set	macro
	.set	reorder

$L75:
	.loc 2 1006 0
	.set	noreorder
	.set	nomacro
	bne	$7,$5,$L77
	lbu	$2,1($6)
	.set	macro
	.set	reorder

$LBB608 = .
	.loc 2 1009 0
	addiu	$2,$3,6
	addu	$2,$16,$2
	lwl	$5,0($2)
$LBE608 = .
	.loc 2 1005 0
	addiu	$3,$3,2
$LBB609 = .
	.loc 2 1008 0
	addu	$3,$16,$3
	lwl	$4,0($3)
$LBE609 = .
$LBB610 = .
	.loc 2 1009 0
	lwr	$5,3($2)
$LBE610 = .
$LBB611 = .
	.loc 2 1008 0
	lwr	$4,3($3)
$LBE611 = .
$LBB612 = .
	.loc 2 1010 0
	swl	$5,0($3)
	swr	$5,3($3)
$LBE612 = .
$LBB613 = .
	.loc 2 1011 0
	swl	$4,0($2)
$LBE613 = .
$LBB614 = .
	.loc 2 1008 0
	sw	$4,120($sp)
$LBE614 = .
$LBB615 = .
	.loc 2 1009 0
	sw	$5,116($sp)
$LBE615 = .
	.loc 2 1012 0
	.set	noreorder
	.set	nomacro
	j	$L78
	swr	$4,3($2)
	.set	macro
	.set	reorder

$L77:
	.loc 2 1014 0
	addu	$3,$3,$2
$L74:
	.loc 2 995 0 discriminator 1
	sltu	$2,$3,$4
	.set	noreorder
	.set	nomacro
	bne	$2,$0,$L79
	addu	$6,$16,$3
	.set	macro
	.set	reorder

$L78:
	.loc 2 1017 0
	sh	$0,16($16)
	.loc 2 1018 0
	lw	$23,16($17)
	move	$5,$21
	move	$6,$0
	move	$4,$16
	andi	$21,$21,0xffff
	lw	$22,12($17)
	.set	noreorder
	.set	nomacro
	jal	csum_partial
	addiu	$21,$21,6
	.set	macro
	.set	reorder

	.loc 2 1019 0
	move	$4,$18
$LBB616 = .
$LBB617 = .
$LBB618 = .
	.file 7 "/home/extra_home/marklee/rtk_OpenWRT_BB/BB_v1407_branch_v25/v25_relase_source_test_0830/rtk_OpenWRT_v2.5_Branch_20160603/build_dir/target-mips_24kec_uClibc-0.9.33.2/linux-rtkmips_rtl8198c/linux-3.10.49/arch/mips/include/asm/checksum.h"
	.loc 7 136 0
	move	$3,$23
#APP
 # 136 "/home/extra_home/marklee/rtk_OpenWRT_BB/BB_v1407_branch_v25/v25_relase_source_test_0830/rtk_OpenWRT_v2.5_Branch_20160603/build_dir/target-mips_24kec_uClibc-0.9.33.2/linux-rtkmips_rtl8198c/linux-3.10.49/arch/mips/include/asm/checksum.h" 1
		.set	push		# csum_tcpudp_nofold
	.set	noat		
	addu	$3, $22		
	sltu	$1, $3, $22	
	addu	$3, $1		
	addu	$3, $21		
	sltu	$1, $3, $21	
	addu	$3, $1		
	addu	$3, $2		
	sltu	$1, $3, $2	
	addu	$3, $1		
	.set	pop
 # 0 "" 2
#NO_APP
$LBE618 = .
$LBE617 = .
$LBB619 = .
$LBB620 = .
	.loc 7 78 0
#APP
 # 78 "/home/extra_home/marklee/rtk_OpenWRT_BB/BB_v1407_branch_v25/v25_relase_source_test_0830/rtk_OpenWRT_v2.5_Branch_20160603/build_dir/target-mips_24kec_uClibc-0.9.33.2/linux-rtkmips_rtl8198c/linux-3.10.49/arch/mips/include/asm/checksum.h" 1
		.set	push		# csum_fold
	.set	noat		
	sll	$1, $3, 16	
	addu	$3, $1		
	sltu	$1, $3, $1	
	srl	$3, $3, 16	
	addu	$3, $1		
	xori	$3, 0xffff	
	.set	pop
 # 0 "" 2
#NO_APP
$LBE620 = .
$LBE619 = .
$LBE616 = .
	.loc 2 1019 0
	.set	noreorder
	.set	nomacro
	jal	rtl_get_skb_len
	sh	$3,16($16)
	.set	macro
	.set	reorder

	.loc 2 1022 0
	lhu	$4,%lo(url_cache)($20)
	.loc 2 1020 0
	lbu	$3,14($19)
	.loc 2 1019 0
	addiu	$2,$2,-14
	.loc 2 1022 0
	addiu	$4,$4,2
	.loc 2 1019 0
	sh	$2,2($17)
	.loc 2 1022 0
	sh	$4,4($17)
	.loc 2 1021 0
	sh	$0,6($17)
	.loc 2 1025 0
	lw	$4,0($17)
$LBB621 = .
$LBB622 = .
	.loc 7 109 0
	lw	$6,4($17)
$LBE622 = .
$LBE621 = .
	.loc 2 1020 0
	sb	$3,8($17)
	.loc 2 1024 0
	sh	$0,10($17)
$LBB630 = .
$LBB627 = .
	.loc 7 113 0
	lw	$2,8($17)
	.loc 7 109 0
	addu	$5,$6,$4
	.loc 7 117 0
	lw	$3,12($17)
	.loc 7 110 0
	sltu	$6,$5,$6
	.loc 7 111 0
	addu	$5,$5,$2
	.loc 7 113 0
	addu	$6,$5,$6
	.loc 7 114 0
	sltu	$2,$6,$2
	.loc 7 115 0
	addu	$6,$6,$3
	.loc 7 117 0
	addu	$2,$6,$2
$LBE627 = .
$LBE630 = .
	.loc 2 1025 0
	ext	$4,$4,24,4
$LBB631 = .
$LBB628 = .
	.loc 7 118 0
	sltu	$5,$2,$3
	.loc 7 104 0
	sll	$4,$4,2
	addu	$4,$17,$4
	.loc 7 119 0
	addu	$5,$5,$2
	.loc 7 121 0
	addiu	$3,$17,16
$L81:
	.loc 7 123 0
	lw	$2,0($3)
	.loc 7 126 0
	addiu	$3,$3,4
	.loc 7 123 0
	addu	$5,$5,$2
	.loc 7 124 0
	sltu	$2,$5,$2
	.loc 7 127 0
	.set	noreorder
	.set	nomacro
	bne	$4,$3,$L81
	addu	$5,$2,$5
	.set	macro
	.set	reorder

$LBB623 = .
$LBB624 = .
	.loc 7 78 0
#APP
 # 78 "/home/extra_home/marklee/rtk_OpenWRT_BB/BB_v1407_branch_v25/v25_relase_source_test_0830/rtk_OpenWRT_v2.5_Branch_20160603/build_dir/target-mips_24kec_uClibc-0.9.33.2/linux-rtkmips_rtl8198c/linux-3.10.49/arch/mips/include/asm/checksum.h" 1
		.set	push		# csum_fold
	.set	noat		
	sll	$1, $5, 16	
	addu	$5, $1		
	sltu	$1, $5, $1	
	srl	$5, $5, 16	
	addu	$5, $1		
	xori	$5, 0xffff	
	.set	pop
 # 0 "" 2
#NO_APP
$LBE624 = .
$LBE623 = .
$LBE628 = .
$LBE631 = .
	.loc 2 1026 0
	li	$2,1			# 0x1
$LBB632 = .
	.loc 2 1027 0
	move	$4,$18
$LBE632 = .
$LBB633 = .
$LBB629 = .
$LBB626 = .
$LBB625 = .
	.loc 7 91 0
	sh	$5,10($17)
$LBE625 = .
$LBE626 = .
$LBE629 = .
$LBE633 = .
$LBB634 = .
	.loc 2 1027 0
	.set	noreorder
	.set	nomacro
	jal	rtl_get_skb_data
	sb	$2,15($19)
	.set	macro
	.set	reorder

	addiu	$8,$2,48
	addiu	$3,$sp,16
$L82:
	lwl	$7,0($2)
	lwl	$6,4($2)
	lwl	$5,8($2)
	lwl	$4,12($2)
	lwr	$7,3($2)
	lwr	$6,7($2)
	lwr	$5,11($2)
	lwr	$4,15($2)
	addiu	$2,$2,16
	sw	$7,0($3)
	sw	$6,4($3)
	sw	$5,8($3)
	sw	$4,12($3)
	.set	noreorder
	.set	nomacro
	bne	$2,$8,$L82
	addiu	$3,$3,16
	.set	macro
	.set	reorder

	lwl	$5,0($2)
$LBE634 = .
	.loc 2 1038 0
	move	$4,$18
$LBB635 = .
	.loc 2 1027 0
	lwr	$5,3($2)
	sw	$5,0($3)
	lbu	$5,4($2)
	sb	$5,4($3)
	lbu	$2,5($2)
	sb	$2,5($3)
$LBE635 = .
	.loc 2 1029 0
	lhu	$5,2($16)
	.loc 2 1030 0
	lw	$3,8($16)
	.loc 2 1029 0
	lui	$2,%hi(finStateClientPort)
	sh	$5,%lo(finStateClientPort)($2)
	.loc 2 1030 0
	lui	$2,%hi(finStateClientSeq)
	.loc 2 1038 0
	.set	noreorder
	.set	nomacro
	jal	dev_queue_xmit
	sw	$3,%lo(finStateClientSeq)($2)
	.set	macro
	.set	reorder

	.loc 2 1039 0
	.set	noreorder
	.set	nomacro
	j	$L98
	lw	$31,164($sp)
	.set	macro
	.set	reorder

$L97:
$LBB636 = .
$LBB586 = .
$LBB585 = .
$LBB584 = .
	.loc 5 185 0
#APP
 # 185 "/home/extra_home/marklee/rtk_OpenWRT_BB/BB_v1407_branch_v25/v25_relase_source_test_0830/rtk_OpenWRT_v2.5_Branch_20160603/build_dir/target-mips_24kec_uClibc-0.9.33.2/linux-rtkmips_rtl8198c/linux-3.10.49/arch/mips/include/asm/atomic.h" 1
			

 # 0 "" 2
#NO_APP
	j	$L83
$L86:
$LBE584 = .
$LBE585 = .
$LBE586 = .
$LBE636 = .
	.loc 2 1040 0
	lw	$31,164($sp)
$L98:
	lw	$fp,160($sp)
	lw	$23,156($sp)
	lw	$22,152($sp)
	lw	$21,148($sp)
	lw	$20,144($sp)
	lw	$19,140($sp)
	lw	$18,136($sp)
	lw	$17,132($sp)
	lw	$16,128($sp)
	move	$2,$0
	.set	noreorder
	.set	nomacro
	j	$31
	addiu	$sp,$sp,168
	.set	macro
	.set	reorder

	.cfi_def_cfa_offset 0
	.cfi_restore 16
	.cfi_restore 17
	.cfi_restore 18
	.cfi_restore 19
	.cfi_restore 20
	.cfi_restore 21
	.cfi_restore 22
	.cfi_restore 23
	.cfi_restore 30
	.cfi_restore 31
	.end	GenerateHTTP401
	.cfi_endproc
$LFE3329:
	.size	GenerateHTTP401, .-GenerateHTTP401
	.align	2
$LFB3327 = .
	.loc 2 521 0
	.cfi_startproc
	.set	nomips16
	.ent	GenerateTCPENDACK
	.type	GenerateTCPENDACK, @function
GenerateTCPENDACK:
	.frame	$sp,104,$31		# vars= 48, regs= 9/0, args= 16, gp= 0
	.mask	0x80ff0000,-4
	.fmask	0x00000000,0
	addiu	$sp,$sp,-104
	.cfi_def_cfa_offset 104
	sw	$18,76($sp)
	.cfi_offset 18, -28
	move	$18,$4
	.loc 2 545 0
	lui	$4,%hi($LC10)
	addiu	$4,$4,%lo($LC10)
	.loc 2 521 0
	sw	$31,100($sp)
	sw	$19,80($sp)
	sw	$17,72($sp)
	sw	$16,68($sp)
	sw	$23,96($sp)
	sw	$22,92($sp)
	sw	$21,88($sp)
	.cfi_offset 31, -4
	.cfi_offset 19, -24
	.cfi_offset 17, -32
	.cfi_offset 16, -36
	.cfi_offset 23, -8
	.cfi_offset 22, -12
	.cfi_offset 21, -16
	.cfi_offset 20, -20
	.loc 2 545 0
	.set	noreorder
	.set	nomacro
	jal	rtl_get_dev_by_name
	sw	$20,84($sp)
	.set	macro
	.set	reorder

	.loc 2 546 0
	move	$4,$18
	.set	noreorder
	.set	nomacro
	jal	rtl_ip_hdr
	move	$19,$2
	.set	macro
	.set	reorder

	.loc 2 548 0
	lw	$17,0($2)
	.loc 2 546 0
	move	$16,$2
	.loc 2 550 0
	lui	$2,%hi(endStateClientPort)
	.loc 2 548 0
	ext	$17,$17,24,4
	sll	$17,$17,2
	addu	$17,$16,$17
	.loc 2 550 0
	lhu	$3,%lo(endStateClientPort)($2)
	lhu	$4,0($17)
	.set	noreorder
	.set	nomacro
	bne	$4,$3,$L133
	lw	$31,100($sp)
	.set	macro
	.set	reorder

	.loc 2 550 0 is_stmt 0 discriminator 1
	lui	$2,%hi(endStateClientSeq)
	lw	$3,4($17)
	lw	$2,%lo(endStateClientSeq)($2)
	.set	noreorder
	.set	nomacro
	bne	$3,$2,$L133
	addiu	$4,$16,12
	.set	macro
	.set	reorder

	.loc 2 555 0 is_stmt 1
	.set	noreorder
	.set	nomacro
	jal	rtl_neigh_lookup
	move	$5,$19
	.set	macro
	.set	reorder

	.loc 2 556 0
	.set	noreorder
	.set	nomacro
	beq	$2,$0,$L125
	move	$20,$2
	.set	macro
	.set	reorder

	.loc 2 556 0 is_stmt 0 discriminator 1
	.set	noreorder
	.set	nomacro
	jal	rtl_get_hh_from_neigh
	move	$4,$2
	.set	macro
	.set	reorder

	.set	noreorder
	.set	nomacro
	bne	$2,$0,$L129
	move	$4,$18
	.set	macro
	.set	reorder

	.loc 4 300 0 is_stmt 1
	.set	noreorder
	.set	nomacro
	j	$L132
	addiu	$2,$20,24
	.set	macro
	.set	reorder

$L123:
$LBB637 = .
$LBB638 = .
$LBB639 = .
$LBB640 = .
$LBB641 = .
	.loc 5 207 0
#APP
 # 207 "/home/extra_home/marklee/rtk_OpenWRT_BB/BB_v1407_branch_v25/v25_relase_source_test_0830/rtk_OpenWRT_v2.5_Branch_20160603/build_dir/target-mips_24kec_uClibc-0.9.33.2/linux-rtkmips_rtl8198c/linux-3.10.49/arch/mips/include/asm/atomic.h" 1
		.set	mips3				
	ll	$3, 0($2)	# atomic_sub_return	
	subu	$4, $3, 1			
	sc	$4, 0($2)				
	.set	mips0				

 # 0 "" 2
	.loc 5 215 0
#NO_APP
	beq	$4,$0,$L123
$LBE641 = .
	.loc 5 228 0
#APP
 # 228 "/home/extra_home/marklee/rtk_OpenWRT_BB/BB_v1407_branch_v25/v25_relase_source_test_0830/rtk_OpenWRT_v2.5_Branch_20160603/build_dir/target-mips_24kec_uClibc-0.9.33.2/linux-rtkmips_rtl8198c/linux-3.10.49/arch/mips/include/asm/atomic.h" 1
			

 # 0 "" 2
#NO_APP
$LBE640 = .
$LBE639 = .
	.loc 4 300 0
	li	$2,1			# 0x1
	bne	$3,$2,$L125
	j	$L131
$L129:
$LBE638 = .
$LBE637 = .
	.loc 2 565 0
	li	$5,128			# 0x80
	move	$6,$0
	.set	noreorder
	.set	nomacro
	jal	skb_copy_expand
	li	$7,32			# 0x20
	.set	macro
	.set	reorder

	.loc 2 566 0
	.set	noreorder
	.set	nomacro
	bne	$2,$0,$L108
	move	$19,$2
	.set	macro
	.set	reorder

$LBB645 = .
$LBB646 = .
	.loc 4 300 0
	addiu	$2,$20,24
$LBB647 = .
$LBB648 = .
	.loc 5 185 0
#APP
 # 185 "/home/extra_home/marklee/rtk_OpenWRT_BB/BB_v1407_branch_v25/v25_relase_source_test_0830/rtk_OpenWRT_v2.5_Branch_20160603/build_dir/target-mips_24kec_uClibc-0.9.33.2/linux-rtkmips_rtl8198c/linux-3.10.49/arch/mips/include/asm/atomic.h" 1
			

 # 0 "" 2
#NO_APP
$L110:
$LBB649 = .
	.loc 5 207 0
#APP
 # 207 "/home/extra_home/marklee/rtk_OpenWRT_BB/BB_v1407_branch_v25/v25_relase_source_test_0830/rtk_OpenWRT_v2.5_Branch_20160603/build_dir/target-mips_24kec_uClibc-0.9.33.2/linux-rtkmips_rtl8198c/linux-3.10.49/arch/mips/include/asm/atomic.h" 1
		.set	mips3				
	ll	$4, 0($2)	# atomic_sub_return	
	subu	$3, $4, 1			
	sc	$3, 0($2)				
	.set	mips0				

 # 0 "" 2
	.loc 5 215 0
#NO_APP
	beq	$3,$0,$L110
$LBE649 = .
	.loc 5 228 0
#APP
 # 228 "/home/extra_home/marklee/rtk_OpenWRT_BB/BB_v1407_branch_v25/v25_relase_source_test_0830/rtk_OpenWRT_v2.5_Branch_20160603/build_dir/target-mips_24kec_uClibc-0.9.33.2/linux-rtkmips_rtl8198c/linux-3.10.49/arch/mips/include/asm/atomic.h" 1
			

 # 0 "" 2
#NO_APP
$LBE648 = .
$LBE647 = .
	.loc 4 300 0
	li	$2,1			# 0x1
	bne	$4,$2,$L125
$L131:
	.loc 4 301 0
	.set	noreorder
	.set	nomacro
	jal	neigh_destroy
	move	$4,$20
	.set	macro
	.set	reorder

$LBE646 = .
$LBE645 = .
	.loc 2 654 0
	.set	noreorder
	.set	nomacro
	j	$L133
	lw	$31,100($sp)
	.set	macro
	.set	reorder

$L108:
	.loc 2 574 0
	.set	noreorder
	.set	nomacro
	jal	rtl_ip_hdr
	move	$4,$2
	.set	macro
	.set	reorder

	.loc 2 575 0
	lw	$5,0($2)
	move	$4,$19
	ext	$5,$5,24,4
	sll	$5,$5,2
	.set	noreorder
	.set	nomacro
	jal	skb_trim
	addiu	$5,$5,20
	.set	macro
	.set	reorder

	.loc 2 576 0
	move	$4,$19
	.set	noreorder
	.set	nomacro
	jal	skb_put
	move	$5,$0
	.set	macro
	.set	reorder

	.loc 2 577 0
	.set	noreorder
	.set	nomacro
	jal	rtl_get_hh_from_neigh
	move	$4,$20
	.set	macro
	.set	reorder

	move	$21,$2
$L111:
$LBB650 = .
$LBB651 = .
$LBB652 = .
$LBB653 = .
$LBB654 = .
	.loc 6 64 0
	lw	$22,4($21)
	.loc 6 65 0
	andi	$2,$22,0x1
	beq	$2,$0,$L112
	.loc 6 66 0
	j	$L111
$L112:
$LBE654 = .
$LBE653 = .
	.loc 6 84 0
#APP
 # 84 "include/linux/seqlock.h" 1
	sync
 # 0 "" 2
#NO_APP
$LBE652 = .
$LBE651 = .
$LBE650 = .
$LBB655 = .
	.loc 2 581 0
	.set	noreorder
	.set	nomacro
	jal	rtl_get_skb_data
	move	$4,$19
	.set	macro
	.set	reorder

	move	$4,$21
	.set	noreorder
	.set	nomacro
	jal	rtl_get_data_from_hh
	move	$23,$2
	.set	macro
	.set	reorder

	lwl	$7,0($2)
	lwl	$6,4($2)
	lwl	$5,8($2)
	lwl	$4,12($2)
	lwr	$7,3($2)
	addiu	$3,$23,-16
	lwr	$6,7($2)
	lwr	$5,11($2)
	lwr	$4,15($2)
	swl	$7,0($3)
	swr	$7,3($3)
	swl	$6,4($3)
	swr	$6,7($3)
	swl	$5,8($3)
	swr	$5,11($3)
	swl	$4,12($3)
	swr	$4,15($3)
$LBE655 = .
$LBB656 = .
$LBB657 = .
$LBB658 = .
	.loc 6 140 0
#APP
 # 140 "include/linux/seqlock.h" 1
	sync
 # 0 "" 2
#NO_APP
$LBE658 = .
$LBE657 = .
$LBE656 = .
	.loc 2 583 0
	lw	$2,4($21)
	bne	$22,$2,$L111
	.loc 2 584 0
	.set	noreorder
	.set	nomacro
	jal	rtl_get_len_from_hh
	move	$4,$21
	.set	macro
	.set	reorder

	move	$5,$2
	.set	noreorder
	.set	nomacro
	jal	skb_push
	move	$4,$19
	.set	macro
	.set	reorder

$LBB659 = .
$LBB660 = .
	.loc 4 300 0
	addiu	$2,$20,24
$LBB661 = .
$LBB662 = .
	.loc 5 185 0
#APP
 # 185 "/home/extra_home/marklee/rtk_OpenWRT_BB/BB_v1407_branch_v25/v25_relase_source_test_0830/rtk_OpenWRT_v2.5_Branch_20160603/build_dir/target-mips_24kec_uClibc-0.9.33.2/linux-rtkmips_rtl8198c/linux-3.10.49/arch/mips/include/asm/atomic.h" 1
			

 # 0 "" 2
#NO_APP
$L115:
$LBB663 = .
	.loc 5 207 0
#APP
 # 207 "/home/extra_home/marklee/rtk_OpenWRT_BB/BB_v1407_branch_v25/v25_relase_source_test_0830/rtk_OpenWRT_v2.5_Branch_20160603/build_dir/target-mips_24kec_uClibc-0.9.33.2/linux-rtkmips_rtl8198c/linux-3.10.49/arch/mips/include/asm/atomic.h" 1
		.set	mips3				
	ll	$3, 0($2)	# atomic_sub_return	
	subu	$4, $3, 1			
	sc	$4, 0($2)				
	.set	mips0				

 # 0 "" 2
	.loc 5 215 0
#NO_APP
	beq	$4,$0,$L115
$LBE663 = .
	.loc 5 228 0
#APP
 # 228 "/home/extra_home/marklee/rtk_OpenWRT_BB/BB_v1407_branch_v25/v25_relase_source_test_0830/rtk_OpenWRT_v2.5_Branch_20160603/build_dir/target-mips_24kec_uClibc-0.9.33.2/linux-rtkmips_rtl8198c/linux-3.10.49/arch/mips/include/asm/atomic.h" 1
			

 # 0 "" 2
#NO_APP
$LBE662 = .
$LBE661 = .
	.loc 4 300 0
	li	$2,1			# 0x1
	bne	$3,$2,$L116
	.loc 4 301 0
	.set	noreorder
	.set	nomacro
	jal	neigh_destroy
	move	$4,$20
	.set	macro
	.set	reorder

$L116:
$LBE660 = .
$LBE659 = .
	.loc 2 587 0
	move	$4,$19
	.set	noreorder
	.set	nomacro
	jal	rtl_set_skb_nfct
	move	$5,$0
	.set	macro
	.set	reorder

	.loc 2 592 0
	lhu	$3,2($17)
	.loc 2 597 0
	lhu	$2,28($sp)
	.loc 2 594 0
	lw	$5,4($17)
	.loc 2 592 0
	sh	$3,16($sp)
	.loc 2 597 0
	li	$3,5			# 0x5
	ins	$2,$3,12,4
	.loc 2 593 0
	lhu	$7,0($17)
	.loc 2 595 0
	lw	$6,8($17)
	.loc 2 597 0
	sh	$2,28($sp)
	.loc 2 598 0
	sb	$0,29($sp)
	.loc 2 599 0
	lhu	$2,28($sp)
	.loc 2 603 0
	lui	$21,%hi(url_cache)
	.loc 2 600 0
	li	$3,1			# 0x1
	.loc 2 599 0
	ins	$2,$0,2,1
	.loc 2 603 0
	addiu	$20,$21,%lo(url_cache)
	.loc 2 600 0
	ins	$2,$3,4,1
	.loc 2 603 0
	lhu	$3,12($20)
	.loc 2 596 0
	addiu	$5,$5,1
	.loc 2 601 0
	ins	$2,$0,0,1
	.loc 2 604 0
	move	$4,$19
	.loc 2 596 0
	sw	$5,24($sp)
	.loc 2 603 0
	sh	$3,30($sp)
	.loc 2 593 0
	sh	$7,18($sp)
	.loc 2 595 0
	sw	$6,20($sp)
	.loc 2 601 0
	sh	$2,28($sp)
	.loc 2 604 0
	.set	noreorder
	.set	nomacro
	jal	rtl_get_skb_len
	sh	$0,34($sp)
	.set	macro
	.set	reorder

	.loc 2 606 0
	lw	$4,12($17)
	.loc 2 537 0
	li	$3,20			# 0x14
	.loc 2 604 0
	addiu	$17,$2,-34
	.loc 2 606 0
	srl	$4,$4,28
	sll	$4,$4,2
	.loc 2 608 0
	.set	noreorder
	.set	nomacro
	j	$L117
	li	$5,8			# 0x8
	.set	macro
	.set	reorder

$L122:
	.loc 2 610 0
	lbu	$7,0($6)
	.loc 2 611 0
	sltu	$2,$7,2
	beq	$2,$0,$L118
	.loc 2 614 0
	.set	noreorder
	.set	nomacro
	j	$L117
	addiu	$3,$3,1
	.set	macro
	.set	reorder

$L118:
	.loc 2 619 0
	.set	noreorder
	.set	nomacro
	bne	$7,$5,$L120
	lbu	$2,1($6)
	.set	macro
	.set	reorder

$LBB664 = .
	.loc 2 622 0
	addiu	$4,$sp,16
	addiu	$2,$3,6
	addu	$2,$4,$2
	lwl	$5,0($2)
$LBE664 = .
	.loc 2 618 0
	addiu	$3,$3,2
$LBB665 = .
	.loc 2 621 0
	addu	$3,$4,$3
	lwl	$4,0($3)
$LBE665 = .
$LBB666 = .
	.loc 2 622 0
	lwr	$5,3($2)
$LBE666 = .
$LBB667 = .
	.loc 2 621 0
	lwr	$4,3($3)
$LBE667 = .
$LBB668 = .
	.loc 2 623 0
	swl	$5,0($3)
	swr	$5,3($3)
$LBE668 = .
$LBB669 = .
	.loc 2 624 0
	swl	$4,0($2)
$LBE669 = .
$LBB670 = .
	.loc 2 621 0
	sw	$4,60($sp)
$LBE670 = .
$LBB671 = .
	.loc 2 622 0
	sw	$5,56($sp)
$LBE671 = .
	.loc 2 625 0
	.set	noreorder
	.set	nomacro
	j	$L121
	swr	$4,3($2)
	.set	macro
	.set	reorder

$L120:
	.loc 2 627 0
	addu	$3,$3,$2
$L117:
	.loc 2 610 0 discriminator 1
	addiu	$2,$sp,16
	addu	$6,$2,$3
	.loc 2 608 0 discriminator 1
	sltu	$2,$3,$4
	bne	$2,$0,$L122
$L121:
	.loc 2 630 0
	sh	$0,32($sp)
	.loc 2 631 0
	lw	$23,16($16)
	move	$5,$17
	addiu	$4,$sp,16
	move	$6,$0
	lw	$22,12($16)
	.set	noreorder
	.set	nomacro
	jal	csum_partial
	andi	$17,$17,0xffff
	.set	macro
	.set	reorder

$LBB672 = .
	.loc 2 632 0
	move	$4,$19
$LBE672 = .
$LBB673 = .
$LBB674 = .
$LBB675 = .
	.loc 7 136 0
	move	$3,$23
	.loc 7 167 0
	addiu	$17,$17,6
	.loc 7 136 0
#APP
 # 136 "/home/extra_home/marklee/rtk_OpenWRT_BB/BB_v1407_branch_v25/v25_relase_source_test_0830/rtk_OpenWRT_v2.5_Branch_20160603/build_dir/target-mips_24kec_uClibc-0.9.33.2/linux-rtkmips_rtl8198c/linux-3.10.49/arch/mips/include/asm/checksum.h" 1
		.set	push		# csum_tcpudp_nofold
	.set	noat		
	addu	$3, $22		
	sltu	$1, $3, $22	
	addu	$3, $1		
	addu	$3, $17		
	sltu	$1, $3, $17	
	addu	$3, $1		
	addu	$3, $2		
	sltu	$1, $3, $2	
	addu	$3, $1		
	.set	pop
 # 0 "" 2
#NO_APP
$LBE675 = .
$LBE674 = .
$LBB676 = .
$LBB677 = .
	.loc 7 78 0
#APP
 # 78 "/home/extra_home/marklee/rtk_OpenWRT_BB/BB_v1407_branch_v25/v25_relase_source_test_0830/rtk_OpenWRT_v2.5_Branch_20160603/build_dir/target-mips_24kec_uClibc-0.9.33.2/linux-rtkmips_rtl8198c/linux-3.10.49/arch/mips/include/asm/checksum.h" 1
		.set	push		# csum_fold
	.set	noat		
	sll	$1, $3, 16	
	addu	$3, $1		
	sltu	$1, $3, $1	
	srl	$3, $3, 16	
	addu	$3, $1		
	xori	$3, 0xffff	
	.set	pop
 # 0 "" 2
#NO_APP
$LBE677 = .
$LBE676 = .
$LBE673 = .
$LBB678 = .
	.loc 2 632 0
	.set	noreorder
	.set	nomacro
	jal	rtl_get_skb_data
	sh	$3,32($sp)
	.set	macro
	.set	reorder

	lw	$8,16($sp)
	lw	$7,20($sp)
	lw	$6,24($sp)
	lw	$5,28($sp)
	lw	$4,32($sp)
	addiu	$3,$2,34
	swl	$8,34($2)
	swr	$8,3($3)
	swl	$7,4($3)
	swr	$7,7($3)
	swl	$6,8($3)
$LBE678 = .
	.loc 2 634 0
	lbu	$2,36($sp)
$LBB679 = .
	.loc 2 632 0
	swr	$6,11($3)
	swl	$5,12($3)
$LBE679 = .
	.loc 2 634 0
	li	$6,4			# 0x4
$LBB680 = .
	.loc 2 632 0
	swr	$5,15($3)
$LBE680 = .
	.loc 2 634 0
	ins	$2,$6,4,4
	.loc 2 635 0
	li	$5,5			# 0x5
	ins	$2,$5,0,4
$LBB681 = .
	.loc 2 632 0
	swl	$4,16($3)
$LBE681 = .
	.loc 2 635 0
	sb	$2,36($sp)
	.loc 2 637 0
	li	$2,6			# 0x6
$LBB682 = .
	.loc 2 632 0
	swr	$4,19($3)
$LBE682 = .
	.loc 2 636 0
	sh	$0,42($sp)
	.loc 2 637 0
	sb	$2,45($sp)
	.loc 2 639 0
	lw	$17,12($16)
	.loc 2 641 0
	lbu	$2,14($20)
	.loc 2 640 0
	lw	$16,16($16)
	.loc 2 642 0
	move	$4,$18
	move	$5,$0
	.loc 2 639 0
	sw	$17,52($sp)
	.loc 2 640 0
	sw	$16,48($sp)
	.loc 2 641 0
	sb	$2,44($sp)
	.loc 2 642 0
	.set	noreorder
	.set	nomacro
	jal	rtl_set_skb_ip_summed
	sb	$0,37($sp)
	.set	macro
	.set	reorder

	.loc 2 644 0
	lhu	$2,%lo(url_cache)($21)
	.loc 2 643 0
	li	$3,40			# 0x28
	sh	$3,38($sp)
	.loc 2 644 0
	addiu	$2,$2,1
	sh	$2,40($sp)
	.loc 2 645 0
	sh	$0,46($sp)
$LBB683 = .
$LBB684 = .
	.loc 7 109 0
	lw	$3,40($sp)
	lw	$5,36($sp)
	.loc 7 113 0
	lw	$2,44($sp)
$LBE684 = .
$LBE683 = .
$LBB688 = .
	.loc 2 648 0
	move	$4,$19
$LBE688 = .
$LBB689 = .
$LBB687 = .
	.loc 7 109 0
	addu	$5,$3,$5
	.loc 7 110 0
	sltu	$3,$5,$3
	.loc 7 111 0
	addu	$5,$5,$2
	.loc 7 113 0
	addu	$3,$5,$3
	.loc 7 114 0
	sltu	$2,$3,$2
	.loc 7 115 0
	addu	$3,$3,$16
	.loc 7 117 0
	addu	$2,$3,$2
	.loc 7 118 0
	sltu	$16,$2,$16
	.loc 7 119 0
	addu	$2,$2,$17
	.loc 7 123 0
	addu	$16,$2,$16
	.loc 7 124 0
	sltu	$17,$16,$17
	.loc 7 125 0
	addu	$17,$17,$16
$LBB685 = .
$LBB686 = .
	.loc 7 78 0
#APP
 # 78 "/home/extra_home/marklee/rtk_OpenWRT_BB/BB_v1407_branch_v25/v25_relase_source_test_0830/rtk_OpenWRT_v2.5_Branch_20160603/build_dir/target-mips_24kec_uClibc-0.9.33.2/linux-rtkmips_rtl8198c/linux-3.10.49/arch/mips/include/asm/checksum.h" 1
		.set	push		# csum_fold
	.set	noat		
	sll	$1, $17, 16	
	addu	$17, $1		
	sltu	$1, $17, $1	
	srl	$17, $17, 16	
	addu	$17, $1		
	xori	$17, 0xffff	
	.set	pop
 # 0 "" 2
#NO_APP
$LBE686 = .
$LBE685 = .
$LBE687 = .
$LBE689 = .
$LBB690 = .
	.loc 2 648 0
	.set	noreorder
	.set	nomacro
	jal	rtl_get_skb_data
	sh	$17,46($sp)
	.set	macro
	.set	reorder

	lw	$5,36($sp)
	lw	$4,40($sp)
	addiu	$3,$2,14
	swl	$5,14($2)
	swr	$5,3($3)
	lw	$2,44($sp)
	swl	$4,4($3)
	swr	$4,7($3)
	lw	$4,48($sp)
	swl	$2,8($3)
	swr	$2,11($3)
	lw	$2,52($sp)
	swl	$4,12($3)
	swr	$4,15($3)
	swl	$2,16($3)
	swr	$2,19($3)
$LBE690 = .
	.loc 2 652 0
	move	$4,$19
	.set	noreorder
	.set	nomacro
	jal	dev_queue_xmit
	sb	$0,16($20)
	.set	macro
	.set	reorder

	.loc 2 653 0
	.set	noreorder
	.set	nomacro
	j	$L133
	lw	$31,100($sp)
	.set	macro
	.set	reorder

$L132:
$LBB691 = .
$LBB644 = .
$LBB643 = .
$LBB642 = .
	.loc 5 185 0
#APP
 # 185 "/home/extra_home/marklee/rtk_OpenWRT_BB/BB_v1407_branch_v25/v25_relase_source_test_0830/rtk_OpenWRT_v2.5_Branch_20160603/build_dir/target-mips_24kec_uClibc-0.9.33.2/linux-rtkmips_rtl8198c/linux-3.10.49/arch/mips/include/asm/atomic.h" 1
			

 # 0 "" 2
#NO_APP
	j	$L123
$L125:
$LBE642 = .
$LBE643 = .
$LBE644 = .
$LBE691 = .
	.loc 2 654 0
	lw	$31,100($sp)
$L133:
	lw	$23,96($sp)
	lw	$22,92($sp)
	lw	$21,88($sp)
	lw	$20,84($sp)
	lw	$19,80($sp)
	lw	$18,76($sp)
	lw	$17,72($sp)
	lw	$16,68($sp)
	move	$2,$0
	.set	noreorder
	.set	nomacro
	j	$31
	addiu	$sp,$sp,104
	.set	macro
	.set	reorder

	.cfi_def_cfa_offset 0
	.cfi_restore 16
	.cfi_restore 17
	.cfi_restore 18
	.cfi_restore 19
	.cfi_restore 20
	.cfi_restore 21
	.cfi_restore 22
	.cfi_restore 23
	.cfi_restore 31
	.end	GenerateTCPENDACK
	.cfi_endproc
$LFE3327:
	.size	GenerateTCPENDACK, .-GenerateTCPENDACK
	.align	2
$LFB3328 = .
	.loc 2 657 0
	.cfi_startproc
	.set	nomips16
	.ent	GenerateTCPFINACK
	.type	GenerateTCPFINACK, @function
GenerateTCPFINACK:
	.frame	$sp,104,$31		# vars= 48, regs= 9/0, args= 16, gp= 0
	.mask	0x80ff0000,-4
	.fmask	0x00000000,0
	addiu	$sp,$sp,-104
	.cfi_def_cfa_offset 104
	sw	$18,76($sp)
	.cfi_offset 18, -28
	move	$18,$4
	.loc 2 691 0
	lui	$4,%hi($LC10)
	addiu	$4,$4,%lo($LC10)
	.loc 2 657 0
	sw	$31,100($sp)
	sw	$19,80($sp)
	sw	$17,72($sp)
	sw	$16,68($sp)
	sw	$23,96($sp)
	sw	$22,92($sp)
	sw	$21,88($sp)
	.cfi_offset 31, -4
	.cfi_offset 19, -24
	.cfi_offset 17, -32
	.cfi_offset 16, -36
	.cfi_offset 23, -8
	.cfi_offset 22, -12
	.cfi_offset 21, -16
	.cfi_offset 20, -20
	.loc 2 691 0
	.set	noreorder
	.set	nomacro
	jal	rtl_get_dev_by_name
	sw	$20,84($sp)
	.set	macro
	.set	reorder

	.loc 2 692 0
	move	$4,$18
	.set	noreorder
	.set	nomacro
	jal	rtl_ip_hdr
	move	$19,$2
	.set	macro
	.set	reorder

	.loc 2 693 0
	lw	$17,0($2)
	.loc 2 692 0
	move	$16,$2
	.loc 2 695 0
	lui	$2,%hi(finStateClientPort)
	.loc 2 693 0
	ext	$17,$17,24,4
	sll	$17,$17,2
	addu	$17,$16,$17
	.loc 2 695 0
	lhu	$3,%lo(finStateClientPort)($2)
	lhu	$4,0($17)
	.set	noreorder
	.set	nomacro
	bne	$4,$3,$L166
	lw	$31,100($sp)
	.set	macro
	.set	reorder

	.loc 2 695 0 is_stmt 0 discriminator 1
	lui	$2,%hi(finStateClientSeq)
	lw	$3,4($17)
	lw	$2,%lo(finStateClientSeq)($2)
	.set	noreorder
	.set	nomacro
	bne	$3,$2,$L166
	addiu	$4,$16,12
	.set	macro
	.set	reorder

	.loc 2 700 0 is_stmt 1
	.set	noreorder
	.set	nomacro
	jal	rtl_neigh_lookup
	move	$5,$19
	.set	macro
	.set	reorder

	.loc 2 701 0
	.set	noreorder
	.set	nomacro
	beq	$2,$0,$L158
	move	$20,$2
	.set	macro
	.set	reorder

	.loc 2 701 0 is_stmt 0 discriminator 1
	.set	noreorder
	.set	nomacro
	jal	rtl_get_hh_from_neigh
	move	$4,$2
	.set	macro
	.set	reorder

	.set	noreorder
	.set	nomacro
	bne	$2,$0,$L162
	move	$4,$18
	.set	macro
	.set	reorder

	.loc 4 300 0 is_stmt 1
	.set	noreorder
	.set	nomacro
	j	$L165
	addiu	$2,$20,24
	.set	macro
	.set	reorder

$L156:
$LBB692 = .
$LBB693 = .
$LBB694 = .
$LBB695 = .
$LBB696 = .
	.loc 5 207 0
#APP
 # 207 "/home/extra_home/marklee/rtk_OpenWRT_BB/BB_v1407_branch_v25/v25_relase_source_test_0830/rtk_OpenWRT_v2.5_Branch_20160603/build_dir/target-mips_24kec_uClibc-0.9.33.2/linux-rtkmips_rtl8198c/linux-3.10.49/arch/mips/include/asm/atomic.h" 1
		.set	mips3				
	ll	$3, 0($2)	# atomic_sub_return	
	subu	$4, $3, 1			
	sc	$4, 0($2)				
	.set	mips0				

 # 0 "" 2
	.loc 5 215 0
#NO_APP
	beq	$4,$0,$L156
$LBE696 = .
	.loc 5 228 0
#APP
 # 228 "/home/extra_home/marklee/rtk_OpenWRT_BB/BB_v1407_branch_v25/v25_relase_source_test_0830/rtk_OpenWRT_v2.5_Branch_20160603/build_dir/target-mips_24kec_uClibc-0.9.33.2/linux-rtkmips_rtl8198c/linux-3.10.49/arch/mips/include/asm/atomic.h" 1
			

 # 0 "" 2
#NO_APP
$LBE695 = .
$LBE694 = .
	.loc 4 300 0
	li	$2,1			# 0x1
	bne	$3,$2,$L158
	j	$L164
$L162:
$LBE693 = .
$LBE692 = .
	.loc 2 710 0
	li	$5,128			# 0x80
	move	$6,$0
	.set	noreorder
	.set	nomacro
	jal	skb_copy_expand
	li	$7,32			# 0x20
	.set	macro
	.set	reorder

	.loc 2 711 0
	.set	noreorder
	.set	nomacro
	bne	$2,$0,$L141
	move	$19,$2
	.set	macro
	.set	reorder

$LBB700 = .
$LBB701 = .
	.loc 4 300 0
	addiu	$2,$20,24
$LBB702 = .
$LBB703 = .
	.loc 5 185 0
#APP
 # 185 "/home/extra_home/marklee/rtk_OpenWRT_BB/BB_v1407_branch_v25/v25_relase_source_test_0830/rtk_OpenWRT_v2.5_Branch_20160603/build_dir/target-mips_24kec_uClibc-0.9.33.2/linux-rtkmips_rtl8198c/linux-3.10.49/arch/mips/include/asm/atomic.h" 1
			

 # 0 "" 2
#NO_APP
$L143:
$LBB704 = .
	.loc 5 207 0
#APP
 # 207 "/home/extra_home/marklee/rtk_OpenWRT_BB/BB_v1407_branch_v25/v25_relase_source_test_0830/rtk_OpenWRT_v2.5_Branch_20160603/build_dir/target-mips_24kec_uClibc-0.9.33.2/linux-rtkmips_rtl8198c/linux-3.10.49/arch/mips/include/asm/atomic.h" 1
		.set	mips3				
	ll	$4, 0($2)	# atomic_sub_return	
	subu	$3, $4, 1			
	sc	$3, 0($2)				
	.set	mips0				

 # 0 "" 2
	.loc 5 215 0
#NO_APP
	beq	$3,$0,$L143
$LBE704 = .
	.loc 5 228 0
#APP
 # 228 "/home/extra_home/marklee/rtk_OpenWRT_BB/BB_v1407_branch_v25/v25_relase_source_test_0830/rtk_OpenWRT_v2.5_Branch_20160603/build_dir/target-mips_24kec_uClibc-0.9.33.2/linux-rtkmips_rtl8198c/linux-3.10.49/arch/mips/include/asm/atomic.h" 1
			

 # 0 "" 2
#NO_APP
$LBE703 = .
$LBE702 = .
	.loc 4 300 0
	li	$2,1			# 0x1
	bne	$4,$2,$L158
$L164:
	.loc 4 301 0
	.set	noreorder
	.set	nomacro
	jal	neigh_destroy
	move	$4,$20
	.set	macro
	.set	reorder

$LBE701 = .
$LBE700 = .
	.loc 2 804 0
	.set	noreorder
	.set	nomacro
	j	$L166
	lw	$31,100($sp)
	.set	macro
	.set	reorder

$L141:
	.loc 2 719 0
	.set	noreorder
	.set	nomacro
	jal	rtl_ip_hdr
	move	$4,$2
	.set	macro
	.set	reorder

	.loc 2 721 0
	lw	$5,0($2)
	move	$4,$19
	ext	$5,$5,24,4
	sll	$5,$5,2
	.set	noreorder
	.set	nomacro
	jal	skb_trim
	addiu	$5,$5,20
	.set	macro
	.set	reorder

	.loc 2 722 0
	move	$4,$19
	.set	noreorder
	.set	nomacro
	jal	skb_put
	move	$5,$0
	.set	macro
	.set	reorder

	.loc 2 723 0
	.set	noreorder
	.set	nomacro
	jal	rtl_get_hh_from_neigh
	move	$4,$20
	.set	macro
	.set	reorder

	move	$21,$2
$L144:
$LBB705 = .
$LBB706 = .
$LBB707 = .
$LBB708 = .
$LBB709 = .
	.loc 6 64 0
	lw	$22,4($21)
	.loc 6 65 0
	andi	$2,$22,0x1
	beq	$2,$0,$L145
	.loc 6 66 0
	j	$L144
$L145:
$LBE709 = .
$LBE708 = .
	.loc 6 84 0
#APP
 # 84 "include/linux/seqlock.h" 1
	sync
 # 0 "" 2
#NO_APP
$LBE707 = .
$LBE706 = .
$LBE705 = .
$LBB710 = .
	.loc 2 728 0
	.set	noreorder
	.set	nomacro
	jal	rtl_get_skb_data
	move	$4,$19
	.set	macro
	.set	reorder

	move	$4,$21
	.set	noreorder
	.set	nomacro
	jal	rtl_get_data_from_hh
	move	$23,$2
	.set	macro
	.set	reorder

	lwl	$7,0($2)
	lwl	$6,4($2)
	lwl	$5,8($2)
	lwl	$4,12($2)
	lwr	$7,3($2)
	addiu	$3,$23,-16
	lwr	$6,7($2)
	lwr	$5,11($2)
	lwr	$4,15($2)
	swl	$7,0($3)
	swr	$7,3($3)
	swl	$6,4($3)
	swr	$6,7($3)
	swl	$5,8($3)
	swr	$5,11($3)
	swl	$4,12($3)
	swr	$4,15($3)
$LBE710 = .
$LBB711 = .
$LBB712 = .
$LBB713 = .
	.loc 6 140 0
#APP
 # 140 "include/linux/seqlock.h" 1
	sync
 # 0 "" 2
#NO_APP
$LBE713 = .
$LBE712 = .
$LBE711 = .
	.loc 2 730 0
	lw	$2,4($21)
	bne	$22,$2,$L144
	.loc 2 731 0
	.set	noreorder
	.set	nomacro
	jal	rtl_get_len_from_hh
	move	$4,$21
	.set	macro
	.set	reorder

	move	$5,$2
	.set	noreorder
	.set	nomacro
	jal	skb_push
	move	$4,$19
	.set	macro
	.set	reorder

$LBB714 = .
$LBB715 = .
	.loc 4 300 0
	addiu	$2,$20,24
$LBB716 = .
$LBB717 = .
	.loc 5 185 0
#APP
 # 185 "/home/extra_home/marklee/rtk_OpenWRT_BB/BB_v1407_branch_v25/v25_relase_source_test_0830/rtk_OpenWRT_v2.5_Branch_20160603/build_dir/target-mips_24kec_uClibc-0.9.33.2/linux-rtkmips_rtl8198c/linux-3.10.49/arch/mips/include/asm/atomic.h" 1
			

 # 0 "" 2
#NO_APP
$L148:
$LBB718 = .
	.loc 5 207 0
#APP
 # 207 "/home/extra_home/marklee/rtk_OpenWRT_BB/BB_v1407_branch_v25/v25_relase_source_test_0830/rtk_OpenWRT_v2.5_Branch_20160603/build_dir/target-mips_24kec_uClibc-0.9.33.2/linux-rtkmips_rtl8198c/linux-3.10.49/arch/mips/include/asm/atomic.h" 1
		.set	mips3				
	ll	$3, 0($2)	# atomic_sub_return	
	subu	$4, $3, 1			
	sc	$4, 0($2)				
	.set	mips0				

 # 0 "" 2
	.loc 5 215 0
#NO_APP
	beq	$4,$0,$L148
$LBE718 = .
	.loc 5 228 0
#APP
 # 228 "/home/extra_home/marklee/rtk_OpenWRT_BB/BB_v1407_branch_v25/v25_relase_source_test_0830/rtk_OpenWRT_v2.5_Branch_20160603/build_dir/target-mips_24kec_uClibc-0.9.33.2/linux-rtkmips_rtl8198c/linux-3.10.49/arch/mips/include/asm/atomic.h" 1
			

 # 0 "" 2
#NO_APP
$LBE717 = .
$LBE716 = .
	.loc 4 300 0
	li	$2,1			# 0x1
	bne	$3,$2,$L149
	.loc 4 301 0
	.set	noreorder
	.set	nomacro
	jal	neigh_destroy
	move	$4,$20
	.set	macro
	.set	reorder

$L149:
$LBE715 = .
$LBE714 = .
	.loc 2 734 0
	move	$4,$19
	.set	noreorder
	.set	nomacro
	jal	rtl_set_skb_nfct
	move	$5,$0
	.set	macro
	.set	reorder

	.loc 2 739 0
	lhu	$3,2($17)
	.loc 2 744 0
	lhu	$2,28($sp)
	.loc 2 741 0
	lw	$6,4($17)
	.loc 2 739 0
	sh	$3,16($sp)
	.loc 2 744 0
	li	$3,5			# 0x5
	ins	$2,$3,12,4
	.loc 2 740 0
	lhu	$8,0($17)
	.loc 2 742 0
	lw	$7,8($17)
	.loc 2 744 0
	sh	$2,28($sp)
	.loc 2 745 0
	sb	$0,29($sp)
	.loc 2 746 0
	lhu	$2,28($sp)
	.loc 2 750 0
	lui	$21,%hi(url_cache)
	addiu	$20,$21,%lo(url_cache)
	.loc 2 747 0
	li	$3,1			# 0x1
	.loc 2 750 0
	lhu	$5,12($20)
	.loc 2 746 0
	ins	$2,$0,2,1
	.loc 2 747 0
	ins	$2,$3,4,1
	.loc 2 748 0
	ins	$2,$3,0,1
	.loc 2 751 0
	move	$4,$19
	.loc 2 750 0
	sh	$5,30($sp)
	.loc 2 740 0
	sh	$8,18($sp)
	.loc 2 742 0
	sw	$7,20($sp)
	.loc 2 743 0
	sw	$6,24($sp)
	.loc 2 748 0
	sh	$2,28($sp)
	.loc 2 751 0
	.set	noreorder
	.set	nomacro
	jal	rtl_get_skb_len
	sh	$0,34($sp)
	.set	macro
	.set	reorder

	.loc 2 753 0
	lw	$4,12($17)
	.loc 2 676 0
	li	$3,20			# 0x14
	.loc 2 751 0
	addiu	$17,$2,-34
	.loc 2 753 0
	srl	$4,$4,28
	sll	$4,$4,2
	.loc 2 755 0
	.set	noreorder
	.set	nomacro
	j	$L150
	li	$5,8			# 0x8
	.set	macro
	.set	reorder

$L155:
	.loc 2 757 0
	lbu	$7,0($6)
	.loc 2 758 0
	sltu	$2,$7,2
	beq	$2,$0,$L151
	.loc 2 761 0
	.set	noreorder
	.set	nomacro
	j	$L150
	addiu	$3,$3,1
	.set	macro
	.set	reorder

$L151:
	.loc 2 766 0
	.set	noreorder
	.set	nomacro
	bne	$7,$5,$L153
	lbu	$2,1($6)
	.set	macro
	.set	reorder

$LBB719 = .
	.loc 2 769 0
	addiu	$4,$sp,16
	addiu	$2,$3,6
	addu	$2,$4,$2
	lwl	$5,0($2)
$LBE719 = .
	.loc 2 765 0
	addiu	$3,$3,2
$LBB720 = .
	.loc 2 768 0
	addu	$3,$4,$3
	lwl	$4,0($3)
$LBE720 = .
$LBB721 = .
	.loc 2 769 0
	lwr	$5,3($2)
$LBE721 = .
$LBB722 = .
	.loc 2 768 0
	lwr	$4,3($3)
$LBE722 = .
$LBB723 = .
	.loc 2 770 0
	swl	$5,0($3)
	swr	$5,3($3)
$LBE723 = .
$LBB724 = .
	.loc 2 771 0
	swl	$4,0($2)
$LBE724 = .
$LBB725 = .
	.loc 2 768 0
	sw	$4,60($sp)
$LBE725 = .
$LBB726 = .
	.loc 2 769 0
	sw	$5,56($sp)
$LBE726 = .
	.loc 2 772 0
	.set	noreorder
	.set	nomacro
	j	$L154
	swr	$4,3($2)
	.set	macro
	.set	reorder

$L153:
	.loc 2 774 0
	addu	$3,$3,$2
$L150:
	.loc 2 757 0 discriminator 1
	addiu	$2,$sp,16
	addu	$6,$2,$3
	.loc 2 755 0 discriminator 1
	sltu	$2,$3,$4
	bne	$2,$0,$L155
$L154:
	.loc 2 776 0
	lhu	$3,18($sp)
	lui	$2,%hi(endStateClientPort)
	.loc 2 779 0
	sh	$0,32($sp)
	.loc 2 776 0
	sh	$3,%lo(endStateClientPort)($2)
	.loc 2 777 0
	lw	$3,24($sp)
	.loc 2 780 0
	lw	$23,16($16)
	move	$5,$17
	addiu	$4,$sp,16
	move	$6,$0
	.loc 2 777 0
	lui	$2,%hi(endStateClientSeq)
	.loc 2 780 0
	lw	$22,12($16)
	.loc 2 777 0
	sw	$3,%lo(endStateClientSeq)($2)
	.loc 2 780 0
	.set	noreorder
	.set	nomacro
	jal	csum_partial
	andi	$17,$17,0xffff
	.set	macro
	.set	reorder

$LBB727 = .
	.loc 2 781 0
	move	$4,$19
$LBE727 = .
$LBB728 = .
$LBB729 = .
$LBB730 = .
	.loc 7 136 0
	move	$3,$23
	.loc 7 167 0
	addiu	$17,$17,6
	.loc 7 136 0
#APP
 # 136 "/home/extra_home/marklee/rtk_OpenWRT_BB/BB_v1407_branch_v25/v25_relase_source_test_0830/rtk_OpenWRT_v2.5_Branch_20160603/build_dir/target-mips_24kec_uClibc-0.9.33.2/linux-rtkmips_rtl8198c/linux-3.10.49/arch/mips/include/asm/checksum.h" 1
		.set	push		# csum_tcpudp_nofold
	.set	noat		
	addu	$3, $22		
	sltu	$1, $3, $22	
	addu	$3, $1		
	addu	$3, $17		
	sltu	$1, $3, $17	
	addu	$3, $1		
	addu	$3, $2		
	sltu	$1, $3, $2	
	addu	$3, $1		
	.set	pop
 # 0 "" 2
#NO_APP
$LBE730 = .
$LBE729 = .
$LBB731 = .
$LBB732 = .
	.loc 7 78 0
#APP
 # 78 "/home/extra_home/marklee/rtk_OpenWRT_BB/BB_v1407_branch_v25/v25_relase_source_test_0830/rtk_OpenWRT_v2.5_Branch_20160603/build_dir/target-mips_24kec_uClibc-0.9.33.2/linux-rtkmips_rtl8198c/linux-3.10.49/arch/mips/include/asm/checksum.h" 1
		.set	push		# csum_fold
	.set	noat		
	sll	$1, $3, 16	
	addu	$3, $1		
	sltu	$1, $3, $1	
	srl	$3, $3, 16	
	addu	$3, $1		
	xori	$3, 0xffff	
	.set	pop
 # 0 "" 2
#NO_APP
$LBE732 = .
$LBE731 = .
$LBE728 = .
$LBB733 = .
	.loc 2 781 0
	.set	noreorder
	.set	nomacro
	jal	rtl_get_skb_data
	sh	$3,32($sp)
	.set	macro
	.set	reorder

	lw	$8,16($sp)
	lw	$7,20($sp)
	lw	$6,24($sp)
	lw	$5,28($sp)
	lw	$4,32($sp)
	addiu	$3,$2,34
	swl	$8,34($2)
	swr	$8,3($3)
	swl	$7,4($3)
	swr	$7,7($3)
	swl	$6,8($3)
$LBE733 = .
	.loc 2 783 0
	lbu	$2,36($sp)
$LBB734 = .
	.loc 2 781 0
	swr	$6,11($3)
	swl	$5,12($3)
$LBE734 = .
	.loc 2 783 0
	li	$6,4			# 0x4
$LBB735 = .
	.loc 2 781 0
	swr	$5,15($3)
$LBE735 = .
	.loc 2 783 0
	ins	$2,$6,4,4
	.loc 2 784 0
	li	$5,5			# 0x5
	ins	$2,$5,0,4
$LBB736 = .
	.loc 2 781 0
	swl	$4,16($3)
$LBE736 = .
	.loc 2 784 0
	sb	$2,36($sp)
	.loc 2 786 0
	li	$2,6			# 0x6
$LBB737 = .
	.loc 2 781 0
	swr	$4,19($3)
$LBE737 = .
	.loc 2 785 0
	sh	$0,42($sp)
	.loc 2 786 0
	sb	$2,45($sp)
	.loc 2 788 0
	lw	$17,12($16)
	.loc 2 790 0
	lbu	$2,14($20)
	.loc 2 789 0
	lw	$16,16($16)
	.loc 2 791 0
	move	$4,$18
	move	$5,$0
	.loc 2 788 0
	sw	$17,52($sp)
	.loc 2 789 0
	sw	$16,48($sp)
	.loc 2 790 0
	sb	$2,44($sp)
	.loc 2 791 0
	.set	noreorder
	.set	nomacro
	jal	rtl_set_skb_ip_summed
	sb	$0,37($sp)
	.set	macro
	.set	reorder

	.loc 2 793 0
	lhu	$2,%lo(url_cache)($21)
	.loc 2 792 0
	li	$3,40			# 0x28
	sh	$3,38($sp)
	.loc 2 793 0
	addiu	$2,$2,1
	sh	$2,40($sp)
	.loc 2 794 0
	sh	$0,46($sp)
$LBB738 = .
$LBB739 = .
	.loc 7 109 0
	lw	$3,40($sp)
	lw	$5,36($sp)
	.loc 7 113 0
	lw	$2,44($sp)
$LBE739 = .
$LBE738 = .
$LBB743 = .
	.loc 2 797 0
	move	$4,$19
$LBE743 = .
$LBB744 = .
$LBB742 = .
	.loc 7 109 0
	addu	$5,$3,$5
	.loc 7 110 0
	sltu	$3,$5,$3
	.loc 7 111 0
	addu	$5,$5,$2
	.loc 7 113 0
	addu	$3,$5,$3
	.loc 7 114 0
	sltu	$2,$3,$2
	.loc 7 115 0
	addu	$3,$3,$16
	.loc 7 117 0
	addu	$2,$3,$2
	.loc 7 118 0
	sltu	$16,$2,$16
	.loc 7 119 0
	addu	$2,$2,$17
	.loc 7 123 0
	addu	$16,$2,$16
	.loc 7 124 0
	sltu	$17,$16,$17
	.loc 7 125 0
	addu	$17,$17,$16
$LBB740 = .
$LBB741 = .
	.loc 7 78 0
#APP
 # 78 "/home/extra_home/marklee/rtk_OpenWRT_BB/BB_v1407_branch_v25/v25_relase_source_test_0830/rtk_OpenWRT_v2.5_Branch_20160603/build_dir/target-mips_24kec_uClibc-0.9.33.2/linux-rtkmips_rtl8198c/linux-3.10.49/arch/mips/include/asm/checksum.h" 1
		.set	push		# csum_fold
	.set	noat		
	sll	$1, $17, 16	
	addu	$17, $1		
	sltu	$1, $17, $1	
	srl	$17, $17, 16	
	addu	$17, $1		
	xori	$17, 0xffff	
	.set	pop
 # 0 "" 2
#NO_APP
$LBE741 = .
$LBE740 = .
$LBE742 = .
$LBE744 = .
$LBB745 = .
	.loc 2 797 0
	.set	noreorder
	.set	nomacro
	jal	rtl_get_skb_data
	sh	$17,46($sp)
	.set	macro
	.set	reorder

	lw	$5,36($sp)
	lw	$4,40($sp)
	addiu	$3,$2,14
	swl	$5,14($2)
	swr	$5,3($3)
	lw	$2,44($sp)
	swl	$4,4($3)
	swr	$4,7($3)
	lw	$4,48($sp)
	swl	$2,8($3)
	swr	$2,11($3)
	lw	$2,52($sp)
	swl	$4,12($3)
	swr	$4,15($3)
	swl	$2,16($3)
	swr	$2,19($3)
$LBE745 = .
	.loc 2 802 0
	move	$4,$19
	.loc 2 800 0
	li	$2,1			# 0x1
	.loc 2 799 0
	sb	$0,15($20)
	.loc 2 802 0
	.set	noreorder
	.set	nomacro
	jal	dev_queue_xmit
	sb	$2,16($20)
	.set	macro
	.set	reorder

	.loc 2 803 0
	.set	noreorder
	.set	nomacro
	j	$L166
	lw	$31,100($sp)
	.set	macro
	.set	reorder

$L165:
$LBB746 = .
$LBB699 = .
$LBB698 = .
$LBB697 = .
	.loc 5 185 0
#APP
 # 185 "/home/extra_home/marklee/rtk_OpenWRT_BB/BB_v1407_branch_v25/v25_relase_source_test_0830/rtk_OpenWRT_v2.5_Branch_20160603/build_dir/target-mips_24kec_uClibc-0.9.33.2/linux-rtkmips_rtl8198c/linux-3.10.49/arch/mips/include/asm/atomic.h" 1
			

 # 0 "" 2
#NO_APP
	j	$L156
$L158:
$LBE697 = .
$LBE698 = .
$LBE699 = .
$LBE746 = .
	.loc 2 804 0
	lw	$31,100($sp)
$L166:
	lw	$23,96($sp)
	lw	$22,92($sp)
	lw	$21,88($sp)
	lw	$20,84($sp)
	lw	$19,80($sp)
	lw	$18,76($sp)
	lw	$17,72($sp)
	lw	$16,68($sp)
	move	$2,$0
	.set	noreorder
	.set	nomacro
	j	$31
	addiu	$sp,$sp,104
	.set	macro
	.set	reorder

	.cfi_def_cfa_offset 0
	.cfi_restore 16
	.cfi_restore 17
	.cfi_restore 18
	.cfi_restore 19
	.cfi_restore 20
	.cfi_restore 21
	.cfi_restore 22
	.cfi_restore 23
	.cfi_restore 31
	.end	GenerateTCPFINACK
	.cfi_endproc
$LFE3328:
	.size	GenerateTCPFINACK, .-GenerateTCPFINACK
	.align	2
$LFB3363 = .
	.loc 2 3301 0
	.cfi_startproc
	.set	nomips16
	.ent	dos_timer_fn
	.type	dos_timer_fn, @function
dos_timer_fn:
	.frame	$sp,0,$31		# vars= 0, regs= 0/0, args= 0, gp= 0
	.mask	0x00000000,0
	.fmask	0x00000000,0
	.set	noreorder
	.set	nomacro
	.loc 2 3302 0
	lui	$13,%hi(item)
	lw	$12,%lo(item)($13)
	beq	$12,$0,$L168
	lui	$5,%hi(none_dos_drop_pkt_cnt)

	.loc 2 3304 0
	lui	$15,%hi(block)
	lw	$3,%lo(block)($15)
	.loc 2 3305 0
	lui	$14,%hi(block_count)
	.loc 2 3304 0
	li	$2,1			# 0x1
	bne	$3,$2,$L170
	lw	$24,%lo(block_count)($14)

	.loc 2 3305 0
	addiu	$24,$24,1
	sw	$24,%lo(block_count)($14)
$L170:
$LBB755 = .
$LBB756 = .
	.loc 2 2365 0
	andi	$3,$12,0x1e
	bne	$3,$0,$L215
	move	$7,$0

	lui	$4,%hi(dos_pkt+40960)
	lui	$2,%hi(dos_pkt)
	addiu	$2,$2,%lo(dos_pkt)
	addiu	$4,$4,%lo(dos_pkt+40960)
	j	$L171
	lui	$3,%hi(LogFlag)

$L215:
	lui	$2,%hi(dos_pkt)
	addiu	$2,$2,%lo(dos_pkt)
	lui	$4,%hi(dos_pkt+40960)
	move	$8,$0
	move	$3,$2
	addiu	$4,$4,%lo(dos_pkt+40960)
	.loc 2 2369 0
	li	$6,1			# 0x1
	andi	$10,$12,0x2
	.loc 2 2371 0
	andi	$9,$12,0x4
$L177:
	.loc 2 2369 0
	lb	$5,0($3)
	bne	$5,$6,$L172
	nop

	beq	$10,$0,$L173
	nop

	lw	$5,4($3)
	.loc 2 2370 0
	addu	$11,$8,$5
	slt	$5,$0,$5
$LBE756 = .
$LBE755 = .
	j	$L173
	movn	$8,$11,$5

$L191:
$LBB759 = .
$LBB757 = .
	.loc 2 2371 0
	lw	$5,8($3)
	.loc 2 2372 0
	addu	$11,$7,$5
	slt	$5,$0,$5
	movn	$7,$11,$5
$L172:
	.loc 2 2367 0
	addiu	$3,$3,40
$L223:
	bne	$3,$4,$L177
	nop

	.loc 2 2380 0
	lui	$3,%hi(whole_syn_threshold)
	lw	$3,%lo(whole_syn_threshold)($3)
	slt	$8,$3,$8
	beq	$8,$0,$L220
	andi	$5,$12,0x2

	beq	$5,$0,$L220
	nop

	bgtz	$3,$L218
	nop

$L220:
	j	$L178
	lui	$3,%hi(LogFlag)

$L218:
	.loc 2 2381 0
	lui	$3,%hi(LogFlag)
	lw	$5,%lo(LogFlag)($3)
	ori	$5,$5,0x2
	sw	$5,%lo(LogFlag)($3)
$L178:
	.loc 2 2382 0
	lui	$5,%hi(whole_fin_threshold)
	lw	$5,%lo(whole_fin_threshold)($5)
	slt	$7,$5,$7
	beq	$7,$0,$L171
	andi	$6,$12,0x4

	beq	$6,$0,$L171
	nop

	blez	$5,$L171
	lw	$5,%lo(LogFlag)($3)

	.loc 2 2383 0
	ori	$5,$5,0x4
	sw	$5,%lo(LogFlag)($3)
$L171:
$LBE757 = .
$LBE759 = .
$LBB760 = .
$LBB761 = .
	.loc 2 3285 0
	sw	$0,%lo(LogFlag)($3)
$L182:
$LBE761 = .
$LBE760 = .
$LBB762 = .
$LBB763 = .
	.loc 2 2347 0
	sb	$0,0($2)
	.loc 2 2348 0
	sw	$0,28($2)
	.loc 2 2349 0
	sw	$0,4($2)
	.loc 2 2350 0
	sw	$0,8($2)
	.loc 2 2351 0
	sw	$0,12($2)
	.loc 2 2352 0
	sw	$0,16($2)
	.loc 2 2353 0
	sw	$0,24($2)
	.loc 2 2354 0
	addiu	$2,$2,40
	.loc 2 2345 0
	bne	$2,$4,$L182
	lui	$3,%hi(block_time)

$LBE763 = .
$LBE762 = .
	.loc 2 3311 0
	lw	$2,%lo(block_time)($3)
	slt	$2,$24,$2
	beq	$2,$0,$L183
	lui	$7,%hi(attack_saddr)

	.loc 2 3317 0
	lui	$3,%hi(icmp_echo_request_time)
$L222:
	lw	$4,%lo(icmp_echo_request_time)($3)
	lui	$2,%hi(jiffies)
	lw	$3,%lo(jiffies)($2)
	addiu	$4,$4,100
	subu	$3,$4,$3
	bgez	$3,$L225
	lui	$5,%hi(none_dos_drop_pkt_cnt)

	.loc 2 3318 0
	j	$L221
	lui	$3,%hi(icmp_echo_request)

$L183:
	lui	$6,%hi(attack_daddr)
	.loc 2 3312 0
	sw	$0,%lo(block)($15)
	.loc 2 3313 0
	sw	$0,%lo(block_count)($14)
	move	$2,$0
	addiu	$7,$7,%lo(attack_saddr)
	addiu	$6,$6,%lo(attack_daddr)
$LBB764 = .
$LBB765 = .
	.loc 2 3292 0
	li	$5,108			# 0x6c
$L187:
	addu	$4,$7,$2
	addu	$3,$6,$2
	addiu	$2,$2,4
	.loc 2 3294 0
	sw	$0,0($4)
	.loc 2 3292 0
	bne	$2,$5,$L187
	sw	$0,0($3)

$LBE765 = .
$LBE764 = .
	.loc 2 3317 0
	j	$L222
	lui	$3,%hi(icmp_echo_request_time)

$L221:
	.loc 2 3318 0
	j	$L185
	sw	$0,%lo(icmp_echo_request)($3)

$L194:
	.loc 2 3324 0
	sw	$12,%lo(item_backup)($3)
	.loc 2 3325 0
	j	$L193
	sw	$0,%lo(item)($13)

$L195:
	.loc 2 3330 0
	lui	$3,%hi(item_backup)
	lw	$4,%lo(item_backup)($3)
$L226:
	beq	$4,$0,$L189
	nop

	.loc 2 3331 0
	sw	$4,%lo(item)($13)
	.loc 2 3332 0
	sw	$0,%lo(item_backup)($3)
$L189:
	.loc 2 3336 0
	beq	$6,$0,$L190
	nop

$L193:
	.loc 2 3337 0
	sw	$0,%lo(none_dos_drop_pkt_cnt)($5)
$L190:
	.loc 2 3340 0
	lw	$5,%lo(jiffies)($2)
	lui	$4,%hi(dos_timer)
	addiu	$4,$4,%lo(dos_timer)
	j	mod_timer
	addiu	$5,$5,100

$L173:
$LBB766 = .
$LBB758 = .
	.loc 2 2371 0
	bne	$9,$0,$L191
	nop

$LBE758 = .
$LBE766 = .
	.loc 2 2367 0
	j	$L223
	addiu	$3,$3,40

$L185:
	.loc 2 3322 0
	lui	$5,%hi(none_dos_drop_pkt_cnt)
$L225:
	lw	$6,%lo(none_dos_drop_pkt_cnt)($5)
	sltu	$3,$6,3001
	beq	$3,$0,$L194
	lui	$3,%hi(item_backup)

	.loc 2 3330 0
	j	$L226
	lw	$4,%lo(item_backup)($3)

$L168:
	.loc 2 3322 0
	lw	$6,%lo(none_dos_drop_pkt_cnt)($5)
	sltu	$2,$6,3001
	beq	$2,$0,$L206
	nop

	j	$L195
	lui	$2,%hi(jiffies)

$L206:
	j	$L193
	lui	$2,%hi(jiffies)

	.set	macro
	.set	reorder
	.end	dos_timer_fn
	.cfi_endproc
$LFE3363:
	.size	dos_timer_fn, .-dos_timer_fn
	.align	2
$LFB3387 = .
	.loc 2 2502 0
	.cfi_startproc
	.set	nomips16
	.ent	dos_pkt_locate.isra.5
	.type	dos_pkt_locate.isra.5, @function
dos_pkt_locate.isra.5:
	.frame	$sp,0,$31		# vars= 0, regs= 0/0, args= 0, gp= 0
	.mask	0x00000000,0
	.fmask	0x00000000,0
	.set	noreorder
	.set	nomacro
	.loc 2 2508 0
	andi	$3,$4,0xff
	lui	$2,%hi(ConnectedIp)
	addiu	$2,$2,%lo(ConnectedIp)
	sll	$3,$3,2
	addu	$3,$3,$2
	.loc 2 2507 0
	andi	$2,$4,0x3ff
	.loc 2 2508 0
	lw	$5,0($3)
	.loc 2 2507 0
	sll	$3,$2,3
	sll	$2,$2,5
	addu	$2,$3,$2
	lui	$3,%hi(dos_pkt)
	addiu	$3,$3,%lo(dos_pkt)
	addu	$3,$3,$2
	.loc 2 2508 0
	bne	$5,$4,$L228
	lw	$2,28($3)

	bne	$5,$2,$L229
	nop

	.loc 2 2510 0
	sb	$0,0($3)
	.loc 2 2511 0
	j	$31
	move	$2,$0

$L228:
	.loc 2 2513 0
	beq	$2,$4,$L231
	nop

$L229:
	lb	$5,0($3)
	bne	$5,$0,$L234
	move	$2,$0

	.loc 2 2516 0
	li	$2,1			# 0x1
	sb	$2,0($3)
	.loc 2 2517 0
	lui	$2,%hi(cur_p_pkt)
	sw	$3,%lo(cur_p_pkt)($2)
	.loc 2 2515 0
	sw	$4,28($3)
	.loc 2 2518 0
	j	$31
	li	$2,1			# 0x1

$L231:
	.loc 2 2520 0
	lb	$5,0($3)
	li	$4,1			# 0x1
	bne	$5,$4,$L234
	move	$2,$0

	.loc 2 2522 0
	lui	$2,%hi(cur_p_pkt)
	sw	$3,%lo(cur_p_pkt)($2)
	.loc 2 2523 0
	li	$2,1			# 0x1
$L234:
	.loc 2 2527 0
	j	$31
	nop

	.set	macro
	.set	reorder
	.end	dos_pkt_locate.isra.5
	.cfi_endproc
$LFE3387:
	.size	dos_pkt_locate.isra.5, .-dos_pkt_locate.isra.5
	.align	2
$LFB3396 = .
	.loc 1 272 0
	.cfi_startproc
	.set	nomips16
	.ent	find_pattern.constprop.15
	.type	find_pattern.constprop.15, @function
find_pattern.constprop.15:
	.frame	$sp,64,$31		# vars= 8, regs= 10/0, args= 16, gp= 0
	.mask	0xc0ff0000,-4
	.fmask	0x00000000,0
	.set	noreorder
	.set	nomacro
	addiu	$sp,$sp,-64
	.cfi_def_cfa_offset 64
	.loc 1 276 0
	lw	$2,84($sp)
	lw	$3,80($sp)
	.loc 1 272 0
	sw	$fp,56($sp)
	sw	$23,52($sp)
	sw	$22,48($sp)
	sw	$21,44($sp)
	sw	$20,40($sp)
	sw	$19,36($sp)
	sw	$18,32($sp)
	sw	$17,28($sp)
	sw	$16,24($sp)
	sw	$31,60($sp)
	.cfi_offset 30, -8
	.cfi_offset 23, -12
	.cfi_offset 22, -16
	.cfi_offset 21, -20
	.cfi_offset 20, -24
	.cfi_offset 19, -28
	.cfi_offset 18, -32
	.cfi_offset 17, -36
	.cfi_offset 16, -40
	.cfi_offset 31, -4
	.loc 1 276 0
	sw	$0,0($2)
	.loc 1 277 0
	subu	$2,$5,$7
	.loc 1 272 0
	move	$21,$4
	move	$16,$5
	move	$18,$7
	move	$23,$6
	.loc 1 276 0
	sw	$0,0($3)
	move	$17,$4
	.loc 1 275 0
	move	$20,$0
	.loc 1 277 0
	move	$19,$0
	.loc 1 279 0
	li	$22,13			# 0xd
	.loc 1 284 0
	li	$fp,10			# 0xa
	.loc 1 277 0
	sw	$2,16($sp)
$L242:
	.loc 1 279 0
	lb	$2,0($17)
	bne	$2,$22,$L236
	nop

	.loc 1 281 0
	andi	$2,$20,0x1
	bne	$2,$0,$L247
	addiu	$20,$20,1

	.loc 1 291 0
	j	$L251
	slt	$2,$20,4

$L236:
	.loc 1 284 0
	bne	$2,$fp,$L247
	andi	$2,$20,0x1

	.loc 1 286 0
	beq	$2,$0,$L247
	addiu	$20,$20,1

	.loc 1 291 0
	slt	$2,$20,4
$L251:
	bne	$2,$0,$L237
	nop

$L241:
	.loc 1 302 0
	j	$L239
	move	$2,$0

$L247:
	.loc 1 286 0
	move	$20,$0
$L237:
	.loc 1 293 0
	move	$4,$17
	move	$5,$23
	jal	memcmp
	move	$6,$18

	beq	$2,$0,$L240
	lw	$2,80($sp)

	.loc 1 277 0
	lw	$3,16($sp)
	addiu	$19,$19,1
	sltu	$2,$3,$19
	beq	$2,$0,$L242
	addiu	$17,$17,1

	j	$L239
	move	$2,$0

$L240:
	.loc 1 295 0
	addu	$18,$19,$18
	addu	$21,$21,$18
	sw	$18,0($2)
	.loc 1 296 0
	li	$5,13			# 0xd
	j	$L243
	move	$2,$0

$L244:
	.loc 1 297 0
	bne	$4,$0,$L241
	nop

	.loc 1 296 0
	addiu	$2,$2,1
$L243:
	addu	$3,$21,$2
	lb	$3,0($3)
	addu	$4,$2,$18
	bne	$3,$5,$L244
	sltu	$4,$16,$4

	.loc 1 298 0
	lw	$3,84($sp)
	sw	$2,0($3)
	.loc 1 299 0
	li	$2,1			# 0x1
$L239:
	.loc 1 304 0
	lw	$31,60($sp)
	lw	$fp,56($sp)
	lw	$23,52($sp)
	lw	$22,48($sp)
	lw	$21,44($sp)
	lw	$20,40($sp)
	lw	$19,36($sp)
	lw	$18,32($sp)
	lw	$17,28($sp)
	lw	$16,24($sp)
	j	$31
	addiu	$sp,$sp,64

	.cfi_def_cfa_offset 0
	.cfi_restore 16
	.cfi_restore 17
	.cfi_restore 18
	.cfi_restore 19
	.cfi_restore 20
	.cfi_restore 21
	.cfi_restore 22
	.cfi_restore 23
	.cfi_restore 30
	.cfi_restore 31
	.set	macro
	.set	reorder
	.end	find_pattern.constprop.15
	.cfi_endproc
$LFE3396:
	.size	find_pattern.constprop.15, .-find_pattern.constprop.15
	.section	.rodata.str1.4
	.align	2
$LC12:
	.ascii	"GET \000"
	.align	2
$LC13:
	.ascii	"Host: \000"
	.align	2
$LC14:
	.ascii	"%s\000"
	.text
	.align	2
	.globl	rtl_url_filter_fastpath
$LFB3307 = .
	.loc 1 369 0
	.cfi_startproc
	.set	nomips16
	.ent	rtl_url_filter_fastpath
	.type	rtl_url_filter_fastpath, @function
rtl_url_filter_fastpath:
	.frame	$sp,72,$31		# vars= 16, regs= 8/0, args= 24, gp= 0
	.mask	0x807f0000,-4
	.fmask	0x00000000,0
	addiu	$sp,$sp,-72
	.cfi_def_cfa_offset 72
	sw	$16,40($sp)
	.cfi_offset 16, -32
	move	$16,$4
	.loc 1 378 0
	move	$4,$5
	.loc 1 369 0
	sw	$17,44($sp)
	sw	$31,68($sp)
	sw	$22,64($sp)
	sw	$21,60($sp)
	sw	$20,56($sp)
	sw	$19,52($sp)
	sw	$18,48($sp)
	.cfi_offset 17, -28
	.cfi_offset 31, -4
	.cfi_offset 22, -8
	.cfi_offset 21, -12
	.cfi_offset 20, -16
	.cfi_offset 19, -20
	.cfi_offset 18, -24
	.loc 1 378 0
	.set	noreorder
	.set	nomacro
	jal	strlen
	move	$17,$5
	.set	macro
	.set	reorder

	sltu	$2,$2,2
	bne	$2,$0,$L268
$LBB782 = .
$LBB783 = .
	.loc 1 379 0
	.set	noreorder
	.set	nomacro
	jal	rtl_ip_hdr
	move	$4,$16
	.set	macro
	.set	reorder

	.loc 1 380 0
	lbu	$3,9($2)
	.loc 1 379 0
	move	$18,$2
	.loc 1 380 0
	li	$2,6			# 0x6
	.set	noreorder
	.set	nomacro
	bne	$3,$2,$L268
	li	$5,208			# 0xd0
	.set	macro
	.set	reorder

	.loc 1 381 0
	lw	$2,0($18)
$LBB784 = .
$LBB785 = .
	.loc 3 170 0
	lui	$3,%hi(kmalloc_caches+44)
$LBB786 = .
$LBB787 = .
	.loc 3 142 0
	lw	$4,%lo(kmalloc_caches+44)($3)
$LBE787 = .
$LBE786 = .
$LBE785 = .
$LBE784 = .
	.loc 1 381 0
	ext	$2,$2,24,4
	sll	$2,$2,2
	addu	$2,$18,$2
	.loc 1 385 0
	lw	$20,12($2)
	srl	$20,$20,28
	sll	$20,$20,2
$LBB791 = .
$LBB790 = .
$LBB789 = .
$LBB788 = .
	.loc 3 142 0
	.set	noreorder
	.set	nomacro
	jal	kmem_cache_alloc
	addu	$20,$2,$20
	.set	macro
	.set	reorder

$LBE788 = .
$LBE789 = .
$LBE790 = .
$LBE791 = .
	.loc 1 393 0
	.set	noreorder
	.set	nomacro
	beq	$2,$0,$L268
	move	$19,$2
	.set	macro
	.set	reorder

	.loc 1 397 0
	lw	$2,0($18)
	.loc 1 398 0
	lui	$21,%hi($LC12)
	move	$4,$20
	addiu	$5,$21,%lo($LC12)
	li	$6,4			# 0x4
	.set	noreorder
	.set	nomacro
	jal	memcmp
	ext	$22,$2,24,4
	.set	macro
	.set	reorder

	move	$16,$2
	.set	noreorder
	.set	nomacro
	beq	$2,$0,$L257
	lhu	$3,2($18)
	.set	macro
	.set	reorder

	.loc 1 400 0
	.set	noreorder
	.set	nomacro
	jal	kfree
	move	$4,$19
	.set	macro
	.set	reorder

$LBE783 = .
$LBE782 = .
	.loc 1 401 0
	.set	noreorder
	.set	nomacro
	j	$L274
	move	$16,$0
	.set	macro
	.set	reorder

$L257:
$LBB804 = .
$LBB800 = .
	.loc 1 403 0
	addiu	$2,$sp,32
	.loc 1 397 0
	sll	$18,$22,3
	subu	$18,$3,$18
	.loc 1 403 0
	sw	$2,16($sp)
	lui	$6,%hi($LC13)
	addiu	$2,$sp,28
	sw	$2,20($sp)
	move	$4,$20
	move	$5,$18
	addiu	$6,$6,%lo($LC13)
	.set	noreorder
	.set	nomacro
	jal	find_pattern.constprop.15
	li	$7,6			# 0x6
	.set	macro
	.set	reorder

	.loc 1 404 0
	beq	$2,$0,$L261
	.loc 1 409 0
	lw	$4,28($sp)
	lw	$3,32($sp)
$LBB792 = .
$LBB793 = .
	.file 8 "/home/extra_home/marklee/rtk_OpenWRT_BB/BB_v1407_branch_v25/v25_relase_source_test_0830/rtk_OpenWRT_v2.5_Branch_20160603/build_dir/target-mips_24kec_uClibc-0.9.33.2/linux-rtkmips_rtl8198c/linux-3.10.49/arch/mips/include/asm/string.h"
	.loc 8 49 0
	.set	noreorder
	.set	nomacro
	beq	$4,$0,$L259
	move	$2,$0
	.set	macro
	.set	reorder

$LBE793 = .
$LBE792 = .
	.loc 1 409 0
	addu	$3,$20,$3
$LBB795 = .
$LBB794 = .
	.loc 8 52 0
	move	$2,$19
#APP
 # 52 "/home/extra_home/marklee/rtk_OpenWRT_BB/BB_v1407_branch_v25/v25_relase_source_test_0830/rtk_OpenWRT_v2.5_Branch_20160603/build_dir/target-mips_24kec_uClibc-0.9.33.2/linux-rtkmips_rtl8198c/linux-3.10.49/arch/mips/include/asm/string.h" 1
	.set	noreorder
	.set	noat
1:	lbu	$1,($3)
	subu	$4,1
	sb	$1,($2)
	beqz	$1,2f
	addiu	$2,1
	bnez	$4,1b
	addiu	$3,1
2:
	.set	at
	.set	reorder
 # 0 "" 2
#NO_APP
	lw	$2,28($sp)
$L259:
$LBE794 = .
$LBE795 = .
	.loc 1 410 0
	addu	$2,$19,$2
	sb	$0,0($2)
	.loc 1 411 0
	addiu	$2,$sp,32
	sw	$2,16($sp)
	addiu	$2,$sp,24
	move	$4,$20
	sw	$2,20($sp)
	move	$5,$18
	addiu	$6,$21,%lo($LC12)
	.set	noreorder
	.set	nomacro
	jal	find_pattern.constprop.15
	li	$7,4			# 0x4
	.set	macro
	.set	reorder

	.loc 1 412 0
	bne	$2,$0,$L260
$L261:
	.loc 1 414 0
	.set	noreorder
	.set	nomacro
	jal	kfree
	move	$4,$19
	.set	macro
	.set	reorder

$LBE800 = .
$LBE804 = .
	.loc 1 479 0
	.set	noreorder
	.set	nomacro
	j	$L276
	lw	$31,68($sp)
	.set	macro
	.set	reorder

$L260:
$LBB805 = .
$LBB801 = .
	.loc 1 412 0
	lw	$3,24($sp)
	addiu	$3,$3,-9
	.set	noreorder
	.set	nomacro
	blez	$3,$L261
	sw	$3,24($sp)
	.set	macro
	.set	reorder

	.loc 1 417 0
	lw	$2,28($sp)
	lw	$4,32($sp)
	addu	$2,$19,$2
	addu	$20,$20,$4
$LBB796 = .
$LBB797 = .
	.loc 8 52 0
#APP
 # 52 "/home/extra_home/marklee/rtk_OpenWRT_BB/BB_v1407_branch_v25/v25_relase_source_test_0830/rtk_OpenWRT_v2.5_Branch_20160603/build_dir/target-mips_24kec_uClibc-0.9.33.2/linux-rtkmips_rtl8198c/linux-3.10.49/arch/mips/include/asm/string.h" 1
	.set	noreorder
	.set	noat
1:	lbu	$1,($20)
	subu	$3,1
	sb	$1,($2)
	beqz	$1,2f
	addiu	$2,1
	bnez	$3,1b
	addiu	$20,1
2:
	.set	at
	.set	reorder
 # 0 "" 2
#NO_APP
$LBE797 = .
$LBE796 = .
	.loc 1 418 0
	lw	$3,24($sp)
	lw	$2,28($sp)
	.loc 1 467 0
	move	$4,$19
	.loc 1 418 0
	addu	$3,$19,$3
	addu	$2,$3,$2
	.loc 1 467 0
	.set	noreorder
	.set	nomacro
	jal	strlen
	sb	$0,0($2)
	.set	macro
	.set	reorder

	move	$4,$17
	.set	noreorder
	.set	nomacro
	jal	strlen
	move	$18,$2
	.set	macro
	.set	reorder

$LBB798 = .
$LBB799 = .
	.loc 1 240 0
	sltu	$18,$18,$2
	.set	noreorder
	.set	nomacro
	bne	$18,$0,$L262
	move	$20,$2
	.set	macro
	.set	reorder

	.set	noreorder
	.set	nomacro
	j	$L263
	addu	$18,$19,$2
	.set	macro
	.set	reorder

$L265:
	.loc 1 244 0
	.set	noreorder
	.set	nomacro
	jal	memcmp
	addiu	$18,$18,1
	.set	macro
	.set	reorder

	.set	noreorder
	.set	nomacro
	beq	$2,$0,$L264
	lui	$4,%hi(log_info)
	.set	macro
	.set	reorder

$L263:
	.loc 1 242 0
	lb	$2,0($18)
	.loc 1 244 0
	subu	$4,$18,$20
	move	$5,$17
	.loc 1 242 0
	.set	noreorder
	.set	nomacro
	bne	$2,$0,$L265
	move	$6,$20
	.set	macro
	.set	reorder

$LBE799 = .
$LBE798 = .
$LBE801 = .
$LBE805 = .
	.loc 1 469 0
	.set	noreorder
	.set	nomacro
	j	$L277
	lui	$6,%hi($LC14)
	.set	macro
	.set	reorder

$L267:
	.loc 1 475 0
	.set	noreorder
	.set	nomacro
	j	$L274
	sw	$3,%lo(url_filter_flag)($2)
	.set	macro
	.set	reorder

$L268:
	.loc 1 378 0
	.set	noreorder
	.set	nomacro
	j	$L274
	move	$16,$0
	.set	macro
	.set	reorder

$L264:
$LBB806 = .
$LBB802 = .
	.loc 1 469 0
	lui	$6,%hi($LC14)
	li	$5,32			# 0x20
	addiu	$6,$6,%lo($LC14)
	move	$7,$19
	.set	noreorder
	.set	nomacro
	jal	snprintf
	addiu	$4,$4,%lo(log_info)
	.set	macro
	.set	reorder

	.loc 1 471 0
	.set	noreorder
	.set	nomacro
	jal	kfree
	move	$4,$19
	.set	macro
	.set	reorder

$LBE802 = .
$LBE806 = .
	.loc 1 247 0
	.set	noreorder
	.set	nomacro
	j	$L274
	li	$16,1			# 0x1
	.set	macro
	.set	reorder

$L262:
$LBB807 = .
$LBB803 = .
	.loc 1 469 0
	lui	$6,%hi($LC14)
$L277:
	lui	$4,%hi(log_info)
	li	$5,32			# 0x20
	addiu	$6,$6,%lo($LC14)
	move	$7,$19
	.set	noreorder
	.set	nomacro
	jal	snprintf
	addiu	$4,$4,%lo(log_info)
	.set	macro
	.set	reorder

	.loc 1 471 0
	.set	noreorder
	.set	nomacro
	jal	kfree
	move	$4,$19
	.set	macro
	.set	reorder

	.loc 1 474 0
	lui	$2,%hi(url_filter_mode)
	lw	$3,%lo(url_filter_mode)($2)
	li	$2,1			# 0x1
	.set	noreorder
	.set	nomacro
	beq	$3,$2,$L267
	lui	$2,%hi(url_filter_flag)
	.set	macro
	.set	reorder

$L274:
$LBE803 = .
$LBE807 = .
	.loc 1 479 0
	lw	$31,68($sp)
$L276:
	move	$2,$16
	lw	$22,64($sp)
	lw	$21,60($sp)
	lw	$20,56($sp)
	lw	$19,52($sp)
	lw	$18,48($sp)
	lw	$17,44($sp)
	lw	$16,40($sp)
	.set	noreorder
	.set	nomacro
	j	$31
	addiu	$sp,$sp,72
	.set	macro
	.set	reorder

	.cfi_def_cfa_offset 0
	.cfi_restore 16
	.cfi_restore 17
	.cfi_restore 18
	.cfi_restore 19
	.cfi_restore 20
	.cfi_restore 21
	.cfi_restore 22
	.cfi_restore 31
	.end	rtl_url_filter_fastpath
	.cfi_endproc
$LFE3307:
	.size	rtl_url_filter_fastpath, .-rtl_url_filter_fastpath
	.section	.rodata.str1.4
	.align	2
$LC15:
	.ascii	"ppp0\000"
	.align	2
$LC16:
	.ascii	"eth1\000"
	.align	2
$LC17:
	.ascii	"wlan0\000"
	.text
	.align	2
	.globl	need_filter
$LFB3303 = .
	.loc 1 72 0
	.cfi_startproc
	.set	nomips16
	.ent	need_filter
	.type	need_filter, @function
need_filter:
	.frame	$sp,32,$31		# vars= 0, regs= 3/0, args= 16, gp= 0
	.mask	0x80030000,-4
	.fmask	0x00000000,0
	addiu	$sp,$sp,-32
	.cfi_def_cfa_offset 32
	sw	$17,24($sp)
	sw	$16,20($sp)
	sw	$31,28($sp)
	.cfi_offset 17, -8
	.cfi_offset 16, -12
	.cfi_offset 31, -4
	.loc 1 80 0
	.set	noreorder
	.set	nomacro
	jal	rtl_ip_hdr
	lui	$17,%hi($LC10)
	.set	macro
	.set	reorder

	.loc 1 82 0
	addiu	$4,$17,%lo($LC10)
	.set	noreorder
	.set	nomacro
	jal	rtl_get_dev_by_name
	move	$16,$2
	.set	macro
	.set	reorder

	beq	$2,$0,$L279
	.loc 1 77 0
	lw	$5,376($2)
	.loc 1 85 0
	.set	noreorder
	.set	nomacro
	beq	$5,$0,$L279
	addiu	$5,$5,12
	.set	macro
	.set	reorder

	.loc 1 87 0
	.set	noreorder
	.set	nomacro
	j	$L280
	addiu	$6,$17,%lo($LC10)
	.set	macro
	.set	reorder

$L282:
$LBB808 = .
$LBB809 = .
	.loc 8 77 0
#APP
 # 77 "/home/extra_home/marklee/rtk_OpenWRT_BB/BB_v1407_branch_v25/v25_relase_source_test_0830/rtk_OpenWRT_v2.5_Branch_20160603/build_dir/target-mips_24kec_uClibc-0.9.33.2/linux-rtkmips_rtl8198c/linux-3.10.49/arch/mips/include/asm/string.h" 1
	.set	noreorder
	.set	noat
	lbu	$2,($3)
1:	lbu	$1,($4)
	addiu	$3,1
	bne	$1,$2,2f
	addiu	$4,1
	bnez	$2,1b
	lbu	$2,($3)
	move	$2,$1
2:	subu	$2,$1
3:	.set	at
	.set	reorder
 # 0 "" 2
#NO_APP
$LBE809 = .
$LBE808 = .
	.loc 1 89 0
	beq	$2,$0,$L281
	.loc 1 87 0
	addiu	$5,$5,8
$L280:
	.loc 1 87 0 is_stmt 0 discriminator 1
	lw	$5,0($5)
$LBB811 = .
$LBB810 = .
	.loc 8 77 0 is_stmt 1 discriminator 1
	move	$3,$6
$LBE810 = .
$LBE811 = .
	.loc 1 87 0 discriminator 1
	.set	noreorder
	.set	nomacro
	bne	$5,$0,$L282
	addiu	$4,$5,43
	.set	macro
	.set	reorder

$L279:
	.loc 1 105 0
	lui	$17,%hi($LC15)
$L317:
	.set	noreorder
	.set	nomacro
	jal	rtl_get_dev_by_name
	addiu	$4,$17,%lo($LC15)
	.set	macro
	.set	reorder

	.set	noreorder
	.set	nomacro
	beq	$2,$0,$L283
	addiu	$6,$17,%lo($LC15)
	.set	macro
	.set	reorder

	.loc 1 78 0
	lw	$2,376($2)
	.loc 1 107 0
	.set	noreorder
	.set	nomacro
	bne	$2,$0,$L313
	addiu	$5,$2,12
	.set	macro
	.set	reorder

$L289:
	.loc 1 163 0
	.set	noreorder
	.set	nomacro
	j	$L314
	li	$2,1			# 0x1
	.set	macro
	.set	reorder

$L288:
$LBB812 = .
$LBB813 = .
	.loc 8 77 0
#APP
 # 77 "/home/extra_home/marklee/rtk_OpenWRT_BB/BB_v1407_branch_v25/v25_relase_source_test_0830/rtk_OpenWRT_v2.5_Branch_20160603/build_dir/target-mips_24kec_uClibc-0.9.33.2/linux-rtkmips_rtl8198c/linux-3.10.49/arch/mips/include/asm/string.h" 1
	.set	noreorder
	.set	noat
	lbu	$2,($3)
1:	lbu	$1,($4)
	addiu	$3,1
	bne	$1,$2,2f
	addiu	$4,1
	bnez	$2,1b
	lbu	$2,($3)
	move	$2,$1
2:	subu	$2,$1
3:	.set	at
	.set	reorder
 # 0 "" 2
#NO_APP
$LBE813 = .
$LBE812 = .
	.loc 1 109 0
	beq	$2,$0,$L287
	.loc 1 108 0
	addiu	$5,$5,8
$L313:
	.loc 1 108 0 is_stmt 0 discriminator 1
	lw	$5,0($5)
$LBB815 = .
$LBB814 = .
	.loc 8 77 0 is_stmt 1 discriminator 1
	move	$3,$6
$LBE814 = .
$LBE815 = .
	.loc 1 108 0 discriminator 1
	.set	noreorder
	.set	nomacro
	bne	$5,$0,$L288
	addiu	$4,$5,43
	.set	macro
	.set	reorder

	.set	noreorder
	.set	nomacro
	j	$L314
	li	$2,1			# 0x1
	.set	macro
	.set	reorder

$L283:
	.loc 1 124 0
	lui	$17,%hi($LC16)
	.set	noreorder
	.set	nomacro
	jal	rtl_get_dev_by_name
	addiu	$4,$17,%lo($LC16)
	.set	macro
	.set	reorder

	beq	$2,$0,$L290
	.loc 1 78 0
	lw	$4,376($2)
	.loc 1 128 0
	.set	noreorder
	.set	nomacro
	beq	$4,$0,$L314
	li	$2,1			# 0x1
	.set	macro
	.set	reorder

	.loc 1 129 0
	addiu	$4,$4,12
	.set	noreorder
	.set	nomacro
	j	$L291
	addiu	$6,$17,%lo($LC16)
	.set	macro
	.set	reorder

$L293:
$LBB816 = .
$LBB817 = .
	.loc 8 77 0
#APP
 # 77 "/home/extra_home/marklee/rtk_OpenWRT_BB/BB_v1407_branch_v25/v25_relase_source_test_0830/rtk_OpenWRT_v2.5_Branch_20160603/build_dir/target-mips_24kec_uClibc-0.9.33.2/linux-rtkmips_rtl8198c/linux-3.10.49/arch/mips/include/asm/string.h" 1
	.set	noreorder
	.set	noat
	lbu	$5,($2)
1:	lbu	$1,($3)
	addiu	$2,1
	bne	$1,$5,2f
	addiu	$3,1
	bnez	$5,1b
	lbu	$5,($2)
	move	$5,$1
2:	subu	$5,$1
3:	.set	at
	.set	reorder
 # 0 "" 2
#NO_APP
$LBE817 = .
$LBE816 = .
	.loc 1 133 0
	beq	$5,$0,$L292
	.loc 1 129 0
	addiu	$4,$4,8
$L291:
	.loc 1 129 0 is_stmt 0 discriminator 1
	lw	$4,0($4)
$LBB819 = .
$LBB818 = .
	.loc 8 77 0 is_stmt 1 discriminator 1
	move	$2,$6
$LBE818 = .
$LBE819 = .
	.loc 1 129 0 discriminator 1
	.set	noreorder
	.set	nomacro
	bne	$4,$0,$L293
	addiu	$3,$4,43
	.set	macro
	.set	reorder

	.set	noreorder
	.set	nomacro
	j	$L314
	li	$2,1			# 0x1
	.set	macro
	.set	reorder

$L290:
	.loc 1 147 0
	lui	$17,%hi($LC17)
	.set	noreorder
	.set	nomacro
	jal	rtl_get_dev_by_name
	addiu	$4,$17,%lo($LC17)
	.set	macro
	.set	reorder

	beq	$2,$0,$L289
	.loc 1 78 0
	lw	$2,376($2)
	.loc 1 149 0
	beq	$2,$0,$L289
	.loc 1 150 0
	addiu	$2,$2,12
	.set	noreorder
	.set	nomacro
	j	$L294
	addiu	$6,$17,%lo($LC17)
	.set	macro
	.set	reorder

$L296:
$LBB820 = .
$LBB821 = .
	.loc 8 77 0
#APP
 # 77 "/home/extra_home/marklee/rtk_OpenWRT_BB/BB_v1407_branch_v25/v25_relase_source_test_0830/rtk_OpenWRT_v2.5_Branch_20160603/build_dir/target-mips_24kec_uClibc-0.9.33.2/linux-rtkmips_rtl8198c/linux-3.10.49/arch/mips/include/asm/string.h" 1
	.set	noreorder
	.set	noat
	lbu	$5,($3)
1:	lbu	$1,($4)
	addiu	$3,1
	bne	$1,$5,2f
	addiu	$4,1
	bnez	$5,1b
	lbu	$5,($3)
	move	$5,$1
2:	subu	$5,$1
3:	.set	at
	.set	reorder
 # 0 "" 2
#NO_APP
$LBE821 = .
$LBE820 = .
	.loc 1 151 0
	beq	$5,$0,$L295
	.loc 1 150 0
	addiu	$2,$2,8
$L294:
	.loc 1 150 0 is_stmt 0 discriminator 1
	lw	$2,0($2)
$LBB823 = .
$LBB822 = .
	.loc 8 77 0 is_stmt 1 discriminator 1
	move	$3,$6
$LBE822 = .
$LBE823 = .
	.loc 1 150 0 discriminator 1
	.set	noreorder
	.set	nomacro
	bne	$2,$0,$L296
	addiu	$4,$2,43
	.set	macro
	.set	reorder

	.set	noreorder
	.set	nomacro
	j	$L314
	li	$2,1			# 0x1
	.set	macro
	.set	reorder

$L281:
	.loc 1 97 0
	lw	$3,16($16)
	lw	$2,28($5)
	.set	noreorder
	.set	nomacro
	bne	$3,$2,$L317
	lui	$17,%hi($LC15)
	.set	macro
	.set	reorder

	.set	noreorder
	.set	nomacro
	j	$L314
	move	$2,$0
	.set	macro
	.set	reorder

$L287:
	.loc 1 115 0
	lw	$3,16($16)
	lw	$2,24($5)
	xor	$2,$3,$2
	.set	noreorder
	.set	nomacro
	j	$L314
	sltu	$2,$0,$2
	.set	macro
	.set	reorder

$L292:
	.loc 1 141 0
	lw	$3,16($16)
	lw	$2,28($4)
	xor	$2,$3,$2
	.set	noreorder
	.set	nomacro
	j	$L314
	sltu	$2,$0,$2
	.set	macro
	.set	reorder

$L295:
	.loc 1 157 0
	lw	$3,16($16)
	lw	$2,28($2)
	xor	$2,$3,$2
	sltu	$2,$0,$2
$L314:
	.loc 1 164 0
	lw	$31,28($sp)
	lw	$17,24($sp)
	lw	$16,20($sp)
	.set	noreorder
	.set	nomacro
	j	$31
	addiu	$sp,$sp,32
	.set	macro
	.set	reorder

	.cfi_def_cfa_offset 0
	.cfi_restore 16
	.cfi_restore 17
	.cfi_restore 31
	.end	need_filter
	.cfi_endproc
$LFE3303:
	.size	need_filter, .-need_filter
	.align	2
	.globl	str2hexnum
$LFB3305 = .
	.loc 1 253 0
	.cfi_startproc
	.set	nomips16
	.ent	str2hexnum
	.type	str2hexnum, @function
str2hexnum:
	.frame	$sp,0,$31		# vars= 0, regs= 0/0, args= 0, gp= 0
	.mask	0x00000000,0
	.fmask	0x00000000,0
	.set	noreorder
	.set	nomacro
	.loc 1 256 0
	j	$L319
	move	$2,$0

$L323:
	.loc 1 259 0
	bne	$7,$0,$L320
	nop

	.loc 1 263 0
	addiu	$5,$3,-65
	.loc 1 261 0
	beq	$6,$0,$L321
	sltu	$5,$5,6

	j	$L320
	addiu	$5,$3,-87

$L321:
	.loc 1 263 0
	beq	$5,$0,$L324
	addiu	$5,$3,-55

$L320:
	.loc 1 256 0
	sll	$2,$2,4
	addu	$2,$5,$2
	addiu	$4,$4,1
$L319:
	.loc 1 256 0 is_stmt 0 discriminator 1
	lbu	$3,0($4)
	.loc 1 259 0 is_stmt 1 discriminator 1
	addiu	$5,$3,-48
	.loc 1 261 0 discriminator 1
	addiu	$6,$3,-97
	.loc 1 259 0 discriminator 1
	sltu	$7,$5,10
	.loc 1 256 0 discriminator 1
	bne	$3,$0,$L323
	sltu	$6,$6,6

	j	$31
	nop

$L324:
	.loc 1 270 0
	j	$31
	li	$2,-1			# 0xffffffffffffffff

	.set	macro
	.set	reorder
	.end	str2hexnum
	.cfi_endproc
$LFE3305:
	.size	str2hexnum, .-str2hexnum
	.align	2
	.globl	filter_table_head_init
$LFB3311 = .
	.loc 1 567 0
	.cfi_startproc
	.set	nomips16
	.ent	filter_table_head_init
	.type	filter_table_head_init, @function
filter_table_head_init:
	.frame	$sp,0,$31		# vars= 0, regs= 0/0, args= 0, gp= 0
	.mask	0x00000000,0
	.fmask	0x00000000,0
	.set	noreorder
	.set	nomacro
$LBB824 = .
	.loc 1 568 0
	lui	$4,%hi(table_list_head)
$LBE824 = .
$LBB825 = .
$LBB826 = .
	.file 9 "include/linux/list.h"
	.loc 9 26 0
	lui	$3,%hi(table_list_head+8)
$LBE826 = .
$LBE825 = .
$LBB828 = .
	.loc 1 568 0
	addiu	$2,$4,%lo(table_list_head)
$LBE828 = .
$LBB829 = .
$LBB827 = .
	.loc 9 26 0
	addiu	$3,$3,%lo(table_list_head+8)
	sw	$3,8($2)
	.loc 9 27 0
	sw	$3,12($2)
$LBE827 = .
$LBE829 = .
	.loc 1 575 0
	li	$3,1			# 0x1
$LBB830 = .
	.loc 1 568 0
	sw	$0,16($2)
	sw	$0,20($2)
	sw	$0,28($2)
$LBE830 = .
$LBB831 = .
$LBB832 = .
	.loc 9 26 0
	sw	$2,%lo(table_list_head)($4)
	.loc 9 27 0
	sw	$2,4($2)
$LBE832 = .
$LBE831 = .
	.loc 1 575 0
	sw	$3,24($2)
	.loc 1 578 0
	j	$31
	move	$2,$0

	.set	macro
	.set	reorder
	.end	filter_table_head_init
	.cfi_endproc
$LFE3311:
	.size	filter_table_head_init, .-filter_table_head_init
	.align	2
	.globl	filter_table_regist
$LFB3312 = .
	.loc 1 581 0
	.cfi_startproc
	.set	nomips16
	.ent	filter_table_regist
	.type	filter_table_regist, @function
filter_table_regist:
	.frame	$sp,40,$31		# vars= 0, regs= 5/0, args= 16, gp= 0
	.mask	0x800f0000,-4
	.fmask	0x00000000,0
	.set	noreorder
	.set	nomacro
	addiu	$sp,$sp,-40
	.cfi_def_cfa_offset 40
	sw	$17,24($sp)
	.cfi_offset 17, -16
	.loc 1 584 0
	lui	$17,%hi(table_list_head)
	.loc 1 581 0
	sw	$16,20($sp)
	.cfi_offset 16, -20
	.loc 1 584 0
	addiu	$16,$17,%lo(table_list_head)
	lw	$2,24($16)
	.loc 1 581 0
	sw	$19,32($sp)
	sw	$18,28($sp)
	sw	$31,36($sp)
	.cfi_offset 19, -8
	.cfi_offset 18, -12
	.cfi_offset 31, -4
	.loc 1 581 0
	move	$19,$4
	.loc 1 584 0
	bne	$2,$0,$L327
	move	$18,$5

	.loc 1 586 0
	jal	filter_table_head_init
	nop

$L327:
$LBB833 = .
$LBB834 = .
	.loc 3 170 0
	lui	$2,%hi(kmalloc_caches+28)
$LBB835 = .
$LBB836 = .
	.loc 3 142 0
	lw	$4,%lo(kmalloc_caches+28)($2)
	jal	kmem_cache_alloc
	li	$5,208			# 0xd0

$LBE836 = .
$LBE835 = .
$LBE834 = .
$LBE833 = .
$LBB837 = .
$LBB838 = .
	.loc 9 26 0
	sw	$2,0($2)
$LBE838 = .
$LBE837 = .
$LBB839 = .
$LBB840 = .
	.loc 9 62 0
	lw	$3,%lo(table_list_head)($17)
$LBE840 = .
$LBE839 = .
	.loc 1 596 0
	addiu	$6,$2,8
	.loc 1 593 0
	li	$4,1			# 0x1
	.loc 1 591 0
	sw	$19,16($2)
	.loc 1 592 0
	sw	$0,20($2)
	.loc 1 593 0
	sw	$4,24($2)
$LBB847 = .
$LBB848 = .
	.loc 9 26 0
	sw	$6,8($2)
	.loc 9 27 0
	sw	$6,12($2)
$LBE848 = .
$LBE847 = .
	.loc 1 594 0
	sw	$18,28($2)
$LBB849 = .
$LBB845 = .
$LBB841 = .
$LBB842 = .
	.loc 9 41 0
	sw	$2,4($3)
	.loc 9 42 0
	sw	$3,0($2)
	.loc 9 43 0
	sw	$16,4($2)
$LBE842 = .
$LBE841 = .
$LBE845 = .
$LBE849 = .
	.loc 1 599 0
	lw	$3,24($16)
	.loc 1 601 0
	lw	$31,36($sp)
$LBB850 = .
$LBB846 = .
$LBB844 = .
$LBB843 = .
	.loc 9 44 0
	sw	$2,%lo(table_list_head)($17)
$LBE843 = .
$LBE844 = .
$LBE846 = .
$LBE850 = .
	.loc 1 599 0
	addiu	$3,$3,1
	.loc 1 601 0
	lw	$19,32($sp)
	lw	$18,28($sp)
	lw	$17,24($sp)
	move	$2,$0
	.loc 1 599 0
	sw	$3,24($16)
	.loc 1 601 0
	lw	$16,20($sp)
	j	$31
	addiu	$sp,$sp,40

	.cfi_def_cfa_offset 0
	.cfi_restore 16
	.cfi_restore 17
	.cfi_restore 18
	.cfi_restore 19
	.cfi_restore 31
	.set	macro
	.set	reorder
	.end	filter_table_regist
	.cfi_endproc
$LFE3312:
	.size	filter_table_regist, .-filter_table_regist
	.align	2
	.globl	filter_table_flush
$LFB3313 = .
	.loc 1 604 0
	.cfi_startproc
	.set	nomips16
	.ent	filter_table_flush
	.type	filter_table_flush, @function
filter_table_flush:
	.frame	$sp,56,$31		# vars= 0, regs= 9/0, args= 16, gp= 0
	.mask	0x80ff0000,-4
	.fmask	0x00000000,0
	.set	noreorder
	.set	nomacro
	addiu	$sp,$sp,-56
	.cfi_def_cfa_offset 56
	sw	$21,40($sp)
	.cfi_offset 21, -16
$LBB851 = .
	.loc 1 612 0
	lui	$21,%hi(table_list_head)
$LBE851 = .
	.loc 1 604 0
	sw	$17,24($sp)
	.cfi_offset 17, -32
$LBB852 = .
	.loc 1 612 0
	lw	$17,%lo(table_list_head)($21)
$LBE852 = .
	.loc 1 604 0
	sw	$23,48($sp)
	sw	$20,36($sp)
	sw	$19,32($sp)
	sw	$31,52($sp)
	sw	$22,44($sp)
	sw	$18,28($sp)
	sw	$16,20($sp)
	.cfi_offset 23, -8
	.cfi_offset 20, -20
	.cfi_offset 19, -24
	.cfi_offset 31, -4
	.cfi_offset 22, -12
	.cfi_offset 18, -28
	.cfi_offset 16, -36
$LBB853 = .
$LBB854 = .
	.loc 9 107 0
	li	$20,1048576			# 0x100000
	.loc 9 108 0
	li	$19,2097152			# 0x200000
$LBE854 = .
$LBE853 = .
$LBB859 = .
	.loc 1 612 0
	lw	$22,0($17)
	addiu	$21,$21,%lo(table_list_head)
$LBE859 = .
$LBB860 = .
$LBB857 = .
	.loc 9 107 0
	addiu	$20,$20,256
	.loc 9 108 0
	addiu	$19,$19,512
$LBE857 = .
$LBE860 = .
	.loc 1 612 0
	j	$L330
	li	$23,3			# 0x3

$L334:
$LBB861 = .
	.loc 1 614 0
	lw	$2,8($17)
$LBE861 = .
	j	$L331
	lw	$16,0($2)

$L332:
$LBB862 = .
$LBB858 = .
	.loc 9 106 0 discriminator 2
	lw	$3,4($2)
	lw	$5,0($2)
$LBB855 = .
$LBB856 = .
	.loc 9 88 0 discriminator 2
	sw	$3,4($5)
	.loc 9 89 0 discriminator 2
	sw	$5,0($3)
$LBE856 = .
$LBE855 = .
	.loc 9 107 0 discriminator 2
	sw	$20,0($2)
$LBE858 = .
$LBE862 = .
	.loc 1 617 0 discriminator 2
	jal	kfree
	sw	$19,4($2)

	.loc 1 618 0 discriminator 2
	lw	$3,24($17)
	.loc 1 614 0 discriminator 2
	move	$2,$16
	.loc 1 618 0 discriminator 2
	addiu	$3,$3,-1
	sw	$3,24($17)
	.loc 1 614 0 discriminator 2
	lw	$16,0($16)
$L331:
	.loc 1 614 0 is_stmt 0 discriminator 1
	bne	$2,$18,$L332
	move	$4,$2

	.loc 1 621 0 is_stmt 1
	lw	$2,16($17)
	bne	$2,$23,$L333
	li	$2,1			# 0x1

	.loc 1 621 0 is_stmt 0 discriminator 1
	lw	$3,24($17)
	bne	$3,$2,$L333
	nop

$LBB863 = .
	.loc 1 624 0 is_stmt 1
	jal	Del_Pattern_ACL_For_ContentFilter
	nop

$L333:
$LBE863 = .
$LBB864 = .
$LBB865 = .
	.loc 9 106 0
	lw	$2,4($17)
	lw	$3,0($17)
$LBE865 = .
$LBE864 = .
	.loc 1 627 0
	move	$4,$17
$LBB869 = .
$LBB868 = .
$LBB866 = .
$LBB867 = .
	.loc 9 88 0
	sw	$2,4($3)
	.loc 9 89 0
	sw	$3,0($2)
$LBE867 = .
$LBE866 = .
	.loc 9 107 0
	sw	$20,0($17)
$LBE868 = .
$LBE869 = .
	.loc 1 627 0
	jal	kfree
	sw	$19,4($17)

	.loc 1 628 0
	lw	$2,24($21)
	.loc 1 612 0
	move	$17,$22
	.loc 1 628 0
	addiu	$2,$2,-1
	sw	$2,24($21)
	.loc 1 612 0
	lw	$22,0($22)
$L330:
	.loc 1 612 0 is_stmt 0 discriminator 1
	bne	$17,$21,$L334
	addiu	$18,$17,8

	.loc 1 631 0 is_stmt 1
	lui	$2,%hi(filter_rule_num)
	.loc 1 635 0
	lw	$31,52($sp)
	.loc 1 631 0
	li	$3,1			# 0x1
	sw	$3,%lo(filter_rule_num)($2)
	.loc 1 632 0
	lui	$2,%hi(log_enable)
	sw	$0,%lo(log_enable)($2)
	.loc 1 633 0
	lui	$2,%hi(url_filter_mode)
	.loc 1 635 0
	lw	$23,48($sp)
	lw	$22,44($sp)
	lw	$21,40($sp)
	lw	$20,36($sp)
	lw	$19,32($sp)
	lw	$18,28($sp)
	lw	$17,24($sp)
	lw	$16,20($sp)
	.loc 1 633 0
	sw	$0,%lo(url_filter_mode)($2)
	.loc 1 635 0
	move	$2,$0
	j	$31
	addiu	$sp,$sp,56

	.cfi_def_cfa_offset 0
	.cfi_restore 16
	.cfi_restore 17
	.cfi_restore 18
	.cfi_restore 19
	.cfi_restore 20
	.cfi_restore 21
	.cfi_restore 22
	.cfi_restore 23
	.cfi_restore 31
	.set	macro
	.set	reorder
	.end	filter_table_flush
	.cfi_endproc
$LFE3313:
	.size	filter_table_flush, .-filter_table_flush
	.align	2
	.globl	filter_item_regist
$LFB3314 = .
	.loc 1 639 0
	.cfi_startproc
	.set	nomips16
	.ent	filter_item_regist
	.type	filter_item_regist, @function
filter_item_regist:
	.frame	$sp,24,$31		# vars= 0, regs= 2/0, args= 16, gp= 0
	.mask	0x80010000,-4
	.fmask	0x00000000,0
	.set	noreorder
	.set	nomacro
	addiu	$sp,$sp,-24
	.cfi_def_cfa_offset 24
	.loc 1 643 0
	lui	$6,%hi(table_list_head)
	lw	$3,%lo(table_list_head)($6)
	.loc 1 639 0
	sw	$31,20($sp)
	sw	$16,16($sp)
	.cfi_offset 31, -4
	.cfi_offset 16, -8
	.loc 1 643 0
	j	$L337
	addiu	$6,$6,%lo(table_list_head)

$L340:
	.loc 1 646 0
	lw	$2,16($3)
	bne	$2,$4,$L338
	nop

$LBB870 = .
$LBB871 = .
	.loc 9 62 0
	lw	$2,8($3)
$LBE871 = .
$LBE870 = .
	.loc 1 648 0
	addiu	$6,$3,8
$LBB878 = .
$LBB876 = .
$LBB872 = .
$LBB873 = .
	.loc 9 41 0
	sw	$5,4($2)
	.loc 9 42 0
	sw	$2,0($5)
	.loc 9 43 0
	sw	$6,4($5)
$LBE873 = .
$LBE872 = .
$LBE876 = .
$LBE878 = .
	.loc 1 649 0
	lw	$2,24($3)
$LBB879 = .
$LBB877 = .
$LBB875 = .
$LBB874 = .
	.loc 9 44 0
	sw	$5,8($3)
$LBE874 = .
$LBE875 = .
$LBE877 = .
$LBE879 = .
	.loc 1 649 0
	addiu	$2,$2,1
	sw	$2,24($3)
	.loc 1 650 0
	li	$3,3			# 0x3
	bne	$4,$3,$L339
	move	$16,$0

	.loc 1 650 0 is_stmt 0 discriminator 1
	li	$3,2			# 0x2
	bne	$2,$3,$L339
	nop

$LBB880 = .
	.loc 1 653 0 is_stmt 1
	jal	Add_Pattern_ACL_For_ContentFilter
	nop

$LBE880 = .
	.loc 1 660 0
	j	$L344
	lw	$31,20($sp)

$L338:
	.loc 1 643 0
	lw	$3,0($3)
$L337:
	.loc 1 643 0 is_stmt 0 discriminator 1
	bne	$3,$6,$L340
	li	$16,-1			# 0xffffffffffffffff

$L339:
	.loc 1 660 0 is_stmt 1
	lw	$31,20($sp)
$L344:
	move	$2,$16
	lw	$16,16($sp)
	j	$31
	addiu	$sp,$sp,24

	.cfi_def_cfa_offset 0
	.cfi_restore 16
	.cfi_restore 31
	.set	macro
	.set	reorder
	.end	filter_item_regist
	.cfi_endproc
$LFE3314:
	.size	filter_item_regist, .-filter_item_regist
	.align	2
	.globl	check_esc_end
$LFB3315 = .
	.loc 1 666 0
	.cfi_startproc
	.set	nomips16
	.ent	check_esc_end
	.type	check_esc_end, @function
check_esc_end:
	.frame	$sp,32,$31		# vars= 0, regs= 3/0, args= 16, gp= 0
	.mask	0x80030000,-4
	.fmask	0x00000000,0
	.set	noreorder
	.set	nomacro
	addiu	$sp,$sp,-32
	.cfi_def_cfa_offset 32
	sw	$17,24($sp)
	sw	$16,20($sp)
	sw	$31,28($sp)
	.cfi_offset 17, -8
	.cfi_offset 16, -12
	.cfi_offset 31, -4
	.loc 1 666 0
	move	$16,$4
	.loc 1 667 0
	jal	strlen
	seb	$17,$5

	.loc 1 669 0
	addiu	$2,$2,-1
	j	$L346
	move	$3,$0

$L348:
	.loc 1 671 0
	lb	$6,0($6)
	beq	$6,$17,$L347
	addiu	$2,$2,-1

	.loc 1 677 0
	srl	$4,$3,31
$L352:
	addu	$2,$3,$4
	andi	$2,$2,0x1
	subu	$2,$2,$4
	.loc 1 678 0
	lw	$31,28($sp)
	lw	$17,24($sp)
	lw	$16,20($sp)
	j	$31
	addiu	$sp,$sp,32

	.cfi_remember_state
	.cfi_def_cfa_offset 0
	.cfi_restore 16
	.cfi_restore 17
	.cfi_restore 31
$L347:
	.cfi_restore_state
	.loc 1 672 0
	addiu	$3,$3,1
$L346:
	.loc 1 669 0 discriminator 1
	bgez	$2,$L348
	addu	$6,$16,$2

	.loc 1 677 0
	j	$L352
	srl	$4,$3,31

	.set	macro
	.set	reorder
	.end	check_esc_end
	.cfi_endproc
$LFE3315:
	.size	check_esc_end, .-check_esc_end
	.section	.rodata.str1.4
	.align	2
$LC18:
	.ascii	"init\000"
	.align	2
$LC19:
	.ascii	" \000"
	.align	2
$LC20:
	.ascii	"flush\000"
	.align	2
$LC21:
	.ascii	"enable_log\000"
	.align	2
$LC22:
	.ascii	"white\000"
	.align	2
$LC23:
	.ascii	"black\000"
	.align	2
$LC24:
	.ascii	"add:\000"
	.align	2
$LC25:
	.ascii	"#\000"
	.align	2
$LC26:
	.ascii	";\000"
	.text
	.align	2
$LFB3319 = .
	.loc 1 1173 0
	.cfi_startproc
	.set	nomips16
	.ent	filter_table_single_write
	.type	filter_table_single_write, @function
filter_table_single_write:
	.frame	$sp,72,$31		# vars= 16, regs= 10/0, args= 16, gp= 0
	.mask	0xc0ff0000,-4
	.fmask	0x00000000,0
	addiu	$sp,$sp,-72
	.cfi_def_cfa_offset 72
	sw	$19,44($sp)
	.cfi_offset 19, -28
$LBB906 = .
$LBB907 = .
$LBB908 = .
$LBB909 = .
	.loc 3 170 0
	lui	$19,%hi(kmalloc_caches)
$LBE909 = .
$LBE908 = .
$LBE907 = .
$LBE906 = .
	.loc 1 1173 0
	sw	$18,40($sp)
	sw	$17,36($sp)
	sw	$16,32($sp)
	sw	$31,68($sp)
	sw	$fp,64($sp)
	sw	$23,60($sp)
	sw	$22,56($sp)
	sw	$21,52($sp)
	sw	$20,48($sp)
	.cfi_offset 18, -32
	.cfi_offset 17, -36
	.cfi_offset 16, -40
	.cfi_offset 31, -4
	.cfi_offset 30, -8
	.cfi_offset 23, -12
	.cfi_offset 22, -16
	.cfi_offset 21, -20
	.cfi_offset 20, -24
$LBB948 = .
$LBB937 = .
$LBB916 = .
$LBB914 = .
	.loc 3 170 0
	addiu	$19,$19,%lo(kmalloc_caches)
$LBB910 = .
$LBB911 = .
	.loc 3 142 0
	lw	$4,40($19)
$LBE911 = .
$LBE910 = .
$LBE914 = .
$LBE916 = .
$LBE937 = .
$LBE948 = .
	.loc 1 1173 0
	move	$17,$5
$LBB949 = .
$LBB938 = .
$LBB917 = .
$LBB915 = .
$LBB913 = .
$LBB912 = .
	.loc 3 142 0
	li	$5,208			# 0xd0
	.set	noreorder
	.set	nomacro
	jal	kmem_cache_alloc
	move	$18,$6
	.set	macro
	.set	reorder

$LBE912 = .
$LBE913 = .
$LBE915 = .
$LBE917 = .
	.loc 1 703 0
	.set	noreorder
	.set	nomacro
	beq	$2,$0,$L384
	move	$16,$2
	.set	macro
	.set	reorder

$LBB918 = .
	.loc 1 705 0
	move	$5,$0
	li	$6,1024			# 0x400
	move	$4,$2
	.set	noreorder
	.set	nomacro
	jal	memset
	lui	$20,%hi(get_info_from_usr_space)
	.set	macro
	.set	reorder

$LBE918 = .
$LBB919 = .
	.loc 1 708 0
	addiu	$4,$20,%lo(get_info_from_usr_space)
	move	$21,$4
	.set	noreorder
	.set	nomacro
	jal	strlen
	sw	$16,16($sp)
	.set	macro
	.set	reorder

	move	$6,$2
	move	$4,$21
	.set	noreorder
	.set	nomacro
	jal	memset
	move	$5,$0
	.set	macro
	.set	reorder

$LBE919 = .
	.loc 1 709 0
	.set	noreorder
	.set	nomacro
	beq	$17,$0,$L355
	or	$3,$17,$18
	.set	macro
	.set	reorder

$LBB920 = .
$LBB921 = .
	addu	$2,$17,$18
	or	$2,$3,$2
	lw	$3,24($28)
	and	$2,$2,$3
$LBE921 = .
	.set	noreorder
	.set	nomacro
	bne	$2,$0,$L385
	move	$4,$21
	.set	macro
	.set	reorder

$LBB922 = .
	move	$5,$17
	move	$6,$18
#APP
 # 709 "/home/extra_home/marklee/rtk_OpenWRT_BB/BB_v1407_branch_v25/v25_relase_source_test_0830/rtk_OpenWRT_v2.5_Branch_20160603/build_dir/target-mips_24kec_uClibc-0.9.33.2/linux-rtkmips_rtl8198c/fastpath-0.1/filter_v2.c" 1
	.set	noreorder
	.set	noat
	la	$1, __copy_user
	jalr	$1
	.set	at
	.set	noat
	addu	$1, $5, $6
	.set	at
	.set	reorder
 # 0 "" 2
#NO_APP
	j	$L356
$L385:
$LBE922 = .
	move	$6,$18
$L356:
$LBE920 = .
	bne	$6,$0,$L355
$LBB923 = .
$LBB924 = .
	.loc 8 49 0
	.set	noreorder
	.set	nomacro
	beq	$18,$0,$L357
	move	$2,$16
	.set	macro
	.set	reorder

	.loc 8 52 0
	move	$3,$18
#APP
 # 52 "/home/extra_home/marklee/rtk_OpenWRT_BB/BB_v1407_branch_v25/v25_relase_source_test_0830/rtk_OpenWRT_v2.5_Branch_20160603/build_dir/target-mips_24kec_uClibc-0.9.33.2/linux-rtkmips_rtl8198c/linux-3.10.49/arch/mips/include/asm/string.h" 1
	.set	noreorder
	.set	noat
1:	lbu	$1,($21)
	subu	$3,1
	sb	$1,($2)
	beqz	$1,2f
	addiu	$2,1
	bnez	$3,1b
	addiu	$21,1
2:
	.set	at
	.set	reorder
 # 0 "" 2
#NO_APP
$L357:
$LBE924 = .
$LBE923 = .
	.loc 1 712 0
	.set	noreorder
	.set	nomacro
	jal	strlen
	addiu	$4,$20,%lo(get_info_from_usr_space)
	.set	macro
	.set	reorder

	addu	$2,$16,$2
	sb	$0,-1($2)
	.loc 1 714 0
	lw	$20,16($sp)
	lui	$17,%hi($LC18)
	.set	noreorder
	.set	nomacro
	jal	strlen
	addiu	$4,$17,%lo($LC18)
	.set	macro
	.set	reorder

	move	$6,$2
	move	$4,$20
	.set	noreorder
	.set	nomacro
	jal	memcmp
	addiu	$5,$17,%lo($LC18)
	.set	macro
	.set	reorder

	.set	noreorder
	.set	nomacro
	bne	$2,$0,$L358
	lui	$17,%hi($LC20)
	.set	macro
	.set	reorder

	.loc 1 717 0
	lui	$23,%hi($LC19)
	addiu	$17,$sp,16
	move	$4,$17
	.set	noreorder
	.set	nomacro
	jal	strsep
	addiu	$5,$23,%lo($LC19)
	.set	macro
	.set	reorder

	.loc 1 720 0
	lw	$2,16($sp)
	.set	noreorder
	.set	nomacro
	beq	$2,$0,$L355
	lui	$19,%hi(filter_tlb)
	.set	macro
	.set	reorder

	addiu	$19,$19,%lo(filter_tlb)
	.loc 1 721 0
	addiu	$23,$23,%lo($LC19)
	move	$5,$23
$L422:
	.set	noreorder
	.set	nomacro
	jal	strsep
	move	$4,$17
	.set	macro
	.set	reorder

	.loc 1 722 0
	.set	noreorder
	.set	nomacro
	jal	str2hexnum
	move	$4,$2
	.set	macro
	.set	reorder

	.loc 1 724 0
	sll	$3,$2,3
	addu	$3,$19,$3
	lw	$5,4($3)
	.set	noreorder
	.set	nomacro
	jal	filter_table_regist
	move	$4,$2
	.set	macro
	.set	reorder

	.loc 1 725 0
	lw	$2,16($sp)
	.set	noreorder
	.set	nomacro
	bne	$2,$0,$L422
	move	$5,$23
	.set	macro
	.set	reorder

	j	$L360
$L358:
	.loc 1 727 0
	lw	$20,16($sp)
	.set	noreorder
	.set	nomacro
	jal	strlen
	addiu	$4,$17,%lo($LC20)
	.set	macro
	.set	reorder

	move	$6,$2
	move	$4,$20
	.set	noreorder
	.set	nomacro
	jal	memcmp
	addiu	$5,$17,%lo($LC20)
	.set	macro
	.set	reorder

	.set	noreorder
	.set	nomacro
	bne	$2,$0,$L361
	lw	$20,16($sp)
	.set	macro
	.set	reorder

	.loc 1 730 0
	.set	noreorder
	.set	nomacro
	jal	filter_table_flush
	move	$4,$0
	.set	macro
	.set	reorder

	j	$L360
$L361:
	.loc 1 732 0
	lui	$17,%hi($LC21)
	.set	noreorder
	.set	nomacro
	jal	strlen
	addiu	$4,$17,%lo($LC21)
	.set	macro
	.set	reorder

	move	$6,$2
	move	$4,$20
	.set	noreorder
	.set	nomacro
	jal	memcmp
	addiu	$5,$17,%lo($LC21)
	.set	macro
	.set	reorder

	.set	noreorder
	.set	nomacro
	bne	$2,$0,$L362
	li	$3,1			# 0x1
	.set	macro
	.set	reorder

	.loc 1 734 0
	lui	$2,%hi(log_enable)
$LBE938 = .
$LBE949 = .
	.set	noreorder
	.set	nomacro
	j	$L360
	sw	$3,%lo(log_enable)($2)
	.set	macro
	.set	reorder

$L362:
$LBB950 = .
$LBB939 = .
	.loc 1 736 0
	lw	$20,16($sp)
	lui	$17,%hi($LC22)
	.set	noreorder
	.set	nomacro
	jal	strlen
	addiu	$4,$17,%lo($LC22)
	.set	macro
	.set	reorder

	move	$6,$2
	move	$4,$20
	.set	noreorder
	.set	nomacro
	jal	memcmp
	addiu	$5,$17,%lo($LC22)
	.set	macro
	.set	reorder

	.set	noreorder
	.set	nomacro
	bne	$2,$0,$L363
	li	$3,1			# 0x1
	.set	macro
	.set	reorder

	.loc 1 738 0
	lui	$2,%hi(url_filter_mode)
$LBE939 = .
$LBE950 = .
	.set	noreorder
	.set	nomacro
	j	$L360
	sw	$3,%lo(url_filter_mode)($2)
	.set	macro
	.set	reorder

$L363:
$LBB951 = .
$LBB940 = .
	.loc 1 740 0
	lw	$20,16($sp)
	lui	$17,%hi($LC23)
	.set	noreorder
	.set	nomacro
	jal	strlen
	addiu	$4,$17,%lo($LC23)
	.set	macro
	.set	reorder

	move	$6,$2
	move	$4,$20
	.set	noreorder
	.set	nomacro
	jal	memcmp
	addiu	$5,$17,%lo($LC23)
	.set	macro
	.set	reorder

	.set	noreorder
	.set	nomacro
	bne	$2,$0,$L364
	lui	$2,%hi(url_filter_mode)
	.set	macro
	.set	reorder

$LBE940 = .
$LBE951 = .
	.loc 1 742 0
	.set	noreorder
	.set	nomacro
	j	$L360
	sw	$0,%lo(url_filter_mode)($2)
	.set	macro
	.set	reorder

$L364:
$LBB952 = .
$LBB941 = .
	.loc 1 754 0
	lw	$20,16($sp)
	lui	$17,%hi($LC24)
	.set	noreorder
	.set	nomacro
	jal	strlen
	addiu	$4,$17,%lo($LC24)
	.set	macro
	.set	reorder

	move	$6,$2
	move	$4,$20
	.set	noreorder
	.set	nomacro
	jal	memcmp
	addiu	$5,$17,%lo($LC24)
	.set	macro
	.set	reorder

	.set	noreorder
	.set	nomacro
	bne	$2,$0,$L360
	lw	$20,16($sp)
	.set	macro
	.set	reorder

	.loc 1 758 0
	.set	noreorder
	.set	nomacro
	jal	strlen
	addiu	$4,$17,%lo($LC24)
	.set	macro
	.set	reorder

	addu	$2,$20,$2
	sw	$2,16($sp)
	.loc 1 759 0
	lb	$2,0($2)
	.set	noreorder
	.set	nomacro
	beq	$2,$0,$L355
	addiu	$17,$sp,16
	.set	macro
	.set	reorder

	.loc 1 762 0
	lui	$5,%hi($LC25)
	move	$4,$17
	.set	noreorder
	.set	nomacro
	jal	strsep
	addiu	$5,$5,%lo($LC25)
	.set	macro
	.set	reorder

	.loc 1 763 0
	lw	$3,16($sp)
	beq	$3,$0,$L355
	.loc 1 764 0
	.set	noreorder
	.set	nomacro
	jal	str2hexnum
	move	$4,$2
	.set	macro
	.set	reorder

	li	$3,-1			# 0xffffffffffffffff
	.set	noreorder
	.set	nomacro
	beq	$2,$3,$L355
	lui	$23,%hi($LC19)
	.set	macro
	.set	reorder

	.loc 1 768 0
	move	$4,$17
	.set	noreorder
	.set	nomacro
	jal	strsep
	addiu	$5,$23,%lo($LC19)
	.set	macro
	.set	reorder

	.loc 1 769 0
	lw	$3,16($sp)
	beq	$3,$0,$L355
	.loc 1 770 0
	.set	noreorder
	.set	nomacro
	jal	str2hexnum
	move	$4,$2
	.set	macro
	.set	reorder

	li	$20,-1			# 0xffffffffffffffff
	.set	noreorder
	.set	nomacro
	beq	$2,$20,$L355
	move	$4,$17
	.set	macro
	.set	reorder

	.loc 1 775 0
	.set	noreorder
	.set	nomacro
	jal	strsep
	addiu	$5,$23,%lo($LC19)
	.set	macro
	.set	reorder

	.loc 1 776 0
	lw	$3,16($sp)
	beq	$3,$0,$L355
	.loc 1 777 0
	.set	noreorder
	.set	nomacro
	jal	str2hexnum
	move	$4,$2
	.set	macro
	.set	reorder

	.set	noreorder
	.set	nomacro
	beq	$2,$20,$L355
	sw	$2,24($sp)
	.set	macro
	.set	reorder

	.loc 1 782 0
	lui	$22,%hi($LC26)
	addiu	$22,$22,%lo($LC26)
	.loc 1 785 0
	li	$fp,59			# 0x3b
	.loc 1 793 0
	addiu	$23,$23,%lo($LC19)
	.loc 1 782 0
	move	$4,$17
$L424:
	.set	noreorder
	.set	nomacro
	jal	strsep
	move	$5,$22
	.set	macro
	.set	reorder

	sw	$2,20($sp)
$LBE941 = .
$LBE952 = .
	.set	noreorder
	.set	nomacro
	j	$L366
	move	$4,$2
	.set	macro
	.set	reorder

$L369:
$LBB953 = .
$LBB942 = .
	.loc 1 785 0
	.set	noreorder
	.set	nomacro
	jal	strlen
	move	$4,$20
	.set	macro
	.set	reorder

	addu	$2,$20,$2
	sb	$fp,0($2)
	.loc 1 786 0
	move	$4,$17
	.set	noreorder
	.set	nomacro
	jal	strsep
	move	$5,$22
	.set	macro
	.set	reorder

	.loc 1 787 0
	lw	$2,16($sp)
	.set	noreorder
	.set	nomacro
	bne	$2,$0,$L367
	lw	$4,20($sp)
	.set	macro
	.set	reorder

	.loc 1 793 0
	addiu	$4,$sp,20
$L421:
	.set	noreorder
	.set	nomacro
	jal	strsep
	move	$5,$23
	.set	macro
	.set	reorder

	move	$20,$2
	.loc 1 794 0
	lw	$2,20($sp)
	.set	noreorder
	.set	nomacro
	bne	$2,$0,$L423
	move	$4,$20
	.set	macro
	.set	reorder

	j	$L355
$L367:
$L366:
	.loc 1 783 0
	.set	noreorder
	.set	nomacro
	jal	check_esc_end
	li	$5,92			# 0x5c
	.set	macro
	.set	reorder

	.set	noreorder
	.set	nomacro
	bne	$2,$0,$L369
	lw	$20,20($sp)
	.set	macro
	.set	reorder

$LBE942 = .
$LBE953 = .
	.loc 1 793 0
	.set	noreorder
	.set	nomacro
	j	$L421
	addiu	$4,$sp,20
	.set	macro
	.set	reorder

$L372:
$LBB954 = .
$LBB943 = .
	.loc 1 798 0
	jal	strlen
	addu	$2,$20,$2
	li	$3,32			# 0x20
	sb	$3,0($2)
	.loc 1 800 0
	addiu	$4,$sp,20
	.set	noreorder
	.set	nomacro
	jal	strsep
	move	$5,$23
	.set	macro
	.set	reorder

	.loc 1 795 0
	move	$4,$20
$L423:
	.set	noreorder
	.set	nomacro
	jal	check_esc_end
	li	$5,92			# 0x5c
	.set	macro
	.set	reorder

	.set	noreorder
	.set	nomacro
	bne	$2,$0,$L372
	move	$4,$20
	.set	macro
	.set	reorder

	move	$5,$20
	move	$6,$0
$LBE943 = .
$LBE954 = .
	.loc 1 808 0
	.set	noreorder
	.set	nomacro
	j	$L373
	li	$7,92			# 0x5c
	.set	macro
	.set	reorder

$L377:
$LBB955 = .
$LBB944 = .
	.set	noreorder
	.set	nomacro
	bne	$2,$7,$L374
	move	$2,$5
	.set	macro
	.set	reorder

$LBE944 = .
$LBE955 = .
	.set	noreorder
	.set	nomacro
	j	$L375
	move	$4,$6
	.set	macro
	.set	reorder

$L376:
$LBB956 = .
$LBB945 = .
	.loc 1 811 0
	sb	$3,0($2)
	.loc 1 810 0
	addiu	$4,$4,1
	addiu	$2,$2,1
$L375:
	lb	$3,1($2)
	bne	$3,$0,$L376
	.loc 1 812 0
	addu	$4,$20,$4
	sb	$0,0($4)
$L374:
	.loc 1 806 0
	addiu	$6,$6,1
	addiu	$5,$5,1
$L373:
	lb	$2,0($5)
	bne	$2,$0,$L377
$LBB925 = .
$LBB926 = .
$LBB927 = .
$LBB928 = .
	.loc 3 142 0
	lw	$4,28($19)
	.set	noreorder
	.set	nomacro
	jal	kmem_cache_alloc
	li	$5,208			# 0xd0
	.set	macro
	.set	reorder

$LBE928 = .
$LBE927 = .
$LBE926 = .
$LBE925 = .
	.loc 1 830 0
	.set	noreorder
	.set	nomacro
	beq	$2,$0,$L360
	move	$21,$2
	.set	macro
	.set	reorder

	.loc 1 837 0
	addiu	$2,$2,8
	.loc 1 839 0
	lui	$4,%hi(filter_rule_num)
	lw	$3,%lo(filter_rule_num)($4)
$LBB929 = .
$LBB930 = .
	.loc 9 26 0
	sw	$2,8($21)
	.loc 9 27 0
	sw	$2,12($21)
$LBE930 = .
$LBE929 = .
	.loc 1 855 0
	lw	$2,24($sp)
$LBB931 = .
$LBB932 = .
	.loc 9 26 0
	sw	$21,0($21)
	.loc 9 27 0
	sw	$21,4($21)
$LBE932 = .
$LBE931 = .
	.loc 1 838 0
	sw	$0,24($21)
	.loc 1 839 0
	sw	$3,20($21)
	.loc 1 855 0
	sw	$2,16($21)
	.loc 1 857 0
	.set	noreorder
	.set	nomacro
	jal	strlen
	move	$4,$20
	.set	macro
	.set	reorder

	sltu	$2,$2,41
	.set	noreorder
	.set	nomacro
	beq	$2,$0,$L379
	addiu	$3,$21,28
	.set	macro
	.set	reorder

	.set	noreorder
	.set	nomacro
	jal	strlen
	move	$4,$20
	.set	macro
	.set	reorder

$LBB933 = .
$LBB934 = .
	.loc 8 49 0
	.set	noreorder
	.set	nomacro
	beq	$2,$0,$L380
	addiu	$3,$21,28
	.set	macro
	.set	reorder

$LBE934 = .
$LBE933 = .
	.loc 1 858 0
	move	$4,$2
$L382:
$LBB936 = .
$LBB935 = .
	.loc 8 52 0
#APP
 # 52 "/home/extra_home/marklee/rtk_OpenWRT_BB/BB_v1407_branch_v25/v25_relase_source_test_0830/rtk_OpenWRT_v2.5_Branch_20160603/build_dir/target-mips_24kec_uClibc-0.9.33.2/linux-rtkmips_rtl8198c/linux-3.10.49/arch/mips/include/asm/string.h" 1
	.set	noreorder
	.set	noat
1:	lbu	$1,($20)
	subu	$4,1
	sb	$1,($3)
	beqz	$1,2f
	addiu	$3,1
	bnez	$4,1b
	addiu	$20,1
2:
	.set	at
	.set	reorder
 # 0 "" 2
#NO_APP
$L380:
$LBE935 = .
$LBE936 = .
	.loc 1 859 0
	addu	$2,$21,$2
	.loc 1 861 0
	li	$4,3			# 0x3
	.loc 1 859 0
	sb	$0,28($2)
	.loc 1 861 0
	.set	noreorder
	.set	nomacro
	jal	filter_item_regist
	move	$5,$21
	.set	macro
	.set	reorder

	.loc 1 862 0
	lui	$4,%hi(filter_rule_num)
	lw	$3,%lo(filter_rule_num)($4)
	.loc 1 863 0
	lw	$2,16($sp)
	.loc 1 862 0
	addiu	$3,$3,1
	.loc 1 863 0
	.set	noreorder
	.set	nomacro
	beq	$2,$0,$L360
	sw	$3,%lo(filter_rule_num)($4)
	.set	macro
	.set	reorder

	lb	$2,0($2)
	.set	noreorder
	.set	nomacro
	bne	$2,$0,$L424
	move	$4,$17
	.set	macro
	.set	reorder

$L360:
	.loc 1 1036 0
	.set	noreorder
	.set	nomacro
	jal	kfree
	move	$4,$16
	.set	macro
	.set	reorder

$LBE945 = .
$LBE956 = .
	.loc 1 709 0
	.set	noreorder
	.set	nomacro
	j	$L419
	move	$2,$18
	.set	macro
	.set	reorder

$L355:
$LBB957 = .
$LBB946 = .
	.loc 1 1040 0
	.set	noreorder
	.set	nomacro
	jal	kfree
	move	$4,$16
	.set	macro
	.set	reorder

$LBE946 = .
$LBE957 = .
	.loc 1 1041 0
	.set	noreorder
	.set	nomacro
	j	$L419
	li	$2,-14			# 0xfffffffffffffff2
	.set	macro
	.set	reorder

$L384:
	.loc 1 704 0
	.set	noreorder
	.set	nomacro
	j	$L419
	li	$2,-14			# 0xfffffffffffffff2
	.set	macro
	.set	reorder

$L379:
$LBB958 = .
$LBB947 = .
	.loc 1 858 0
	li	$4,39			# 0x27
$LBE947 = .
$LBE958 = .
	.loc 1 857 0
	.set	noreorder
	.set	nomacro
	j	$L382
	li	$2,39			# 0x27
	.set	macro
	.set	reorder

$L419:
	.loc 1 1175 0
	lw	$31,68($sp)
	lw	$fp,64($sp)
	lw	$23,60($sp)
	lw	$22,56($sp)
	lw	$21,52($sp)
	lw	$20,48($sp)
	lw	$19,44($sp)
	lw	$18,40($sp)
	lw	$17,36($sp)
	lw	$16,32($sp)
	.set	noreorder
	.set	nomacro
	j	$31
	addiu	$sp,$sp,72
	.set	macro
	.set	reorder

	.cfi_def_cfa_offset 0
	.cfi_restore 16
	.cfi_restore 17
	.cfi_restore 18
	.cfi_restore 19
	.cfi_restore 20
	.cfi_restore 21
	.cfi_restore 22
	.cfi_restore 23
	.cfi_restore 30
	.cfi_restore 31
	.end	filter_table_single_write
	.cfi_endproc
$LFE3319:
	.size	filter_table_single_write, .-filter_table_single_write
	.align	2
	.globl	scan_table
$LFB3320 = .
	.loc 1 1329 0
	.cfi_startproc
	.set	nomips16
	.ent	scan_table
	.type	scan_table, @function
scan_table:
	.frame	$sp,48,$31		# vars= 0, regs= 8/0, args= 16, gp= 0
	.mask	0x807f0000,-4
	.fmask	0x00000000,0
	.set	noreorder
	.set	nomacro
	addiu	$sp,$sp,-48
	.cfi_def_cfa_offset 48
	sw	$19,28($sp)
	.cfi_offset 19, -20
	.loc 1 1335 0
	lui	$19,%hi(url_filter_flag)
	.loc 1 1329 0
	sw	$17,20($sp)
	sw	$31,44($sp)
	sw	$22,40($sp)
	sw	$21,36($sp)
	sw	$20,32($sp)
	sw	$18,24($sp)
	sw	$16,16($sp)
	.cfi_offset 17, -28
	.cfi_offset 31, -4
	.cfi_offset 22, -8
	.cfi_offset 21, -12
	.cfi_offset 20, -16
	.cfi_offset 18, -24
	.cfi_offset 16, -32
	.loc 1 1329 0
	move	$17,$6
	.loc 1 1337 0
	beq	$6,$0,$L472
	sw	$0,%lo(url_filter_flag)($19)

	.loc 1 1337 0 is_stmt 0 discriminator 2
	lw	$2,28($6)
	beq	$2,$0,$L427
	li	$2,-1			# 0xffffffffffffffff

	.loc 1 1338 0 is_stmt 1
	lw	$2,24($6)
	sltu	$2,$2,2
	beq	$2,$0,$L429
	addiu	$18,$6,8

$L431:
	.loc 1 1430 0
	lui	$2,%hi(url_filter_mode)
	lw	$2,%lo(url_filter_mode)($2)
	bne	$2,$0,$L430
	nop

$L472:
	.loc 1 1433 0
	j	$L427
	li	$2,-1			# 0xffffffffffffffff

$L429:
$LBB959 = .
$LBB960 = .
	.loc 9 188 0 discriminator 1
	lw	$16,8($6)
	move	$22,$4
	move	$21,$5
$LBE960 = .
$LBE959 = .
	.loc 1 1338 0 discriminator 1
	beq	$18,$16,$L431
	move	$20,$7

$L440:
	.loc 1 1342 0
	lw	$2,16($16)
	andi	$3,$2,0x1
	bne	$3,$0,$L473
	andi	$3,$2,0x200

	.loc 1 1342 0 is_stmt 0 discriminator 1
	lw	$3,20($16)
	bne	$21,$3,$L433
	andi	$3,$2,0x200

$L473:
	.loc 1 1344 0 is_stmt 1
	beq	$3,$0,$L434
	nop

	.loc 1 1348 0
	andi	$2,$2,0x2
	beq	$2,$0,$L433
	lw	$6,0($20)

	.loc 1 1350 0
	beq	$6,$0,$L427
	li	$2,-1			# 0xffffffffffffffff

	.loc 1 1354 0
	lw	$5,20($16)
	move	$4,$22
	jal	scan_table
	move	$7,$6

	.loc 1 1358 0
	beq	$2,$0,$L433
	nop

$L430:
	.loc 1 1361 0
	j	$L427
	li	$2,1			# 0x1

$L434:
	.loc 1 1364 0
	andi	$3,$2,0x100
	bne	$3,$0,$L474
	andi	$3,$2,0x2

	.loc 1 1364 0 is_stmt 0 discriminator 1
	lw	$2,28($17)
	move	$4,$22
	jalr	$2
	addiu	$5,$16,28

	beq	$2,$0,$L433
	nop

	lw	$2,16($16)
	.loc 1 1366 0 is_stmt 1
	andi	$3,$2,0x2
$L474:
	bne	$3,$0,$L436
	andi	$3,$2,0x1

	.loc 1 1368 0
	beq	$3,$0,$L430
	nop

	j	$L471
	xori	$2,$2,0x8

$L436:
$LBB961 = .
	.loc 1 1382 0
	lw	$6,0($20)
$LBE961 = .
	.loc 1 1385 0
	beq	$6,$0,$L427
	li	$2,-1			# 0xffffffffffffffff

	.loc 1 1390 0
	lw	$5,20($16)
	move	$4,$22
	jal	scan_table
	move	$7,$6

	.loc 1 1393 0
	beq	$2,$0,$L433
	nop

	.loc 1 1395 0
	lw	$2,16($16)
	andi	$3,$2,0x1
	beq	$3,$0,$L437
	lui	$3,%hi(url_filter_mode)

	.loc 1 1397 0
	lw	$3,%lo(url_filter_mode)($3)
	bne	$3,$0,$L471
	nop

	.loc 1 1401 0
	xori	$2,$2,0x8
$L471:
	j	$L427
	ext	$2,$2,3,1

$L437:
	.loc 1 1406 0
	lui	$2,%hi(url_filter_mode)
	lw	$2,%lo(url_filter_mode)($2)
	j	$L427
	sltu	$2,$2,1

$L433:
	.loc 1 1339 0
	lw	$2,0($16)
	beq	$18,$2,$L439
	nop

	j	$L440
	move	$16,$2

$L439:
	.loc 1 1418 0
	beq	$16,$0,$L431
	lw	$2,%lo(url_filter_flag)($19)

	.loc 1 1437 0
	bne	$2,$0,$L427
	li	$2,1			# 0x1

	.loc 1 1440 0
	lw	$3,16($16)
	andi	$2,$3,0x1
	.loc 1 1443 0
	ext	$3,$3,3,1
	movz	$3,$0,$2
	move	$2,$3
$L427:
	.loc 1 1450 0
	lw	$31,44($sp)
	lw	$22,40($sp)
	lw	$21,36($sp)
	lw	$20,32($sp)
	lw	$19,28($sp)
	lw	$18,24($sp)
	lw	$17,20($sp)
	lw	$16,16($sp)
	j	$31
	addiu	$sp,$sp,48

	.cfi_def_cfa_offset 0
	.cfi_restore 16
	.cfi_restore 17
	.cfi_restore 18
	.cfi_restore 19
	.cfi_restore 20
	.cfi_restore 21
	.cfi_restore 22
	.cfi_restore 31
	.set	macro
	.set	reorder
	.end	scan_table
	.cfi_endproc
$LFE3320:
	.size	scan_table, .-scan_table
	.section	.rodata.str1.4
	.align	2
$LC27:
	.ascii	"Unkown Type [Blocked]\012\000"
	.text
	.align	2
	.globl	log_fastFilter
$LFB3321 = .
	.loc 1 1461 0
	.cfi_startproc
	.set	nomips16
	.ent	log_fastFilter
	.type	log_fastFilter, @function
log_fastFilter:
	.frame	$sp,40,$31		# vars= 8, regs= 3/0, args= 16, gp= 0
	.mask	0x80030000,-4
	.fmask	0x00000000,0
	.set	noreorder
	.set	nomacro
	addiu	$sp,$sp,-40
	.cfi_def_cfa_offset 40
	sw	$17,32($sp)
	sw	$16,28($sp)
	.cfi_offset 17, -8
	.cfi_offset 16, -12
	move	$17,$4
	move	$16,$5
	.loc 1 1467 0
	addiu	$4,$sp,16
	.loc 1 1461 0
	sw	$31,36($sp)
	.cfi_offset 31, -4
	.loc 1 1467 0
	jal	do_gettimeofday
	addiu	$17,$17,-1

	.loc 1 1473 0
	jal	rtl_ip_hdr
	move	$4,$16

	.loc 1 1475 0
	sltu	$17,$17,4
	.loc 1 1474 0
	jal	rtl_eth_hdr
	move	$4,$16

	.loc 1 1475 0
	bne	$17,$0,$L479
	lw	$31,36($sp)

	.loc 1 1543 0
	lui	$4,%hi($LC27)
	jal	printk
	addiu	$4,$4,%lo($LC27)

	.loc 1 1547 0
	lw	$31,36($sp)
$L479:
	lw	$17,32($sp)
	lw	$16,28($sp)
	move	$2,$0
	j	$31
	addiu	$sp,$sp,40

	.cfi_def_cfa_offset 0
	.cfi_restore 16
	.cfi_restore 17
	.cfi_restore 31
	.set	macro
	.set	reorder
	.end	log_fastFilter
	.cfi_endproc
$LFE3321:
	.size	log_fastFilter, .-log_fastFilter
	.align	2
	.globl	do_filter
$LFB3322 = .
	.loc 1 1549 0
	.cfi_startproc
	.set	nomips16
	.ent	do_filter
	.type	do_filter, @function
do_filter:
	.frame	$sp,40,$31		# vars= 0, regs= 6/0, args= 16, gp= 0
	.mask	0x801f0000,-4
	.fmask	0x00000000,0
	.set	noreorder
	.set	nomacro
	addiu	$sp,$sp,-40
	.cfi_def_cfa_offset 40
	sw	$18,24($sp)
	.cfi_offset 18, -16
	.loc 1 1555 0
	lui	$18,%hi(table_list_head)
	.loc 1 1549 0
	sw	$20,32($sp)
	sw	$19,28($sp)
	sw	$17,20($sp)
	sw	$16,16($sp)
	sw	$31,36($sp)
	.cfi_offset 20, -8
	.cfi_offset 19, -12
	.cfi_offset 17, -20
	.cfi_offset 16, -24
	.cfi_offset 31, -4
	.loc 1 1555 0
	lw	$16,%lo(table_list_head)($18)
	.loc 1 1549 0
	move	$17,$4
	addiu	$18,$18,%lo(table_list_head)
	.loc 1 1559 0
	li	$19,-1			# 0xffffffffffffffff
	.loc 1 1555 0
	j	$L481
	li	$20,1			# 0x1

$L485:
	.loc 1 1558 0
	jal	scan_table
	nop

	.loc 1 1559 0
	bne	$2,$19,$L482
	nop

	.loc 1 1561 0
	j	$L483
	move	$18,$0

$L482:
	.loc 1 1563 0
	bne	$2,$20,$L484
	lui	$2,%hi(log_enable)

	.loc 1 1565 0
	lw	$2,%lo(log_enable)($2)
	beq	$2,$0,$L483
	li	$18,1			# 0x1

	.loc 1 1566 0
	lw	$4,16($16)
	jal	log_fastFilter
	move	$5,$17

	.loc 1 1571 0
	j	$L490
	lw	$31,36($sp)

$L484:
	.loc 1 1555 0
	lw	$16,0($16)
$L481:
	.loc 1 1558 0 discriminator 1
	move	$6,$16
	move	$7,$16
	move	$4,$17
	.loc 1 1555 0 discriminator 1
	bne	$16,$18,$L485
	move	$5,$0

	j	$L483
	move	$18,$0

$L483:
	.loc 1 1571 0
	lw	$31,36($sp)
$L490:
	move	$2,$18
	lw	$20,32($sp)
	lw	$19,28($sp)
	lw	$18,24($sp)
	lw	$17,20($sp)
	lw	$16,16($sp)
	j	$31
	addiu	$sp,$sp,40

	.cfi_def_cfa_offset 0
	.cfi_restore 16
	.cfi_restore 17
	.cfi_restore 18
	.cfi_restore 19
	.cfi_restore 20
	.cfi_restore 31
	.set	macro
	.set	reorder
	.end	do_filter
	.cfi_endproc
$LFE3322:
	.size	do_filter, .-do_filter
	.align	2
	.globl	FilterWeb_v2
$LFB3323 = .
	.loc 1 1576 0
	.cfi_startproc
	.set	nomips16
	.ent	FilterWeb_v2
	.type	FilterWeb_v2, @function
FilterWeb_v2:
	.frame	$sp,24,$31		# vars= 0, regs= 2/0, args= 16, gp= 0
	.mask	0x80010000,-4
	.fmask	0x00000000,0
	.set	noreorder
	.set	nomacro
	addiu	$sp,$sp,-24
	.cfi_def_cfa_offset 24
	sw	$16,16($sp)
	sw	$31,20($sp)
	.cfi_offset 16, -8
	.cfi_offset 31, -4
	.loc 1 1580 0
	jal	rtl_ip_hdr
	move	$16,$4

	.loc 1 1582 0
	jal	need_filter
	move	$4,$16

	beq	$2,$0,$L492
	lw	$31,20($sp)

	.loc 1 1584 0
	move	$4,$16
	.loc 1 1588 0
	lw	$16,16($sp)
	.cfi_remember_state
	.cfi_restore 16
	.cfi_restore 31
	.loc 1 1584 0
	j	do_filter
	addiu	$sp,$sp,24

	.cfi_def_cfa_offset 0
$L492:
	.cfi_restore_state
	.loc 1 1588 0
	lw	$16,16($sp)
	j	$31
	addiu	$sp,$sp,24

	.cfi_def_cfa_offset 0
	.cfi_restore 16
	.cfi_restore 31
	.set	macro
	.set	reorder
	.end	FilterWeb_v2
	.cfi_endproc
$LFE3323:
	.size	FilterWeb_v2, .-FilterWeb_v2
	.section	.rodata.str1.4
	.align	2
$LC28:
	.ascii	"filter_table\000"
	.text
	.align	2
	.globl	filter_table_init
$LFB3324 = .
	.loc 1 1630 0
	.cfi_startproc
	.set	nomips16
	.ent	filter_table_init
	.type	filter_table_init, @function
filter_table_init:
	.frame	$sp,32,$31		# vars= 0, regs= 1/0, args= 24, gp= 0
	.mask	0x80000000,-4
	.fmask	0x00000000,0
	.set	noreorder
	.set	nomacro
	addiu	$sp,$sp,-32
	.cfi_def_cfa_offset 32
	sw	$31,28($sp)
	.cfi_offset 31, -4
	.loc 1 1631 0
	jal	filter_table_head_init
	nop

	.loc 1 1633 0
	lui	$4,%hi($LC28)
	lui	$6,%hi(proc_root)
	lui	$7,%hi(filter_table_proc_fops)
	sw	$0,16($sp)
	addiu	$4,$4,%lo($LC28)
	move	$5,$0
	addiu	$6,$6,%lo(proc_root)
	jal	proc_create_data
	addiu	$7,$7,%lo(filter_table_proc_fops)

	.loc 1 1646 0
	lw	$31,28($sp)
	.loc 1 1633 0
	lui	$3,%hi(res12)
	sw	$2,%lo(res12)($3)
	.loc 1 1646 0
	move	$2,$0
	j	$31
	addiu	$sp,$sp,32

	.cfi_def_cfa_offset 0
	.cfi_restore 31
	.set	macro
	.set	reorder
	.end	filter_table_init
	.cfi_endproc
$LFE3324:
	.size	filter_table_init, .-filter_table_init
	.align	2
	.globl	filter_init_fastpath
$LFB3325 = .
	.loc 1 1651 0
	.cfi_startproc
	.set	nomips16
	.ent	filter_init_fastpath
	.type	filter_init_fastpath, @function
filter_init_fastpath:
	.frame	$sp,24,$31		# vars= 0, regs= 1/0, args= 16, gp= 0
	.mask	0x80000000,-4
	.fmask	0x00000000,0
	.set	noreorder
	.set	nomacro
	addiu	$sp,$sp,-24
	.cfi_def_cfa_offset 24
	.loc 1 1652 0
	li	$3,1			# 0x1
	lui	$2,%hi(filter_rule_num)
	sw	$3,%lo(filter_rule_num)($2)
	.loc 1 1651 0
	sw	$31,20($sp)
	.cfi_offset 31, -4
	.loc 1 1653 0
	jal	filter_table_init
	nop

	.loc 1 1655 0
	lw	$31,20($sp)
	move	$2,$0
	j	$31
	addiu	$sp,$sp,24

	.cfi_def_cfa_offset 0
	.cfi_restore 31
	.set	macro
	.set	reorder
	.end	filter_init_fastpath
	.cfi_endproc
$LFE3325:
	.size	filter_init_fastpath, .-filter_init_fastpath
	.align	2
	.globl	filter_exit_fastpath
$LFB3326 = .
	.loc 1 1658 0
	.cfi_startproc
	.set	nomips16
	.ent	filter_exit_fastpath
	.type	filter_exit_fastpath, @function
filter_exit_fastpath:
	.frame	$sp,24,$31		# vars= 0, regs= 2/0, args= 16, gp= 0
	.mask	0x80010000,-4
	.fmask	0x00000000,0
	.set	noreorder
	.set	nomacro
	addiu	$sp,$sp,-24
	.cfi_def_cfa_offset 24
	sw	$16,16($sp)
	.cfi_offset 16, -8
	.loc 1 1659 0
	lui	$16,%hi(res12)
	lw	$2,%lo(res12)($16)
	.loc 1 1659 0
	beq	$2,$0,$L499
	sw	$31,20($sp)

	.cfi_offset 31, -4
	.loc 1 1661 0
	lui	$4,%hi($LC28)
	lui	$5,%hi(proc_root)
	addiu	$4,$4,%lo($LC28)
	jal	remove_proc_entry
	addiu	$5,$5,%lo(proc_root)

	.loc 1 1665 0
	sw	$0,%lo(res12)($16)
$L499:
	.loc 1 1668 0
	lw	$31,20($sp)
	lw	$16,16($sp)
	move	$2,$0
	j	$31
	addiu	$sp,$sp,24

	.cfi_def_cfa_offset 0
	.cfi_restore 16
	.cfi_restore 31
	.set	macro
	.set	reorder
	.end	filter_exit_fastpath
	.cfi_endproc
$LFE3326:
	.size	filter_exit_fastpath, .-filter_exit_fastpath
	.align	2
	.globl	strtoint
$LFB3331 = .
	.loc 2 1227 0
	.cfi_startproc
	.set	nomips16
	.ent	strtoint
	.type	strtoint, @function
strtoint:
	.frame	$sp,0,$31		# vars= 0, regs= 0/0, args= 0, gp= 0
	.mask	0x00000000,0
	.fmask	0x00000000,0
	.set	noreorder
	.set	nomacro
	.loc 2 1230 0
	j	$L505
	move	$2,$0

$L507:
	.loc 2 1233 0
	beq	$8,$0,$L510
	addiu	$4,$4,1

	.loc 2 1230 0
	addu	$2,$6,$5
$L505:
	.loc 2 1230 0 is_stmt 0 discriminator 1
	lb	$3,0($4)
	sll	$7,$2,1
	sll	$6,$2,3
	.loc 2 1233 0 is_stmt 1 discriminator 1
	addiu	$5,$3,-48
	sltu	$8,$5,10
	.loc 2 1230 0 discriminator 1
	bne	$3,$0,$L507
	addu	$6,$7,$6

$L510:
	.loc 2 1240 0
	j	$31
	nop

	.set	macro
	.set	reorder
	.end	strtoint
	.cfi_endproc
$LFE3331:
	.size	strtoint, .-strtoint
	.align	2
	.globl	clear_attack_address
$LFB3362 = .
	.loc 2 3290 0
	.cfi_startproc
	.set	nomips16
	.ent	clear_attack_address
	.type	clear_attack_address, @function
clear_attack_address:
	.frame	$sp,0,$31		# vars= 0, regs= 0/0, args= 0, gp= 0
	.mask	0x00000000,0
	.fmask	0x00000000,0
	.set	noreorder
	.set	nomacro
	lui	$7,%hi(attack_saddr)
	lui	$6,%hi(attack_daddr)
	.loc 2 3290 0
	move	$2,$0
	addiu	$7,$7,%lo(attack_saddr)
	addiu	$6,$6,%lo(attack_daddr)
	.loc 2 3292 0
	li	$5,108			# 0x6c
$L513:
	addu	$4,$7,$2
	addu	$3,$6,$2
	addiu	$2,$2,4
	.loc 2 3294 0 discriminator 2
	sw	$0,0($4)
	.loc 2 3292 0 discriminator 2
	bne	$2,$5,$L513
	sw	$0,0($3)

	.loc 2 3298 0
	j	$31
	nop

	.set	macro
	.set	reorder
	.end	clear_attack_address
	.cfi_endproc
$LFE3362:
	.size	clear_attack_address, .-clear_attack_address
	.align	2
	.globl	strtok
$LFB3365 = .
	.loc 2 3444 0
	.cfi_startproc
	.set	nomips16
	.ent	strtok
	.type	strtok, @function
strtok:
	.frame	$sp,32,$31		# vars= 0, regs= 4/0, args= 16, gp= 0
	.mask	0x80070000,-4
	.fmask	0x00000000,0
	.set	noreorder
	.set	nomacro
	addiu	$sp,$sp,-32
	.cfi_def_cfa_offset 32
	sw	$18,24($sp)
	sw	$17,20($sp)
	sw	$16,16($sp)
	sw	$31,28($sp)
	.cfi_offset 18, -8
	.cfi_offset 17, -12
	.cfi_offset 16, -16
	.cfi_offset 31, -4
	.loc 2 3444 0
	move	$16,$4
	move	$17,$5
	.loc 2 3447 0
	bne	$4,$0,$L515
	lui	$18,%hi(___strtok)

	.loc 2 3447 0 is_stmt 0 discriminator 2
	lw	$16,%lo(___strtok)($18)
	.loc 2 3448 0 is_stmt 1 discriminator 2
	beq	$16,$0,$L519
	move	$2,$0

$L515:
	.loc 2 3451 0
	move	$4,$16
	jal	strspn
	move	$5,$17

	addu	$16,$16,$2
	.loc 2 3452 0
	lb	$2,0($16)
	bne	$2,$0,$L517
	move	$4,$16

	.loc 2 3454 0
	j	$L516
	sw	$0,%lo(___strtok)($18)

$L517:
	.loc 2 3456 0
	jal	strpbrk
	move	$5,$17

	.loc 2 3457 0
	beq	$2,$0,$L518
	nop

	.loc 2 3457 0 is_stmt 0 discriminator 1
	lb	$3,0($2)
	beq	$3,$0,$L518
	nop

	.loc 2 3458 0 is_stmt 1
	sb	$0,0($2)
	addiu	$2,$2,1
$L518:
	.loc 2 3459 0
	sw	$2,%lo(___strtok)($18)
	move	$2,$16
$L519:
$L516:
	.loc 2 3461 0
	lw	$31,28($sp)
	lw	$18,24($sp)
	lw	$17,20($sp)
	lw	$16,16($sp)
	j	$31
	addiu	$sp,$sp,32

	.cfi_def_cfa_offset 0
	.cfi_restore 16
	.cfi_restore 17
	.cfi_restore 18
	.cfi_restore 31
	.set	macro
	.set	reorder
	.end	strtok
	.cfi_endproc
$LFE3365:
	.size	strtok, .-strtok
	.align	2
$LFB3370 = .
	.loc 2 3606 0
	.cfi_startproc
	.set	nomips16
	.ent	dos_single_write
	.type	dos_single_write, @function
dos_single_write:
	.frame	$sp,136,$31		# vars= 80, regs= 10/0, args= 16, gp= 0
	.mask	0xc0ff0000,-4
	.fmask	0x00000000,0
	addiu	$sp,$sp,-136
	.cfi_def_cfa_offset 136
$LBB971 = .
$LBB972 = .
	.loc 2 3472 0
	sltu	$3,$6,2
$LBE972 = .
$LBE971 = .
	.loc 2 3606 0
	sw	$20,112($sp)
	sw	$31,132($sp)
	sw	$fp,128($sp)
	sw	$23,124($sp)
	sw	$22,120($sp)
	sw	$21,116($sp)
	sw	$19,108($sp)
	sw	$18,104($sp)
	sw	$17,100($sp)
	sw	$16,96($sp)
	.cfi_offset 20, -24
	.cfi_offset 31, -4
	.cfi_offset 30, -8
	.cfi_offset 23, -12
	.cfi_offset 22, -16
	.cfi_offset 21, -20
	.cfi_offset 19, -28
	.cfi_offset 18, -32
	.cfi_offset 17, -36
	.cfi_offset 16, -40
$LBB992 = .
$LBB979 = .
	.loc 2 3472 0
	.set	noreorder
	.set	nomacro
	beq	$3,$0,$L530
	move	$20,$6
	.set	macro
	.set	reorder

$L532:
$LBE979 = .
$LBE992 = .
	.loc 2 3473 0
	.set	noreorder
	.set	nomacro
	j	$L531
	li	$2,-14			# 0xfffffffffffffff2
	.set	macro
	.set	reorder

$L530:
$LBB993 = .
$LBB980 = .
	.loc 2 3475 0
	.set	noreorder
	.set	nomacro
	beq	$5,$0,$L532
	or	$3,$5,$6
	.set	macro
	.set	reorder

$LBB973 = .
$LBB974 = .
	addu	$2,$5,$6
	or	$2,$3,$2
	lw	$3,24($28)
	and	$2,$2,$3
$LBE974 = .
	.set	noreorder
	.set	nomacro
	bne	$2,$0,$L532
	lui	$3,%hi(dos_flag)
	.set	macro
	.set	reorder

$LBB975 = .
	addiu	$4,$3,%lo(dos_flag)
#APP
 # 3475 "/home/extra_home/marklee/rtk_OpenWRT_BB/BB_v1407_branch_v25/v25_relase_source_test_0830/rtk_OpenWRT_v2.5_Branch_20160603/build_dir/target-mips_24kec_uClibc-0.9.33.2/linux-rtkmips_rtl8198c/fastpath-0.1/filter.c" 1
	.set	noreorder
	.set	noat
	la	$1, __copy_user
	jalr	$1
	.set	at
	.set	noat
	addu	$1, $5, $6
	.set	at
	.set	reorder
 # 0 "" 2
#NO_APP
$LBE975 = .
$LBE973 = .
	.set	noreorder
	.set	nomacro
	bne	$6,$0,$L532
	addiu	$3,$3,%lo(dos_flag)
	.set	macro
	.set	reorder

$LBB976 = .
$LBB977 = .
	.loc 8 52 0
	addiu	$2,$sp,16
	li	$4,80			# 0x50
#APP
 # 52 "/home/extra_home/marklee/rtk_OpenWRT_BB/BB_v1407_branch_v25/v25_relase_source_test_0830/rtk_OpenWRT_v2.5_Branch_20160603/build_dir/target-mips_24kec_uClibc-0.9.33.2/linux-rtkmips_rtl8198c/linux-3.10.49/arch/mips/include/asm/string.h" 1
	.set	noreorder
	.set	noat
1:	lbu	$1,($3)
	subu	$4,1
	sb	$1,($2)
	beqz	$1,2f
	addiu	$2,1
	bnez	$4,1b
	addiu	$3,1
2:
	.set	at
	.set	reorder
 # 0 "" 2
#NO_APP
$LBE977 = .
$LBE976 = .
	.loc 2 3482 0
	lui	$19,%hi($L536)
	.loc 2 3469 0
	li	$16,1			# 0x1
	.loc 2 3468 0
	addiu	$4,$sp,16
	lui	$18,%hi($LC19)
	.loc 2 3482 0
	addiu	$19,$19,%lo($L536)
	.loc 2 3530 0
	lui	$fp,%hi(item_0)
	.loc 2 3526 0
	lui	$23,%hi(block_time)
	.loc 2 3523 0
	lui	$22,%hi(per_icmp_threshold)
$LBE980 = .
$LBE993 = .
	.loc 2 3520 0
	.set	noreorder
	.set	nomacro
	j	$L533
	lui	$21,%hi(per_udp_threshold)
	.set	macro
	.set	reorder

$L550:
$LBB994 = .
$LBB981 = .
	.loc 2 3481 0
	move	$4,$17
	move	$5,$0
	.set	noreorder
	.set	nomacro
	jal	simple_strtol
	move	$6,$0
	.set	macro
	.set	reorder

	.loc 2 3482 0
	sltu	$3,$16,15
	.set	noreorder
	.set	nomacro
	beq	$3,$0,$L534
	sll	$3,$16,2
	.set	macro
	.set	reorder

	addu	$3,$19,$3
	lw	$3,0($3)
	j	$3
	.rdata
	.align	2
	.align	2
$L536:
	.word	$L534
	.word	$L535
	.word	$L537
	.word	$L538
	.word	$L539
	.word	$L540
	.word	$L541
	.word	$L542
	.word	$L543
	.word	$L544
	.word	$L545
	.word	$L546
	.word	$L547
	.word	$L548
	.word	$L549
	.text
$L535:
	.loc 2 3485 0
	lui	$3,%hi(op_mode)
$LBE981 = .
$LBE994 = .
	.set	noreorder
	.set	nomacro
	j	$L534
	sb	$2,%lo(op_mode)($3)
	.set	macro
	.set	reorder

$L537:
$LBB995 = .
$LBB982 = .
	.loc 2 3488 0
	move	$4,$17
	move	$5,$0
	.set	noreorder
	.set	nomacro
	jal	simple_strtol
	li	$6,16			# 0x10
	.set	macro
	.set	reorder

	.loc 2 3489 0
	lui	$3,%hi(lan_addr)
$LBE982 = .
$LBE995 = .
	.set	noreorder
	.set	nomacro
	j	$L534
	sw	$2,%lo(lan_addr)($3)
	.set	macro
	.set	reorder

$L538:
$LBB996 = .
$LBB983 = .
	.loc 2 3492 0
	move	$4,$17
	move	$5,$0
	.set	noreorder
	.set	nomacro
	jal	simple_strtol
	li	$6,16			# 0x10
	.set	macro
	.set	reorder

	.loc 2 3493 0
	lui	$3,%hi(lan_mask)
$LBE983 = .
$LBE996 = .
	.set	noreorder
	.set	nomacro
	j	$L534
	sw	$2,%lo(lan_mask)($3)
	.set	macro
	.set	reorder

$L539:
$LBB997 = .
$LBB984 = .
	.loc 2 3498 0
	lui	$3,%hi(item)
	sw	$2,%lo(item)($3)
	.loc 2 3499 0
	lui	$2,%hi(item_backup)
$LBE984 = .
$LBE997 = .
	.set	noreorder
	.set	nomacro
	j	$L534
	sw	$0,%lo(item_backup)($2)
	.set	macro
	.set	reorder

$L540:
$LBB998 = .
$LBB985 = .
	.loc 2 3502 0
	lui	$3,%hi(whole_syn_threshold)
$LBE985 = .
$LBE998 = .
	.set	noreorder
	.set	nomacro
	j	$L534
	sw	$2,%lo(whole_syn_threshold)($3)
	.set	macro
	.set	reorder

$L541:
$LBB999 = .
$LBB986 = .
	.loc 2 3505 0
	lui	$3,%hi(whole_fin_threshold)
$LBE986 = .
$LBE999 = .
	.set	noreorder
	.set	nomacro
	j	$L534
	sw	$2,%lo(whole_fin_threshold)($3)
	.set	macro
	.set	reorder

$L542:
$LBB1000 = .
$LBB987 = .
	.loc 2 3508 0
	lui	$3,%hi(whole_udp_threshold)
$LBE987 = .
$LBE1000 = .
	.set	noreorder
	.set	nomacro
	j	$L534
	sw	$2,%lo(whole_udp_threshold)($3)
	.set	macro
	.set	reorder

$L543:
$LBB1001 = .
$LBB988 = .
	.loc 2 3511 0
	lui	$3,%hi(whole_icmp_threshold)
$LBE988 = .
$LBE1001 = .
	.set	noreorder
	.set	nomacro
	j	$L534
	sw	$2,%lo(whole_icmp_threshold)($3)
	.set	macro
	.set	reorder

$L544:
$LBB1002 = .
$LBB989 = .
	.loc 2 3514 0
	lui	$3,%hi(per_syn_threshold)
$LBE989 = .
$LBE1002 = .
	.set	noreorder
	.set	nomacro
	j	$L534
	sw	$2,%lo(per_syn_threshold)($3)
	.set	macro
	.set	reorder

$L545:
$LBB1003 = .
$LBB990 = .
	.loc 2 3517 0
	lui	$3,%hi(per_fin_threshold)
$LBE990 = .
$LBE1003 = .
	.set	noreorder
	.set	nomacro
	j	$L534
	sw	$2,%lo(per_fin_threshold)($3)
	.set	macro
	.set	reorder

$L546:
	.loc 2 3520 0
	.set	noreorder
	.set	nomacro
	j	$L534
	sw	$2,%lo(per_udp_threshold)($21)
	.set	macro
	.set	reorder

$L547:
	.loc 2 3523 0
	.set	noreorder
	.set	nomacro
	j	$L534
	sw	$2,%lo(per_icmp_threshold)($22)
	.set	macro
	.set	reorder

$L548:
	.loc 2 3526 0
	.set	noreorder
	.set	nomacro
	j	$L534
	sw	$2,%lo(block_time)($23)
	.set	macro
	.set	reorder

$L549:
$LBB1004 = .
$LBB991 = .
	.loc 2 3530 0
	sw	$2,%lo(item_0)($fp)
$L534:
	.loc 2 3535 0
	addiu	$16,$16,1
	andi	$16,$16,0x00ff
	.loc 2 3480 0
	move	$4,$0
$L533:
	.loc 2 3478 0
	.set	noreorder
	.set	nomacro
	jal	strtok
	addiu	$5,$18,%lo($LC19)
	.set	macro
	.set	reorder

	.set	noreorder
	.set	nomacro
	bne	$2,$0,$L550
	move	$17,$2
	.set	macro
	.set	reorder

$LBB978 = .
	.loc 2 3475 0
	move	$2,$20
$L531:
$LBE978 = .
$LBE991 = .
$LBE1004 = .
	.loc 2 3608 0
	lw	$31,132($sp)
	lw	$fp,128($sp)
	lw	$23,124($sp)
	lw	$22,120($sp)
	lw	$21,116($sp)
	lw	$20,112($sp)
	lw	$19,108($sp)
	lw	$18,104($sp)
	lw	$17,100($sp)
	lw	$16,96($sp)
	.set	noreorder
	.set	nomacro
	j	$31
	addiu	$sp,$sp,136
	.set	macro
	.set	reorder

	.cfi_def_cfa_offset 0
	.cfi_restore 16
	.cfi_restore 17
	.cfi_restore 18
	.cfi_restore 19
	.cfi_restore 20
	.cfi_restore 21
	.cfi_restore 22
	.cfi_restore 23
	.cfi_restore 30
	.cfi_restore 31
	.end	dos_single_write
	.cfi_endproc
$LFE3370:
	.size	dos_single_write, .-dos_single_write
	.section	.rodata.str1.4
	.align	2
$LC29:
	.ascii	"%u.%u.%u.%u\000"
	.text
	.align	2
	.globl	IP2NAME
$LFB3367 = .
	.loc 2 3549 0
	.cfi_startproc
	.set	nomips16
	.ent	IP2NAME
	.type	IP2NAME, @function
IP2NAME:
	.frame	$sp,48,$31		# vars= 0, regs= 6/0, args= 24, gp= 0
	.mask	0x801f0000,-4
	.fmask	0x00000000,0
	.set	noreorder
	.set	nomacro
	addiu	$sp,$sp,-48
	.cfi_def_cfa_offset 48
	sw	$16,24($sp)
	.cfi_offset 16, -24
	move	$16,$5
	sw	$20,40($sp)
	sw	$19,36($sp)
	sw	$18,32($sp)
	sw	$17,28($sp)
	.cfi_offset 20, -8
	.cfi_offset 19, -12
	.cfi_offset 18, -16
	.cfi_offset 17, -20
	srl	$18,$4,24
	srl	$17,$4,16
	sw	$4,48($sp)
	move	$19,$4
	srl	$20,$4,8
$LBB1005 = .
	.loc 2 3550 0
	move	$5,$0
	move	$4,$16
	li	$6,16			# 0x10
$LBE1005 = .
	.loc 2 3549 0
	sw	$31,44($sp)
	.cfi_offset 31, -4
$LBB1006 = .
	.loc 2 3550 0
	jal	memset
	andi	$20,$20,0x00ff

$LBE1006 = .
	.loc 2 3551 0
	andi	$19,$19,0x00ff
	lui	$5,%hi($LC29)
	sw	$20,16($sp)
	sw	$19,20($sp)
	move	$4,$16
	andi	$6,$18,0x00ff
	andi	$7,$17,0x00ff
	jal	sprintf
	addiu	$5,$5,%lo($LC29)

	.loc 2 3557 0
	lw	$31,44($sp)
	move	$2,$16
	lw	$20,40($sp)
	lw	$19,36($sp)
	lw	$18,32($sp)
	lw	$17,28($sp)
	lw	$16,24($sp)
	j	$31
	addiu	$sp,$sp,48

	.cfi_def_cfa_offset 0
	.cfi_restore 16
	.cfi_restore 17
	.cfi_restore 18
	.cfi_restore 19
	.cfi_restore 20
	.cfi_restore 31
	.set	macro
	.set	reorder
	.end	IP2NAME
	.cfi_endproc
$LFE3367:
	.size	IP2NAME, .-IP2NAME
	.section	.rodata.str1.4
	.align	2
$LC30:
	.ascii	"%s\012\000"
	.align	2
$LC31:
	.ascii	"connectip = %s\012\000"
	.align	2
$LC32:
	.ascii	"pkt---IP:%s, syn_cnt:%d, fin_cnt:%d, udp_nct:%d, icmp_cn"
	.ascii	"t:%d, scan_cnt:%d\012\000"
	.align	2
$LC33:
	.ascii	"attack_saddr[%s]=%s,attack_daddr[%s]=%s\012\000"
	.align	2
$LC34:
	.ascii	"op_mode = %d, lan_addr = %s, lan_mask = %s, item = 0x%x,"
	.ascii	"item_0 = 0x%x\012\000"
	.text
	.align	2
$LFB3368 = .
	.loc 2 3559 0
	.cfi_startproc
	.set	nomips16
	.ent	dos_read_proc
	.type	dos_read_proc, @function
dos_read_proc:
	.frame	$sp,72,$31		# vars= 0, regs= 10/0, args= 32, gp= 0
	.mask	0xc0ff0000,-4
	.fmask	0x00000000,0
	.set	noreorder
	.set	nomacro
	addiu	$sp,$sp,-72
	.cfi_def_cfa_offset 72
	.loc 2 3562 0
	lui	$5,%hi($LC30)
	lui	$6,%hi(dos_flag)
	addiu	$5,$5,%lo($LC30)
	.loc 2 3559 0
	sw	$16,32($sp)
	.loc 2 3562 0
	addiu	$6,$6,%lo(dos_flag)
	.cfi_offset 16, -40
	lui	$16,%hi(ConnectedIp)
	.loc 2 3559 0
	sw	$20,48($sp)
	sw	$19,44($sp)
	sw	$18,40($sp)
	sw	$17,36($sp)
	sw	$31,68($sp)
	sw	$fp,64($sp)
	sw	$23,60($sp)
	sw	$22,56($sp)
	sw	$21,52($sp)
	.cfi_offset 20, -24
	.cfi_offset 19, -28
	.cfi_offset 18, -32
	.cfi_offset 17, -36
	.cfi_offset 31, -4
	.cfi_offset 30, -8
	.cfi_offset 23, -12
	.cfi_offset 22, -16
	.cfi_offset 21, -20
	.loc 2 3559 0
	move	$19,$4
	.loc 2 3562 0
	jal	seq_printf
	addiu	$16,$16,%lo(ConnectedIp)

	.loc 2 3567 0
	lui	$18,%hi($LC31)
	lui	$2,%hi(ip_name0)
	addiu	$17,$16,1024
	addiu	$20,$2,%lo(ip_name0)
	addiu	$18,$18,%lo($LC31)
$L560:
	.loc 2 3565 0
	lw	$4,0($16)
	beq	$4,$0,$L558
	addiu	$16,$16,4

	.loc 2 3567 0
	jal	IP2NAME
	move	$5,$20

	move	$6,$2
	move	$4,$19
	jal	seq_printf
	move	$5,$18

$L558:
	.loc 2 3563 0
	bne	$16,$17,$L560
	nop

	.loc 2 3572 0
	jal	local_bh_disable
	lui	$16,%hi(dos_pkt)

	lui	$18,%hi(dos_pkt+40960)
	.loc 2 3578 0
	lui	$2,%hi(ip_name0)
	lui	$20,%hi($LC32)
	.loc 2 3571 0
	addiu	$16,$16,%lo(dos_pkt)
	addiu	$18,$18,%lo(dos_pkt+40960)
	.loc 2 3575 0
	li	$17,1			# 0x1
	.loc 2 3578 0
	addiu	$21,$2,%lo(ip_name0)
	addiu	$20,$20,%lo($LC32)
$L563:
	.loc 2 3575 0
	lb	$2,0($16)
	bne	$2,$17,$L561
	nop

	.loc 2 3578 0
	lw	$4,28($16)
	jal	IP2NAME
	move	$5,$21

	lw	$6,8($16)
	lw	$5,12($16)
	lw	$4,16($16)
	lw	$3,24($16)
	lw	$7,4($16)
	sw	$6,16($sp)
	sw	$5,20($sp)
	sw	$4,24($sp)
	sw	$3,28($sp)
	move	$4,$19
	move	$5,$20
	jal	seq_printf
	move	$6,$2

$L561:
	.loc 2 3580 0
	addiu	$16,$16,40
	.loc 2 3573 0
	bne	$16,$18,$L563
	lui	$2,%hi(ip_name0)

	lui	$16,%hi(attack_daddr)
	addiu	$16,$16,%lo(attack_daddr)
	lui	$17,%hi(attack_saddr)
	lui	$18,%hi(rtl_dos_name)
	.loc 2 3589 0
	addiu	$fp,$2,%lo(ip_name0)
	lui	$2,%hi(ip_name1)
	addiu	$17,$17,%lo(attack_saddr)
	addiu	$18,$18,%lo(rtl_dos_name)
	addiu	$22,$16,108
	addiu	$23,$2,%lo(ip_name1)
$L568:
	.loc 2 3585 0
	lw	$2,0($16)
	bne	$2,$0,$L565
	lw	$4,0($17)

	.loc 2 3585 0 is_stmt 0 discriminator 1
	beq	$4,$0,$L566
	nop

$L565:
	.loc 2 3589 0 is_stmt 1
	jal	IP2NAME
	move	$5,$fp

	lw	$4,0($16)
	lw	$20,0($18)
	move	$5,$23
	jal	IP2NAME
	move	$21,$2

	lui	$5,%hi($LC33)
	sw	$2,20($sp)
	sw	$20,16($sp)
	move	$4,$19
	addiu	$5,$5,%lo($LC33)
	move	$6,$20
	jal	seq_printf
	move	$7,$21

$L566:
	addiu	$16,$16,4
	addiu	$17,$17,4
	.loc 2 3583 0
	bne	$16,$22,$L568
	addiu	$18,$18,4

	.loc 2 3593 0
	jal	local_bh_enable
	nop

	.loc 2 3594 0
	lui	$2,%hi(lan_addr)
	lw	$4,%lo(lan_addr)($2)
	lui	$2,%hi(ip_name0)
	addiu	$5,$2,%lo(ip_name0)
	lui	$2,%hi(op_mode)
	jal	IP2NAME
	lb	$17,%lo(op_mode)($2)

	move	$16,$2
	lui	$2,%hi(lan_mask)
	lw	$4,%lo(lan_mask)($2)
	lui	$2,%hi(ip_name1)
	jal	IP2NAME
	addiu	$5,$2,%lo(ip_name1)

	lui	$3,%hi(item)
	lw	$4,%lo(item)($3)
	lui	$3,%hi(item_0)
	lw	$3,%lo(item_0)($3)
	lui	$5,%hi($LC34)
	sw	$4,20($sp)
	sw	$2,16($sp)
	sw	$3,24($sp)
	move	$4,$19
	move	$6,$17
	move	$7,$16
	jal	seq_printf
	addiu	$5,$5,%lo($LC34)

	.loc 2 3597 0
	lw	$31,68($sp)
	lw	$fp,64($sp)
	lw	$23,60($sp)
	lw	$22,56($sp)
	lw	$21,52($sp)
	lw	$20,48($sp)
	lw	$19,44($sp)
	lw	$18,40($sp)
	lw	$17,36($sp)
	lw	$16,32($sp)
	move	$2,$0
	j	$31
	addiu	$sp,$sp,72

	.cfi_def_cfa_offset 0
	.cfi_restore 16
	.cfi_restore 17
	.cfi_restore 18
	.cfi_restore 19
	.cfi_restore 20
	.cfi_restore 21
	.cfi_restore 22
	.cfi_restore 23
	.cfi_restore 30
	.cfi_restore 31
	.set	macro
	.set	reorder
	.end	dos_read_proc
	.cfi_endproc
$LFE3368:
	.size	dos_read_proc, .-dos_read_proc
	.align	2
	.globl	filter_addconnect
$LFB3371 = .
	.loc 2 3639 0
	.cfi_startproc
	.set	nomips16
	.ent	filter_addconnect
	.type	filter_addconnect, @function
filter_addconnect:
	.frame	$sp,0,$31		# vars= 0, regs= 0/0, args= 0, gp= 0
	.mask	0x00000000,0
	.fmask	0x00000000,0
	.set	noreorder
	.set	nomacro
	.loc 2 3642 0
	andi	$3,$4,0xff
	lui	$2,%hi(ConnectedIp)
	sll	$3,$3,2
	addiu	$2,$2,%lo(ConnectedIp)
	addu	$2,$3,$2
	j	$31
	sw	$4,0($2)

	.set	macro
	.set	reorder
	.end	filter_addconnect
	.cfi_endproc
$LFE3371:
	.size	filter_addconnect, .-filter_addconnect
	.align	2
	.globl	filter_delconnect
$LFB3372 = .
	.loc 2 3647 0
	.cfi_startproc
	.set	nomips16
	.ent	filter_delconnect
	.type	filter_delconnect, @function
filter_delconnect:
	.frame	$sp,0,$31		# vars= 0, regs= 0/0, args= 0, gp= 0
	.mask	0x00000000,0
	.fmask	0x00000000,0
	.set	noreorder
	.set	nomacro
	.loc 2 3650 0
	andi	$4,$4,0x00ff
	lui	$3,%hi(ConnectedIp)
	sll	$2,$4,2
	addiu	$3,$3,%lo(ConnectedIp)
	addu	$2,$2,$3
	j	$31
	sw	$0,0($2)

	.set	macro
	.set	reorder
	.end	filter_delconnect
	.cfi_endproc
$LFE3372:
	.size	filter_delconnect, .-filter_delconnect
	.align	2
	.globl	filter_checkConnect
$LFB3373 = .
	.loc 2 3655 0
	.cfi_startproc
	.set	nomips16
	.ent	filter_checkConnect
	.type	filter_checkConnect, @function
filter_checkConnect:
	.frame	$sp,0,$31		# vars= 0, regs= 0/0, args= 0, gp= 0
	.mask	0x00000000,0
	.fmask	0x00000000,0
	.set	noreorder
	.set	nomacro
	.loc 2 3658 0
	andi	$3,$4,0xff
	lui	$2,%hi(ConnectedIp)
	sll	$3,$3,2
	addiu	$2,$2,%lo(ConnectedIp)
	addu	$2,$3,$2
	lw	$3,0($2)
	beq	$3,$0,$L582
	li	$2,1			# 0x1

	.loc 2 3658 0 is_stmt 0 discriminator 1
	xor	$2,$4,$3
	sltu	$2,$0,$2
$L582:
	.loc 2 3663 0 is_stmt 1
	j	$31
	nop

	.set	macro
	.set	reorder
	.end	filter_checkConnect
	.cfi_endproc
$LFE3373:
	.size	filter_checkConnect, .-filter_checkConnect
	.align	2
	.globl	register_customRspStr
$LFB3374 = .
	.loc 2 3673 0
	.cfi_startproc
	.set	nomips16
	.ent	register_customRspStr
	.type	register_customRspStr, @function
register_customRspStr:
	.frame	$sp,32,$31		# vars= 0, regs= 3/0, args= 16, gp= 0
	.mask	0x80030000,-4
	.fmask	0x00000000,0
	.set	noreorder
	.set	nomacro
	addiu	$sp,$sp,-32
	.cfi_def_cfa_offset 32
	sw	$16,20($sp)
	.cfi_offset 16, -12
$LBB1007 = .
$LBB1008 = .
	.loc 2 3692 0
	lui	$16,%hi(block_message)
	lw	$2,%lo(block_message)($16)
$LBE1008 = .
$LBE1007 = .
	.loc 2 3673 0
	sw	$17,24($sp)
	sw	$31,28($sp)
	.cfi_offset 17, -8
	.cfi_offset 31, -4
$LBB1010 = .
$LBB1009 = .
	.loc 2 3692 0
	beq	$2,$0,$L584
	move	$17,$4

	.loc 2 3694 0
	jal	kfree
	move	$4,$2

	.loc 2 3695 0
	sw	$0,%lo(block_message)($16)
$L584:
$LBE1009 = .
$LBE1010 = .
	.loc 2 3675 0
	beq	$17,$0,$L585
	nop

	.loc 2 3677 0
	jal	strlen
	move	$4,$17

$LBB1011 = .
$LBB1012 = .
	.loc 3 174 0
	addiu	$4,$2,1
	jal	__kmalloc
	li	$5,208			# 0xd0

$LBE1012 = .
$LBE1011 = .
	.loc 2 3678 0
	beq	$2,$0,$L583
	sw	$2,%lo(block_message)($16)

	.loc 2 3679 0
	lui	$5,%hi($LC14)
	move	$4,$2
	addiu	$5,$5,%lo($LC14)
	j	$L596
	move	$6,$17

$L585:
	.loc 2 3683 0
	lui	$17,%hi($LC11)
	jal	strlen
	addiu	$4,$17,%lo($LC11)

$LBB1013 = .
$LBB1014 = .
	.loc 3 174 0
	move	$4,$2
	jal	__kmalloc
	li	$5,208			# 0xd0

$LBE1014 = .
$LBE1013 = .
	.loc 2 3684 0
	beq	$2,$0,$L583
	sw	$2,%lo(block_message)($16)

	.loc 2 3685 0
	lui	$5,%hi($LC14)
	move	$4,$2
	addiu	$5,$5,%lo($LC14)
	addiu	$6,$17,%lo($LC11)
$L596:
	.loc 2 3688 0
	lw	$31,28($sp)
	lw	$17,24($sp)
	lw	$16,20($sp)
	.cfi_remember_state
	.cfi_restore 16
	.cfi_restore 17
	.cfi_restore 31
	.loc 2 3685 0
	j	sprintf
	addiu	$sp,$sp,32

	.cfi_def_cfa_offset 0
$L583:
	.cfi_restore_state
	.loc 2 3688 0
	lw	$31,28($sp)
	lw	$17,24($sp)
	lw	$16,20($sp)
	j	$31
	addiu	$sp,$sp,32

	.cfi_def_cfa_offset 0
	.cfi_restore 16
	.cfi_restore 17
	.cfi_restore 31
	.set	macro
	.set	reorder
	.end	register_customRspStr
	.cfi_endproc
$LFE3374:
	.size	register_customRspStr, .-register_customRspStr
	.align	2
	.globl	unregister_customRspStr
$LFB3375 = .
	.loc 2 3691 0
	.cfi_startproc
	.set	nomips16
	.ent	unregister_customRspStr
	.type	unregister_customRspStr, @function
unregister_customRspStr:
	.frame	$sp,24,$31		# vars= 0, regs= 2/0, args= 16, gp= 0
	.mask	0x80010000,-4
	.fmask	0x00000000,0
	.set	noreorder
	.set	nomacro
	addiu	$sp,$sp,-24
	.cfi_def_cfa_offset 24
	sw	$16,16($sp)
	.cfi_offset 16, -8
	.loc 2 3692 0
	lui	$16,%hi(block_message)
	lw	$4,%lo(block_message)($16)
	.loc 2 3692 0
	beq	$4,$0,$L597
	sw	$31,20($sp)

	.cfi_offset 31, -4
	.loc 2 3694 0
	jal	kfree
	nop

	.loc 2 3695 0
	sw	$0,%lo(block_message)($16)
$L597:
	.loc 2 3698 0
	lw	$31,20($sp)
	lw	$16,16($sp)
	j	$31
	addiu	$sp,$sp,24

	.cfi_def_cfa_offset 0
	.cfi_restore 16
	.cfi_restore 31
	.set	macro
	.set	reorder
	.end	unregister_customRspStr
	.cfi_endproc
$LFE3375:
	.size	unregister_customRspStr, .-unregister_customRspStr
	.align	2
	.globl	register_customRspHook
$LFB3376 = .
	.loc 2 3701 0
	.cfi_startproc
	.set	nomips16
	.ent	register_customRspHook
	.type	register_customRspHook, @function
register_customRspHook:
	.frame	$sp,0,$31		# vars= 0, regs= 0/0, args= 0, gp= 0
	.mask	0x00000000,0
	.fmask	0x00000000,0
	.set	noreorder
	.set	nomacro
	.loc 2 3702 0
	beq	$4,$0,$L604
	lui	$2,%hi(fast_path_cusRsp401_func)

	j	$L605
	sw	$4,%lo(fast_path_cusRsp401_func)($2)

$L604:
	.loc 2 3705 0
	lui	$3,%hi(GenerateHTTP401)
	addiu	$3,$3,%lo(GenerateHTTP401)
	sw	$3,%lo(fast_path_cusRsp401_func)($2)
$L605:
	.loc 2 3707 0
	beq	$5,$0,$L606
	lui	$2,%hi(fast_path_cusRspTCPFinAck_func)

	j	$L607
	sw	$5,%lo(fast_path_cusRspTCPFinAck_func)($2)

$L606:
	.loc 2 3710 0
	lui	$3,%hi(GenerateTCPFINACK)
	addiu	$3,$3,%lo(GenerateTCPFINACK)
	sw	$3,%lo(fast_path_cusRspTCPFinAck_func)($2)
$L607:
	.loc 2 3712 0
	beq	$6,$0,$L608
	lui	$2,%hi(fast_path_cusRspTCPEndAck_func)

	j	$31
	sw	$6,%lo(fast_path_cusRspTCPEndAck_func)($2)

$L608:
	.loc 2 3715 0
	lui	$3,%hi(GenerateTCPENDACK)
	addiu	$3,$3,%lo(GenerateTCPENDACK)
	j	$31
	sw	$3,%lo(fast_path_cusRspTCPEndAck_func)($2)

	.set	macro
	.set	reorder
	.end	register_customRspHook
	.cfi_endproc
$LFE3376:
	.size	register_customRspHook, .-register_customRspHook
	.align	2
	.globl	unregister_customRspHook
$LFB3377 = .
	.loc 2 3720 0
	.cfi_startproc
	.set	nomips16
	.ent	unregister_customRspHook
	.type	unregister_customRspHook, @function
unregister_customRspHook:
	.frame	$sp,0,$31		# vars= 0, regs= 0/0, args= 0, gp= 0
	.mask	0x00000000,0
	.fmask	0x00000000,0
	.set	noreorder
	.set	nomacro
	.loc 2 3721 0
	lui	$2,%hi(fast_path_cusRsp401_func)
	sw	$0,%lo(fast_path_cusRsp401_func)($2)
	.loc 2 3722 0
	lui	$2,%hi(fast_path_cusRspTCPFinAck_func)
	sw	$0,%lo(fast_path_cusRspTCPFinAck_func)($2)
	.loc 2 3723 0
	lui	$2,%hi(fast_path_cusRspTCPEndAck_func)
	j	$31
	sw	$0,%lo(fast_path_cusRspTCPEndAck_func)($2)

	.set	macro
	.set	reorder
	.end	unregister_customRspHook
	.cfi_endproc
$LFE3377:
	.size	unregister_customRspHook, .-unregister_customRspHook
	.align	2
	.globl	filter_enter
$LFB3378 = .
	.loc 2 3735 0
	.cfi_startproc
	.set	nomips16
	.ent	filter_enter
	.type	filter_enter, @function
filter_enter:
	.frame	$sp,48,$31		# vars= 0, regs= 7/0, args= 16, gp= 0
	.mask	0x803f0000,-4
	.fmask	0x00000000,0
	.set	noreorder
	.set	nomacro
	addiu	$sp,$sp,-48
	.cfi_def_cfa_offset 48
	sw	$18,28($sp)
	.cfi_offset 18, -20
	.loc 2 3743 0
	lui	$18,%hi(item)
	lw	$2,%lo(item)($18)
	.loc 2 3735 0
	sw	$17,24($sp)
	sw	$31,44($sp)
	sw	$21,40($sp)
	sw	$20,36($sp)
	sw	$19,32($sp)
	sw	$16,20($sp)
	.cfi_offset 17, -24
	.cfi_offset 31, -4
	.cfi_offset 21, -8
	.cfi_offset 20, -12
	.cfi_offset 19, -16
	.cfi_offset 16, -28
	.loc 2 3743 0
	bne	$2,$0,$L612
	move	$17,$4

	.loc 2 3743 0 is_stmt 0 discriminator 1
	lui	$2,%hi(table_list_head+24)
	lw	$2,%lo(table_list_head+24)($2)
	sltu	$2,$2,2
	bne	$2,$0,$L922
	lui	$2,%hi(none_dos_drop_pkt_cnt)

$L612:
	.loc 2 3751 0 is_stmt 1
	jal	rtl_get_skb_type
	move	$4,$17

	beq	$2,$0,$L614
	nop

$L615:
	j	$L905
	li	$16,4			# 0x4

$L614:
	.loc 2 3752 0
	jal	rtl_get_skb_protocol
	move	$4,$17

	li	$3,2048			# 0x800
	bne	$2,$3,$L905
	li	$16,4			# 0x4

	.loc 2 3806 0
	lui	$2,%hi(table_list_head+24)
	lw	$2,%lo(table_list_head+24)($2)
	sltu	$2,$2,2
	bne	$2,$0,$L616
	nop

$LBB1076 = .
$LBB1077 = .
	.loc 2 1101 0
	jal	FilterWeb_v2
	move	$4,$17

	move	$16,$2
$LBE1077 = .
$LBE1076 = .
	.loc 2 3810 0
	lui	$2,%hi(fast_path_cusRsp401_func)
	.loc 2 3808 0
	beq	$16,$0,$L617
	lw	$2,%lo(fast_path_cusRsp401_func)($2)

	.loc 2 3810 0
	beq	$2,$0,$L917
	nop

	.loc 2 3811 0
	jalr	$2
	move	$4,$17

$L917:
	.loc 2 3813 0
	j	$L905
	move	$16,$0

$L617:
	.loc 2 3816 0
	beq	$2,$0,$L616
	lui	$3,%hi(url_cache)

	.loc 2 3818 0
	addiu	$3,$3,%lo(url_cache)
	lbu	$4,15($3)
	li	$2,1			# 0x1
	bne	$4,$2,$L619
	nop

	.loc 2 3819 0
	lui	$2,%hi(fast_path_cusRspTCPFinAck_func)
	lw	$2,%lo(fast_path_cusRspTCPFinAck_func)($2)
	bne	$2,$0,$L915
	nop

	j	$L905
	move	$16,$0

$L619:
	.loc 2 3823 0
	lbu	$3,16($3)
	bne	$3,$2,$L923
	lw	$2,%lo(item)($18)

	.loc 2 3824 0
	lui	$2,%hi(fast_path_cusRspTCPEndAck_func)
	lw	$2,%lo(fast_path_cusRspTCPEndAck_func)($2)
	beq	$2,$0,$L917
	nop

$L915:
	.loc 2 3825 0
	jalr	$2
	move	$4,$17

	.loc 2 3868 0
	j	$L919
	lw	$31,44($sp)

$L616:
	.loc 2 3846 0
	lw	$2,%lo(item)($18)
$L923:
	andi	$2,$2,0x1
	beq	$2,$0,$L621
	nop

$LBB1078 = .
$LBB1079 = .
	.loc 2 3349 0
	jal	rtl_ip_hdr
	move	$4,$17

	move	$16,$2
	.loc 2 3350 0
	lw	$2,0($2)
	.loc 2 3354 0
	lui	$4,%hi($LC15)
	addiu	$4,$4,%lo($LC15)
	jal	rtl_get_dev_by_name
	ext	$21,$2,24,4

	.loc 2 3358 0
	lui	$4,%hi($LC16)
	addiu	$4,$4,%lo($LC16)
	.loc 2 3354 0
	lui	$20,%hi(wan_ppp_dev)
	sw	$2,%lo(wan_ppp_dev)($20)
	.loc 2 3358 0
	jal	rtl_get_dev_by_name
	lui	$19,%hi(wan_dev)

	.loc 2 3360 0
	move	$4,$17
	jal	rtl_get_skb_dev
	sw	$2,%lo(wan_dev)($19)

	beq	$2,$0,$L621
	nop

	jal	rtl_get_skb_dev
	move	$4,$17

	lw	$3,%lo(wan_dev)($19)
	bne	$3,$2,$L623
	lw	$19,%lo(item)($18)

	.loc 2 3350 0
	sll	$20,$21,2
$L934:
	.loc 2 3363 0
	andi	$2,$19,0x3fe
	beq	$2,$0,$L625
	addu	$20,$16,$20

	j	$L918
	nop

$L623:
	.loc 2 3360 0
	jal	rtl_get_skb_dev
	move	$4,$17

	lw	$3,%lo(wan_ppp_dev)($20)
	bne	$3,$2,$L621
	lw	$19,%lo(item)($18)

$LBE1079 = .
$LBE1078 = .
	.loc 2 3350 0
	j	$L934
	sll	$20,$21,2

$L625:
	.loc 2 3348 0
	j	$L627
	move	$18,$0

$L918:
$LBB1200 = .
$LBB1179 = .
	.loc 2 3365 0
	jal	dos_pkt_locate.isra.5
	lw	$4,12($16)

	beq	$2,$0,$L625
	andi	$2,$19,0x22

	.loc 2 3367 0
	beq	$2,$0,$L628
	move	$18,$0

$LBB1080 = .
$LBB1081 = .
	.loc 2 2400 0
	lbu	$3,9($16)
	.loc 2 2397 0
	lui	$2,%hi(cur_p_pkt)
	lw	$5,%lo(cur_p_pkt)($2)
	.loc 2 2400 0
	li	$2,6			# 0x6
	bne	$3,$2,$L628
	li	$2,2			# 0x2

	lbu	$3,13($20)
	andi	$3,$3,0x3f
	bne	$3,$2,$L628
	lui	$2,%hi(block)

	.loc 2 2402 0
	lw	$4,%lo(block)($2)
	li	$3,1			# 0x1
	bne	$4,$3,$L632
	lui	$3,%hi(attack_saddr+4)

	lw	$4,%lo(attack_saddr+4)($3)
	lw	$3,12($16)
	beq	$4,$3,$L733
	nop

$L632:
	.loc 2 2404 0
	lw	$4,4($5)
	.loc 2 2406 0
	lui	$3,%hi(per_syn_threshold)
	lw	$3,%lo(per_syn_threshold)($3)
	.loc 2 2404 0
	addiu	$4,$4,1
	sw	$4,4($5)
	.loc 2 2406 0
	slt	$4,$3,$4
	beq	$4,$0,$L909
	andi	$4,$19,0x20

	beq	$4,$0,$L909
	nop

	blez	$3,$L909
	lui	$5,%hi(attack_saddr+4)

	.loc 2 2408 0
	lw	$6,12($16)
	.loc 2 2411 0
	lui	$3,%hi(LogFlag)
	.loc 2 2408 0
	sw	$6,%lo(attack_saddr+4)($5)
	.loc 2 2411 0
	lw	$4,%lo(LogFlag)($3)
	.loc 2 2409 0
	lw	$6,16($16)
	lui	$5,%hi(attack_daddr+4)
	.loc 2 2411 0
	ori	$4,$4,0x20
	.loc 2 2409 0
	sw	$6,%lo(attack_daddr+4)($5)
	.loc 2 2410 0
	li	$5,1			# 0x1
	sw	$5,%lo(block)($2)
	.loc 2 2411 0
	sw	$4,%lo(LogFlag)($3)
$L909:
$LBE1081 = .
$LBE1080 = .
$LBE1179 = .
$LBE1200 = .
	.loc 2 2414 0
	j	$L628
	move	$18,$0

$L733:
$LBB1201 = .
$LBB1180 = .
$LBB1083 = .
$LBB1082 = .
	.loc 2 2403 0
	li	$18,-1			# 0xffffffffffffffff
$L628:
$LBE1082 = .
$LBE1083 = .
	.loc 2 3369 0
	andi	$2,$19,0x44
	beq	$2,$0,$L924
	andi	$2,$19,0x88

$LBB1084 = .
$LBB1085 = .
	.loc 2 2424 0
	lbu	$3,9($16)
	.loc 2 2422 0
	lui	$2,%hi(cur_p_pkt)
	lw	$5,%lo(cur_p_pkt)($2)
	.loc 2 2424 0
	li	$2,6			# 0x6
	bne	$3,$2,$L635
	move	$2,$0

	lbu	$3,13($20)
	li	$2,1			# 0x1
	andi	$3,$3,0x3f
	bne	$3,$2,$L635
	move	$2,$0

	.loc 2 2426 0
	lui	$2,%hi(block)
	lw	$4,%lo(block)($2)
	bne	$4,$3,$L637
	lui	$3,%hi(attack_saddr+8)

	lw	$4,%lo(attack_saddr+8)($3)
	lw	$3,12($16)
	beq	$4,$3,$L734
	nop

$L637:
	.loc 2 2428 0
	lw	$4,8($5)
	.loc 2 2429 0
	lui	$3,%hi(per_fin_threshold)
	lw	$3,%lo(per_fin_threshold)($3)
	.loc 2 2428 0
	addiu	$4,$4,1
	sw	$4,8($5)
	.loc 2 2429 0
	slt	$4,$3,$4
	beq	$4,$0,$L910
	andi	$4,$19,0x40

	beq	$4,$0,$L910
	nop

	blez	$3,$L910
	lui	$5,%hi(attack_saddr+8)

	.loc 2 2431 0
	lw	$6,12($16)
	.loc 2 2434 0
	lui	$3,%hi(LogFlag)
	.loc 2 2431 0
	sw	$6,%lo(attack_saddr+8)($5)
	.loc 2 2434 0
	lw	$4,%lo(LogFlag)($3)
	.loc 2 2432 0
	lw	$6,16($16)
	lui	$5,%hi(attack_daddr+8)
	.loc 2 2434 0
	ori	$4,$4,0x40
	.loc 2 2432 0
	sw	$6,%lo(attack_daddr+8)($5)
	.loc 2 2433 0
	li	$5,1			# 0x1
	sw	$5,%lo(block)($2)
	.loc 2 2434 0
	sw	$4,%lo(LogFlag)($3)
$L910:
$LBE1085 = .
$LBE1084 = .
$LBE1180 = .
$LBE1201 = .
	.loc 2 2437 0
	j	$L635
	move	$2,$0

$L734:
$LBB1202 = .
$LBB1181 = .
$LBB1087 = .
$LBB1086 = .
	.loc 2 2427 0
	li	$2,-1			# 0xffffffffffffffff
$L635:
$LBE1086 = .
$LBE1087 = .
	.loc 2 3370 0
	or	$18,$18,$2
	.loc 2 3371 0
	andi	$2,$19,0x88
$L924:
	beq	$2,$0,$L925
	andi	$2,$19,0x110

$LBB1088 = .
$LBB1089 = .
	.loc 2 2444 0
	lbu	$3,9($16)
	.loc 2 2443 0
	lui	$2,%hi(cur_p_pkt)
	lw	$5,%lo(cur_p_pkt)($2)
	.loc 2 2444 0
	li	$2,17			# 0x11
	bne	$3,$2,$L640
	move	$2,$0

	.loc 2 2446 0
	lui	$2,%hi(block)
	lw	$4,%lo(block)($2)
	li	$3,1			# 0x1
	bne	$4,$3,$L641
	lui	$3,%hi(attack_saddr+12)

	lw	$4,%lo(attack_saddr+12)($3)
	lw	$3,12($16)
	beq	$4,$3,$L735
	nop

$L641:
	.loc 2 2448 0
	lw	$4,12($5)
	.loc 2 2449 0
	lui	$3,%hi(per_udp_threshold)
	lw	$3,%lo(per_udp_threshold)($3)
	.loc 2 2448 0
	addiu	$4,$4,1
	sw	$4,12($5)
	.loc 2 2449 0
	slt	$4,$3,$4
	beq	$4,$0,$L911
	andi	$4,$19,0x80

	beq	$4,$0,$L911
	nop

	blez	$3,$L911
	lui	$5,%hi(attack_saddr+12)

	.loc 2 2451 0
	lw	$6,12($16)
	.loc 2 2454 0
	lui	$3,%hi(LogFlag)
	.loc 2 2451 0
	sw	$6,%lo(attack_saddr+12)($5)
	.loc 2 2454 0
	lw	$4,%lo(LogFlag)($3)
	.loc 2 2452 0
	lw	$6,16($16)
	lui	$5,%hi(attack_daddr+12)
	.loc 2 2454 0
	ori	$4,$4,0x80
	.loc 2 2452 0
	sw	$6,%lo(attack_daddr+12)($5)
	.loc 2 2453 0
	li	$5,1			# 0x1
	sw	$5,%lo(block)($2)
	.loc 2 2454 0
	sw	$4,%lo(LogFlag)($3)
$L911:
$LBE1089 = .
$LBE1088 = .
$LBE1181 = .
$LBE1202 = .
	.loc 2 2457 0
	j	$L640
	move	$2,$0

$L735:
$LBB1203 = .
$LBB1182 = .
$LBB1091 = .
$LBB1090 = .
	.loc 2 2447 0
	li	$2,-1			# 0xffffffffffffffff
$L640:
$LBE1090 = .
$LBE1091 = .
	.loc 2 3372 0
	or	$18,$18,$2
	.loc 2 3373 0
	andi	$2,$19,0x110
$L925:
	beq	$2,$0,$L926
	li	$2,3145728			# 0x300000

$LBB1092 = .
$LBB1093 = .
	.loc 2 2464 0
	lbu	$3,9($16)
	.loc 2 2463 0
	lui	$2,%hi(cur_p_pkt)
	lw	$5,%lo(cur_p_pkt)($2)
	.loc 2 2464 0
	li	$2,1			# 0x1
	bne	$3,$2,$L645
	move	$2,$0

	.loc 2 2466 0
	lui	$2,%hi(block)
	lw	$4,%lo(block)($2)
	bne	$4,$3,$L646
	lui	$3,%hi(attack_saddr+16)

	lw	$4,%lo(attack_saddr+16)($3)
	lw	$3,12($16)
	beq	$4,$3,$L736
	nop

$L646:
	.loc 2 2468 0
	lw	$4,16($5)
	.loc 2 2469 0
	lui	$3,%hi(per_icmp_threshold)
	lw	$3,%lo(per_icmp_threshold)($3)
	.loc 2 2468 0
	addiu	$4,$4,1
	sw	$4,16($5)
	.loc 2 2469 0
	slt	$4,$3,$4
	beq	$4,$0,$L912
	andi	$4,$19,0x100

	beq	$4,$0,$L912
	nop

	blez	$3,$L912
	lui	$5,%hi(attack_saddr+16)

	.loc 2 2471 0
	lw	$6,12($16)
	.loc 2 2474 0
	lui	$3,%hi(LogFlag)
	.loc 2 2471 0
	sw	$6,%lo(attack_saddr+16)($5)
	.loc 2 2474 0
	lw	$4,%lo(LogFlag)($3)
	.loc 2 2472 0
	lw	$6,16($16)
	lui	$5,%hi(attack_daddr+16)
	.loc 2 2474 0
	ori	$4,$4,0x100
	.loc 2 2472 0
	sw	$6,%lo(attack_daddr+16)($5)
	.loc 2 2473 0
	li	$5,1			# 0x1
	sw	$5,%lo(block)($2)
	.loc 2 2474 0
	sw	$4,%lo(LogFlag)($3)
$L912:
$LBE1093 = .
$LBE1092 = .
$LBE1182 = .
$LBE1203 = .
	.loc 2 2477 0
	j	$L645
	move	$2,$0

$L736:
$LBB1204 = .
$LBB1183 = .
$LBB1095 = .
$LBB1094 = .
	.loc 2 2467 0
	li	$2,-1			# 0xffffffffffffffff
$L645:
$LBE1094 = .
$LBE1095 = .
	.loc 2 3374 0
	or	$18,$18,$2
	.loc 2 3375 0
	li	$2,3145728			# 0x300000
$L926:
	and	$2,$19,$2
	beq	$2,$0,$L648
	lui	$2,%hi(cur_p_pkt)

$LBB1096 = .
$LBB1097 = .
	.loc 2 2484 0
	lw	$5,0($16)
	.loc 2 2486 0
	lbu	$4,9($16)
	li	$6,1			# 0x1
	.loc 2 2485 0
	lw	$3,%lo(cur_p_pkt)($2)
	.loc 2 2484 0
	ext	$5,$5,24,4
	.loc 2 2486 0
	bne	$4,$6,$L649
	move	$2,$0

	sll	$5,$5,2
	addu	$5,$16,$5
	lbu	$5,0($5)
	andi	$5,$5,0xf7
	bne	$5,$0,$L649
	nop

	.loc 2 2488 0
	lui	$2,%hi(block)
	lw	$2,%lo(block)($2)
	bne	$2,$4,$L650
	nop

	lui	$2,%hi(attack_saddr+20)
	lw	$4,%lo(attack_saddr+20)($2)
	lw	$2,12($16)
	beq	$4,$2,$L739
	nop

$L650:
	.loc 2 2490 0
	lw	$4,20($3)
	.loc 2 2499 0
	move	$2,$0
	.loc 2 2490 0
	addiu	$4,$4,1
$LBE1097 = .
$LBE1096 = .
$LBE1183 = .
$LBE1204 = .
	j	$L649
	sw	$4,20($3)

$L739:
$LBB1205 = .
$LBB1184 = .
$LBB1099 = .
$LBB1098 = .
	.loc 2 2489 0
	li	$2,-1			# 0xffffffffffffffff
$L649:
$LBE1098 = .
$LBE1099 = .
	.loc 2 3376 0
	or	$18,$18,$2
$L648:
	.loc 2 3377 0
	andi	$2,$19,0x200
	beq	$2,$0,$L921
	ext	$2,$19,22,1

$LBB1100 = .
$LBB1101 = .
	.loc 2 2983 0
	lbu	$4,9($16)
	.loc 2 2981 0
	lui	$2,%hi(cur_p_pkt)
	lw	$3,%lo(cur_p_pkt)($2)
	.loc 2 2983 0
	li	$2,6			# 0x6
	bne	$4,$2,$L913
	nop

	.loc 2 2986 0
	lhu	$2,36($3)
	beq	$2,$0,$L654
	nop

	lhu	$5,2($20)
	bne	$5,$2,$L907
	nop

$L913:
	j	$L653
	lw	$2,24($3)

$L907:
	.loc 2 2987 0
	lw	$2,24($3)
	addiu	$2,$2,1
	sw	$2,24($3)
	lbu	$4,9($16)
$L653:
	.loc 2 2991 0
	li	$5,17			# 0x11
	bne	$4,$5,$L656
	nop

	.loc 2 2993 0
	lhu	$4,36($3)
	beq	$4,$0,$L657
	nop

	lhu	$5,2($20)
	beq	$5,$4,$L656
	nop

	.loc 2 2994 0
	addiu	$2,$2,1
	sw	$2,24($3)
$L656:
	.loc 2 2999 0
	ext	$3,$19,23,1
	beq	$3,$0,$L659
	nop

	slt	$2,$2,11
	bne	$2,$0,$L921
	ext	$2,$19,22,1

$L729:
	.loc 2 3008 0
	lw	$5,12($16)
	.loc 2 3007 0
	lui	$2,%hi(LogFlag)
	lw	$4,%lo(LogFlag)($2)
	.loc 2 3008 0
	lui	$3,%hi(attack_saddr+24)
	sw	$5,%lo(attack_saddr+24)($3)
	.loc 2 3009 0
	lw	$3,16($16)
	.loc 2 3007 0
	ori	$4,$4,0x200
	sw	$4,%lo(LogFlag)($2)
	.loc 2 3009 0
	lui	$2,%hi(attack_daddr+24)
	sw	$3,%lo(attack_daddr+24)($2)
$LBE1101 = .
$LBE1100 = .
	.loc 2 3379 0
	ext	$2,$19,22,1
$L921:
	beq	$2,$0,$L625
	nop

$L627:
	.loc 2 3385 0
	lui	$2,%hi(item_0)
	lw	$4,%lo(item_0)($2)
	andi	$2,$4,0x1
	beq	$2,$0,$L661
	li	$2,6			# 0x6

$LBB1104 = .
$LBB1105 = .
	.loc 2 2834 0
	lbu	$5,9($16)
	bne	$5,$2,$L662
	move	$3,$0

	.loc 2 2836 0
	lw	$2,0($16)
	ext	$2,$2,24,4
	sll	$2,$2,2
	addu	$2,$16,$2
	.loc 2 2837 0
	lbu	$5,12($2)
	andi	$5,$5,0xf0
	sra	$5,$5,2
	.loc 2 2839 0
	sltu	$6,$5,21
	bne	$6,$0,$L662
	addiu	$2,$2,20

	.loc 2 2845 0
	lui	$10,%hi($L666)
	addiu	$5,$5,-20
	addiu	$10,$10,%lo($L666)
	.loc 2 2883 0
	li	$9,10			# 0xa
	.loc 2 2871 0
	li	$8,3			# 0x3
$LBE1105 = .
$LBE1104 = .
$LBE1184 = .
$LBE1205 = .
	.loc 2 2859 0
	j	$L663
	li	$7,4			# 0x4

$L675:
$LBB1206 = .
$LBB1185 = .
$LBB1112 = .
$LBB1106 = .
	.loc 2 2845 0
	lbu	$6,0($2)
	sltu	$11,$6,9
	beq	$11,$0,$L664
	sll	$6,$6,2

	addu	$6,$10,$6
	lw	$6,0($6)
	j	$6
	nop

	.rdata
	.align	2
	.align	2
$L666:
	.word	$L667
	.word	$L667
	.word	$L668
	.word	$L669
	.word	$L664
	.word	$L664
	.word	$L664
	.word	$L664
	.word	$L670
	.text
$L667:
	.loc 2 2854 0
	addiu	$2,$2,1
$LBE1106 = .
$LBE1112 = .
$LBE1185 = .
$LBE1206 = .
	.loc 2 2855 0
	j	$L663
	addiu	$3,$3,1

$L668:
$LBB1207 = .
$LBB1186 = .
$LBB1113 = .
$LBB1107 = .
	.loc 2 2859 0
	lbu	$6,1($2)
	bne	$6,$7,$L664
	addiu	$2,$2,4

$LBE1107 = .
$LBE1113 = .
$LBE1186 = .
$LBE1207 = .
	.loc 2 2867 0
	j	$L663
	addiu	$3,$3,4

$L669:
$LBB1208 = .
$LBB1187 = .
$LBB1114 = .
$LBB1108 = .
	.loc 2 2871 0
	lbu	$6,1($2)
	bne	$6,$8,$L664
	addiu	$2,$2,3

$LBE1108 = .
$LBE1114 = .
$LBE1187 = .
$LBE1208 = .
	.loc 2 2879 0
	j	$L663
	addiu	$3,$3,3

$L670:
$LBB1209 = .
$LBB1188 = .
$LBB1115 = .
$LBB1109 = .
	.loc 2 2883 0
	lbu	$6,1($2)
	bne	$6,$9,$L664
	addiu	$2,$2,10

$LBE1109 = .
$LBE1115 = .
$LBE1188 = .
$LBE1209 = .
	.loc 2 2891 0
	j	$L663
	addiu	$3,$3,10

$L664:
$LBB1210 = .
$LBB1189 = .
$LBB1116 = .
$LBB1110 = .
	.loc 2 2896 0
	lw	$3,12($16)
	lui	$2,%hi(attack_saddr+100)
	sw	$3,%lo(attack_saddr+100)($2)
	.loc 2 2897 0
	lw	$5,16($16)
	lui	$2,%hi(attack_daddr+100)
	.loc 2 2898 0
	li	$3,-1			# 0xffffffffffffffff
$LBE1110 = .
$LBE1116 = .
$LBE1189 = .
$LBE1210 = .
	.loc 2 2897 0
	j	$L662
	sw	$5,%lo(attack_daddr+100)($2)

$L663:
$LBB1211 = .
$LBB1190 = .
$LBB1117 = .
$LBB1111 = .
	.loc 2 2843 0
	sltu	$6,$3,$5
	bne	$6,$0,$L675
	nop

	.loc 2 2903 0
	move	$3,$0
$L662:
$LBE1111 = .
$LBE1117 = .
	.loc 2 3386 0
	or	$18,$18,$3
$L661:
	.loc 2 3387 0
	andi	$4,$4,0x2
	beq	$4,$0,$L927
	li	$3,536870912			# 0x20000000

$LBB1118 = .
$LBB1119 = .
	.loc 2 2755 0
	lbu	$3,9($16)
	li	$2,17			# 0x11
	beq	$3,$2,$L677
	li	$4,6			# 0x6

	bne	$3,$4,$L678
	move	$2,$0

$L677:
	.loc 2 2758 0
	lhu	$3,2($20)
	li	$5,7			# 0x7
	beq	$3,$5,$L679
	nop

	li	$2,-3			# 0xfffffffffffffffd
	and	$4,$3,$2
	li	$3,17			# 0x11
	beq	$4,$3,$L679
	nop

	lhu	$4,0($20)
	beq	$4,$5,$L679
	and	$4,$4,$2

	bne	$4,$3,$L678
	move	$2,$0

$L679:
	lw	$3,12($16)
	lw	$4,16($16)
	bne	$3,$4,$L678
	move	$2,$0

	.loc 2 2760 0
	lui	$2,%hi(attack_saddr+104)
	sw	$3,%lo(attack_saddr+104)($2)
	.loc 2 2761 0
	lw	$4,16($16)
	lui	$3,%hi(attack_daddr+104)
	.loc 2 2762 0
	li	$2,-1			# 0xffffffffffffffff
	.loc 2 2761 0
	sw	$4,%lo(attack_daddr+104)($3)
$L678:
$LBE1119 = .
$LBE1118 = .
	.loc 2 3388 0
	or	$18,$18,$2
	.loc 2 3390 0
	li	$3,536870912			# 0x20000000
$L927:
	and	$2,$19,$3
	beq	$2,$0,$L928
	li	$2,1073741824			# 0x40000000

$LBB1120 = .
$LBB1121 = .
	.loc 2 2773 0
	lbu	$2,9($16)
	li	$4,1			# 0x1
	bne	$2,$4,$L681
	nop

	.loc 2 2775 0
	lhu	$4,6($16)
	andi	$4,$4,0x3fff
	bne	$4,$0,$L682
	move	$2,$0

	.loc 2 2777 0
	lw	$4,0($16)
	lhu	$5,2($16)
	ext	$4,$4,24,4
	sll	$4,$4,2
	subu	$4,$5,$4
	.loc 2 2778 0
	slt	$4,$4,4
	beq	$4,$0,$L682
	lui	$4,%hi(attack_saddr+88)

	.loc 2 2781 0
	lw	$6,12($16)
	.loc 2 2780 0
	lui	$2,%hi(LogFlag)
	lw	$5,%lo(LogFlag)($2)
	.loc 2 2781 0
	sw	$6,%lo(attack_saddr+88)($4)
	.loc 2 2782 0
	lw	$4,16($16)
	.loc 2 2780 0
	or	$3,$5,$3
	sw	$3,%lo(LogFlag)($2)
	.loc 2 2782 0
	lui	$2,%hi(attack_daddr+88)
	sw	$4,%lo(attack_daddr+88)($2)
$LBE1121 = .
$LBE1120 = .
$LBE1190 = .
$LBE1211 = .
	.loc 2 2783 0
	j	$L682
	li	$2,-1			# 0xffffffffffffffff

$L681:
$LBB1212 = .
$LBB1191 = .
$LBB1126 = .
$LBB1122 = .
	.loc 2 2789 0
	li	$3,17			# 0x11
	beq	$2,$3,$L683
	li	$3,8			# 0x8

	li	$3,6			# 0x6
	beq	$2,$3,$L684
	li	$3,20			# 0x14

$LBE1122 = .
$LBE1126 = .
$LBE1191 = .
$LBE1212 = .
	.loc 2 2806 0
	j	$L682
	move	$2,$0

$L731:
$LBB1213 = .
$LBB1192 = .
$LBB1127 = .
$LBB1123 = .
	.loc 2 2798 0
	slt	$3,$2,$3
	beq	$3,$0,$L682
	move	$2,$0

	.loc 2 2801 0
	lw	$4,12($16)
	.loc 2 2800 0
	lui	$2,%hi(LogFlag)
	lw	$5,%lo(LogFlag)($2)
	.loc 2 2801 0
	lui	$3,%hi(attack_saddr+88)
	sw	$4,%lo(attack_saddr+88)($3)
	.loc 2 2802 0
	lw	$3,16($16)
	.loc 2 2800 0
	li	$4,536870912			# 0x20000000
	or	$4,$5,$4
	sw	$4,%lo(LogFlag)($2)
	.loc 2 2802 0
	lui	$2,%hi(attack_daddr+88)
	sw	$3,%lo(attack_daddr+88)($2)
	.loc 2 2803 0
	li	$2,-1			# 0xffffffffffffffff
$L682:
$LBE1123 = .
$LBE1127 = .
	.loc 2 3391 0
	or	$18,$18,$2
	.loc 2 3392 0
	li	$2,1073741824			# 0x40000000
$L928:
	and	$3,$19,$2
	beq	$3,$0,$L685
	li	$5,1			# 0x1

$LBB1128 = .
$LBB1129 = .
	.loc 2 2813 0
	lw	$4,0($16)
	.loc 2 2814 0
	lbu	$6,9($16)
	.loc 2 2813 0
	ext	$4,$4,24,4
	.loc 2 2814 0
	bne	$6,$5,$L686
	move	$3,$0

	sll	$4,$4,2
	addu	$4,$16,$4
	lbu	$5,0($4)
	li	$4,8			# 0x8
	bne	$5,$4,$L686
	lui	$4,%hi(attack_saddr+92)

	.loc 2 2817 0
	lw	$6,12($16)
	.loc 2 2816 0
	lui	$3,%hi(LogFlag)
	lw	$5,%lo(LogFlag)($3)
	.loc 2 2817 0
	sw	$6,%lo(attack_saddr+92)($4)
	.loc 2 2818 0
	lw	$4,16($16)
	.loc 2 2816 0
	or	$2,$5,$2
	sw	$2,%lo(LogFlag)($3)
	.loc 2 2818 0
	lui	$2,%hi(attack_daddr+92)
	sw	$4,%lo(attack_daddr+92)($2)
	.loc 2 2819 0
	li	$3,-1			# 0xffffffffffffffff
$L686:
$LBE1129 = .
$LBE1128 = .
	.loc 2 3393 0
	or	$18,$18,$3
$L685:
	.loc 2 3394 0
	bgez	$19,$L687
	li	$4,1			# 0x1

$LBB1130 = .
$LBB1131 = .
	.loc 2 2912 0
	lw	$3,0($16)
	.loc 2 2913 0
	lbu	$5,9($16)
	.loc 2 2912 0
	ext	$3,$3,24,4
	.loc 2 2913 0
	bne	$5,$4,$L688
	move	$2,$0

	sll	$3,$3,2
	addu	$3,$16,$3
	lbu	$3,0($3)
	bne	$3,$0,$L688
	lui	$3,%hi(icmp_echo_request)

	.loc 2 2915 0
	lw	$3,%lo(icmp_echo_request)($3)
	bne	$3,$0,$L688
	lui	$3,%hi(attack_saddr+96)

	.loc 2 2918 0
	lw	$4,12($16)
	.loc 2 2917 0
	lui	$2,%hi(LogFlag)
	lw	$5,%lo(LogFlag)($2)
	.loc 2 2918 0
	sw	$4,%lo(attack_saddr+96)($3)
	.loc 2 2919 0
	lw	$3,16($16)
	.loc 2 2917 0
	li	$4,-2147483648			# 0xffffffff80000000
	or	$4,$5,$4
	sw	$4,%lo(LogFlag)($2)
	.loc 2 2919 0
	lui	$2,%hi(attack_daddr+96)
	sw	$3,%lo(attack_daddr+96)($2)
	.loc 2 2920 0
	li	$2,-1			# 0xffffffffffffffff
$L688:
$LBE1131 = .
$LBE1130 = .
	.loc 2 3395 0
	or	$18,$18,$2
$L687:
	.loc 2 3397 0
	andi	$2,$19,0x8000
	beq	$2,$0,$L689
	li	$3,6			# 0x6

$LBB1132 = .
$LBB1133 = .
	.loc 2 2930 0
	lbu	$4,9($16)
	bne	$4,$3,$L690
	move	$2,$0

	.loc 2 2932 0
	lbu	$4,13($20)
	lui	$3,%hi(_tcpDosScanBitmap)
	addiu	$3,$3,%lo(_tcpDosScanBitmap)
	andi	$4,$4,0x3f
	addu	$3,$4,$3
	lb	$3,0($3)
	beq	$3,$0,$L690
	lui	$3,%hi(attack_saddr+48)

	.loc 2 2935 0
	lw	$5,12($16)
	.loc 2 2934 0
	lui	$2,%hi(LogFlag)
	lw	$4,%lo(LogFlag)($2)
	.loc 2 2935 0
	sw	$5,%lo(attack_saddr+48)($3)
	.loc 2 2936 0
	lw	$3,16($16)
	.loc 2 2934 0
	ori	$4,$4,0x8000
	sw	$4,%lo(LogFlag)($2)
	.loc 2 2936 0
	lui	$2,%hi(attack_daddr+48)
	sw	$3,%lo(attack_daddr+48)($2)
	.loc 2 2937 0
	li	$2,-1			# 0xffffffffffffffff
$L690:
$LBE1133 = .
$LBE1132 = .
	.loc 2 3398 0
	or	$18,$18,$2
$L689:
	.loc 2 3399 0
	li	$2,65536			# 0x10000
	and	$3,$19,$2
	beq	$3,$0,$L691
	li	$4,6			# 0x6

$LBB1134 = .
$LBB1135 = .
	.loc 2 2697 0
	lbu	$5,9($16)
	bne	$5,$4,$L692
	move	$3,$0

	lbu	$5,13($20)
	li	$4,2			# 0x2
	andi	$5,$5,0x3f
	bne	$5,$4,$L692
	nop

$LBB1136 = .
	.loc 2 2699 0
	lw	$5,0($16)
	lw	$4,12($20)
	lhu	$6,2($16)
	ext	$5,$5,24,4
	sll	$5,$5,2
	srl	$4,$4,28
	subu	$5,$6,$5
	sll	$4,$4,2
	.loc 2 2700 0
	bne	$5,$4,$L914
	nop

	.loc 2 2707 0
	lhu	$4,6($16)
	andi	$4,$4,0x2000
	beq	$4,$0,$L692
	nop

$L914:
	.loc 2 2710 0
	lw	$6,12($16)
	.loc 2 2709 0
	lui	$3,%hi(LogFlag)
	lw	$5,%lo(LogFlag)($3)
	.loc 2 2710 0
	lui	$4,%hi(attack_saddr+52)
	sw	$6,%lo(attack_saddr+52)($4)
	.loc 2 2711 0
	lw	$4,16($16)
	.loc 2 2709 0
	or	$2,$5,$2
	sw	$2,%lo(LogFlag)($3)
	.loc 2 2711 0
	lui	$2,%hi(attack_daddr+52)
	sw	$4,%lo(attack_daddr+52)($2)
	.loc 2 2712 0
	li	$3,-1			# 0xffffffffffffffff
$L692:
$LBE1136 = .
$LBE1135 = .
$LBE1134 = .
	.loc 2 3400 0
	or	$18,$18,$3
$L691:
	.loc 2 3401 0
	andi	$2,$19,0x800
	beq	$2,$0,$L929
	ext	$2,$19,18,1

$LBE1192 = .
$LBE1213 = .
	.loc 2 3345 0
	lw	$3,12($16)
$LBB1214 = .
$LBB1193 = .
$LBB1137 = .
$LBB1138 = .
	.loc 2 2561 0
	lw	$4,16($16)
	bne	$3,$4,$L695
	move	$2,$0

	.loc 2 2563 0
	lui	$2,%hi(LogFlag)
	lw	$4,%lo(LogFlag)($2)
	.loc 2 2564 0
	lui	$5,%hi(attack_saddr+32)
	sw	$3,%lo(attack_saddr+32)($5)
	.loc 2 2565 0
	lw	$3,16($16)
	.loc 2 2563 0
	ori	$4,$4,0x800
	sw	$4,%lo(LogFlag)($2)
	.loc 2 2565 0
	lui	$2,%hi(attack_daddr+32)
	sw	$3,%lo(attack_daddr+32)($2)
	.loc 2 2566 0
	li	$2,-1			# 0xffffffffffffffff
$L695:
$LBE1138 = .
$LBE1137 = .
	.loc 2 3402 0
	or	$18,$18,$2
	.loc 2 3403 0
	ext	$2,$19,18,1
$L929:
	beq	$2,$0,$L930
	li	$2,131072			# 0x20000

$LBB1139 = .
$LBB1140 = .
	.loc 2 2740 0
	lbu	$2,9($16)
	li	$4,17			# 0x11
	bne	$2,$4,$L697
	move	$3,$0

	.loc 2 2742 0
	lhu	$5,2($20)
	li	$6,7			# 0x7
	beq	$5,$6,$L698
	li	$4,-3			# 0xfffffffffffffffd

	and	$5,$5,$4
	beq	$5,$2,$L698
	nop

	lhu	$5,0($20)
	beq	$5,$6,$L698
	and	$4,$5,$4

	bne	$4,$2,$L697
	nop

$L698:
	.loc 2 2745 0
	lw	$4,12($16)
	.loc 2 2744 0
	lui	$2,%hi(LogFlag)
	lw	$5,%lo(LogFlag)($2)
	.loc 2 2745 0
	lui	$3,%hi(attack_saddr+60)
	sw	$4,%lo(attack_saddr+60)($3)
	.loc 2 2746 0
	lw	$3,16($16)
	.loc 2 2744 0
	li	$4,262144			# 0x40000
	or	$4,$5,$4
	sw	$4,%lo(LogFlag)($2)
	.loc 2 2746 0
	lui	$2,%hi(attack_daddr+60)
	sw	$3,%lo(attack_daddr+60)($2)
	.loc 2 2747 0
	li	$3,-1			# 0xffffffffffffffff
$L697:
$LBE1140 = .
$LBE1139 = .
	.loc 2 3404 0
	or	$18,$18,$3
	.loc 2 3405 0
	li	$2,131072			# 0x20000
$L930:
	and	$3,$19,$2
	beq	$3,$0,$L699
	li	$4,17			# 0x11

$LBB1141 = .
$LBB1142 = .
	.loc 2 2676 0
	lbu	$5,9($16)
	bne	$5,$4,$L700
	move	$3,$0

	.loc 2 2678 0
	lhu	$4,6($16)
	andi	$4,$4,0x3fff
	bne	$4,$0,$L700
	nop

	.loc 2 2680 0
	lw	$5,0($16)
	lhu	$6,2($16)
	.loc 2 2681 0
	lhu	$4,4($20)
	.loc 2 2680 0
	ext	$5,$5,24,4
	sll	$5,$5,2
	subu	$5,$6,$5
	.loc 2 2681 0
	slt	$4,$4,$5
	beq	$4,$0,$L700
	lui	$4,%hi(attack_saddr+56)

	.loc 2 2684 0
	lw	$6,12($16)
	.loc 2 2683 0
	lui	$3,%hi(LogFlag)
	lw	$5,%lo(LogFlag)($3)
	.loc 2 2684 0
	sw	$6,%lo(attack_saddr+56)($4)
	.loc 2 2685 0
	lw	$4,16($16)
	.loc 2 2683 0
	or	$2,$5,$2
	sw	$2,%lo(LogFlag)($3)
	.loc 2 2685 0
	lui	$2,%hi(attack_daddr+56)
	sw	$4,%lo(attack_daddr+56)($2)
	.loc 2 2686 0
	li	$3,-1			# 0xffffffffffffffff
$L700:
$LBE1142 = .
$LBE1141 = .
	.loc 2 3406 0
	or	$18,$18,$3
$L699:
	.loc 2 3407 0
	andi	$2,$19,0x4000
	beq	$2,$0,$L701
	nop

$LBB1143 = .
$LBB1144 = .
	.loc 2 2721 0
	lhu	$3,6($16)
	.loc 2 2724 0
	andi	$4,$3,0x2000
	bne	$4,$0,$L702
	move	$2,$0

	andi	$3,$3,0x1fff
	beq	$3,$0,$L702
	sll	$5,$3,3

	.loc 2 2727 0
	lw	$6,0($16)
	lhu	$4,2($16)
	ext	$3,$6,24,4
	sll	$3,$3,2
	addu	$4,$5,$4
	subu	$4,$4,$3
	.loc 2 2728 0
	li	$3,65536			# 0x10000
	sltu	$3,$4,$3
	bne	$3,$0,$L702
	lui	$3,%hi(attack_saddr+44)

	.loc 2 2731 0
	lw	$5,12($16)
	.loc 2 2730 0
	lui	$2,%hi(LogFlag)
	lw	$4,%lo(LogFlag)($2)
	.loc 2 2731 0
	sw	$5,%lo(attack_saddr+44)($3)
	.loc 2 2732 0
	lw	$3,16($16)
	.loc 2 2730 0
	ori	$4,$4,0x4000
	sw	$4,%lo(LogFlag)($2)
	.loc 2 2732 0
	lui	$2,%hi(attack_daddr+44)
	sw	$3,%lo(attack_daddr+44)($2)
	.loc 2 2733 0
	li	$2,-1			# 0xffffffffffffffff
$L702:
$LBE1144 = .
$LBE1143 = .
	.loc 2 3408 0
	or	$18,$18,$2
$L701:
	.loc 2 3409 0
	andi	$2,$19,0x400
	beq	$2,$0,$L703
	li	$4,1			# 0x1

$LBB1145 = .
$LBB1146 = .
	.loc 2 2545 0
	lw	$3,0($16)
	.loc 2 2546 0
	lbu	$5,9($16)
	.loc 2 2545 0
	ext	$3,$3,24,4
	.loc 2 2546 0
	bne	$5,$4,$L704
	move	$2,$0

	sll	$3,$3,2
	addu	$3,$16,$3
	lbu	$4,0($3)
	li	$3,8			# 0x8
	bne	$4,$3,$L704
	lui	$4,%hi(lan_addr)

	.loc 2 2548 0
	lw	$5,%lo(lan_addr)($4)
	lw	$3,12($16)
	lui	$4,%hi(lan_mask)
	lw	$4,%lo(lan_mask)($4)
	xor	$5,$3,$5
	and	$4,$5,$4
	bne	$4,$0,$L704
	lui	$5,%hi(attack_saddr+28)

	.loc 2 2550 0
	lui	$2,%hi(LogFlag)
	lw	$4,%lo(LogFlag)($2)
	.loc 2 2551 0
	sw	$3,%lo(attack_saddr+28)($5)
	.loc 2 2552 0
	lw	$3,16($16)
	.loc 2 2550 0
	ori	$4,$4,0x400
	sw	$4,%lo(LogFlag)($2)
	.loc 2 2552 0
	lui	$2,%hi(attack_daddr+28)
	sw	$3,%lo(attack_daddr+28)($2)
	.loc 2 2553 0
	li	$2,-1			# 0xffffffffffffffff
$L704:
$LBE1146 = .
$LBE1145 = .
	.loc 2 3410 0
	or	$18,$18,$2
$L703:
	.loc 2 3411 0
	li	$2,524288			# 0x80000
	and	$3,$19,$2
	beq	$3,$0,$L705
	li	$4,17			# 0x11

$LBB1147 = .
$LBB1148 = .
	.loc 2 2595 0
	lbu	$5,9($16)
	bne	$5,$4,$L706
	move	$3,$0

	.loc 2 2596 0
	lui	$5,%hi(lan_addr)
	lw	$6,%lo(lan_addr)($5)
	lw	$4,12($16)
	lui	$5,%hi(lan_mask)
	lw	$5,%lo(lan_mask)($5)
	xor	$6,$4,$6
	and	$5,$6,$5
	bne	$5,$0,$L706
	lui	$6,%hi(attack_saddr+64)

	.loc 2 2597 0
	lui	$3,%hi(LogFlag)
	lw	$5,%lo(LogFlag)($3)
	.loc 2 2598 0
	sw	$4,%lo(attack_saddr+64)($6)
	.loc 2 2599 0
	lw	$4,16($16)
	.loc 2 2597 0
	or	$2,$5,$2
	sw	$2,%lo(LogFlag)($3)
	.loc 2 2599 0
	lui	$2,%hi(attack_daddr+64)
	sw	$4,%lo(attack_daddr+64)($2)
	.loc 2 2600 0
	li	$3,-1			# 0xffffffffffffffff
$L706:
$LBE1148 = .
$LBE1147 = .
	.loc 2 3412 0
	or	$18,$18,$3
$L705:
	.loc 2 3413 0
	ext	$2,$19,24,1
	beq	$2,$0,$L931
	ext	$2,$19,25,1

$LBB1149 = .
$LBB1150 = .
	.loc 2 2578 0
	lw	$2,0($16)
	.loc 2 2580 0
	lbu	$5,9($16)
	li	$4,1			# 0x1
	.loc 2 2578 0
	ext	$2,$2,24,4
	.loc 2 2580 0
	bne	$5,$4,$L708
	move	$3,$0

	sll	$2,$2,2
	addu	$2,$16,$2
	lbu	$2,0($2)
	andi	$2,$2,0xf7
	bne	$2,$0,$L708
	nop

	.loc 2 2581 0
	lw	$2,12($16)
$LBB1151 = .
$LBB1152 = .
	.file 10 "include/linux/in.h"
	.loc 10 49 0
	li	$5,-268435456			# 0xfffffffff0000000
$LBE1152 = .
$LBE1151 = .
	.loc 2 2581 0
	li	$4,-536870912			# 0xffffffffe0000000
$LBB1154 = .
$LBB1153 = .
	.loc 10 49 0
	and	$5,$2,$5
$LBE1153 = .
$LBE1154 = .
	.loc 2 2581 0
	beq	$5,$4,$L709
	li	$4,-1			# 0xffffffffffffffff

	beq	$2,$4,$L709
	andi	$4,$2,0x1

	beq	$4,$0,$L708
	nop

$L709:
	.loc 2 2582 0
	lui	$3,%hi(LogFlag)
	lw	$5,%lo(LogFlag)($3)
	.loc 2 2583 0
	lui	$4,%hi(attack_saddr+68)
	sw	$2,%lo(attack_saddr+68)($4)
	.loc 2 2584 0
	lw	$4,16($16)
	.loc 2 2582 0
	li	$2,16777216			# 0x1000000
	or	$2,$5,$2
	sw	$2,%lo(LogFlag)($3)
	.loc 2 2584 0
	lui	$2,%hi(attack_daddr+68)
	sw	$4,%lo(attack_daddr+68)($2)
	.loc 2 2585 0
	li	$3,-1			# 0xffffffffffffffff
$L708:
$LBE1150 = .
$LBE1149 = .
	.loc 2 3414 0
	or	$18,$18,$3
	.loc 2 3415 0
	ext	$2,$19,25,1
$L931:
	beq	$2,$0,$L710
	nop

$LBB1155 = .
$LBB1156 = .
	.loc 2 2611 0
	lbu	$4,9($16)
	li	$3,17			# 0x11
	bne	$4,$3,$L711
	move	$2,$0

	.loc 2 2612 0
	lhu	$3,0($20)
	li	$4,7			# 0x7
	andi	$5,$3,0xff7f
	beq	$5,$4,$L712
	li	$4,19			# 0x13

	bne	$3,$4,$L711
	nop

$L712:
	.loc 2 2613 0
	lhu	$4,2($20)
	li	$3,135			# 0x87
	bne	$4,$3,$L711
	move	$2,$0

	.loc 2 2615 0
	lw	$4,12($16)
	.loc 2 2614 0
	lui	$2,%hi(LogFlag)
	lw	$5,%lo(LogFlag)($2)
	.loc 2 2615 0
	lui	$3,%hi(attack_saddr+72)
	sw	$4,%lo(attack_saddr+72)($3)
	.loc 2 2616 0
	lw	$3,16($16)
	.loc 2 2614 0
	li	$4,33554432			# 0x2000000
	or	$4,$5,$4
	sw	$4,%lo(LogFlag)($2)
	.loc 2 2616 0
	lui	$2,%hi(attack_daddr+72)
	sw	$3,%lo(attack_daddr+72)($2)
	.loc 2 2617 0
	li	$2,-1			# 0xffffffffffffffff
$L711:
$LBE1156 = .
$LBE1155 = .
	.loc 2 3416 0
	or	$18,$18,$2
$L710:
	.loc 2 3417 0
	ext	$2,$19,26,1
	beq	$2,$0,$L932
	li	$2,134217728			# 0x8000000

$LBB1157 = .
$LBB1158 = .
	.loc 2 2630 0
	lbu	$4,9($16)
	li	$2,6			# 0x6
	bne	$4,$2,$L714
	move	$3,$0

	.loc 2 2631 0
	lbu	$2,13($20)
	andi	$4,$2,0x17
	beq	$4,$0,$L715
	andi	$5,$2,0x3

	li	$4,3			# 0x3
	beq	$5,$4,$L715
	andi	$2,$2,0x11

	.loc 2 2632 0
	li	$4,1			# 0x1
	bne	$2,$4,$L714
	nop

$L715:
	.loc 2 2634 0
	lw	$4,12($16)
	.loc 2 2633 0
	lui	$2,%hi(LogFlag)
	lw	$5,%lo(LogFlag)($2)
	.loc 2 2634 0
	lui	$3,%hi(attack_saddr+76)
	sw	$4,%lo(attack_saddr+76)($3)
	.loc 2 2635 0
	lw	$3,16($16)
	.loc 2 2633 0
	li	$4,67108864			# 0x4000000
	or	$4,$5,$4
	sw	$4,%lo(LogFlag)($2)
	.loc 2 2635 0
	lui	$2,%hi(attack_daddr+76)
	sw	$3,%lo(attack_daddr+76)($2)
	.loc 2 2636 0
	li	$3,-1			# 0xffffffffffffffff
$L714:
$LBE1158 = .
$LBE1157 = .
	.loc 2 3418 0
	or	$18,$18,$3
	.loc 2 3419 0
	li	$2,134217728			# 0x8000000
$L932:
	and	$3,$19,$2
	beq	$3,$0,$L716
	nop

$LBB1159 = .
$LBB1160 = .
	.loc 2 2649 0
	lbu	$5,9($16)
	li	$4,6			# 0x6
	bne	$5,$4,$L717
	move	$3,$0

	lbu	$4,13($20)
	andi	$4,$4,0x1
	beq	$4,$0,$L717
	nop

	.loc 2 2651 0
	lw	$6,12($16)
	.loc 2 2650 0
	lui	$3,%hi(LogFlag)
	lw	$5,%lo(LogFlag)($3)
	.loc 2 2651 0
	lui	$4,%hi(attack_saddr+80)
	sw	$6,%lo(attack_saddr+80)($4)
	.loc 2 2652 0
	lw	$4,16($16)
	.loc 2 2650 0
	or	$2,$5,$2
	sw	$2,%lo(LogFlag)($3)
	.loc 2 2652 0
	lui	$2,%hi(attack_daddr+80)
	sw	$4,%lo(attack_daddr+80)($2)
	.loc 2 2653 0
	li	$3,-1			# 0xffffffffffffffff
$L717:
$LBE1160 = .
$LBE1159 = .
	.loc 2 3420 0
	or	$18,$18,$3
$L716:
	.loc 2 3421 0
	ext	$2,$19,28,1
	beq	$2,$0,$L933
	andi	$2,$19,0x1000

$LBE1193 = .
$LBE1214 = .
	.loc 2 3345 0
	lw	$2,12($16)
$LBB1215 = .
$LBB1194 = .
$LBB1161 = .
$LBB1162 = .
$LBB1163 = .
$LBB1164 = .
	.loc 10 49 0
	li	$4,-268435456			# 0xfffffffff0000000
$LBE1164 = .
$LBE1163 = .
	.loc 2 2661 0
	li	$3,-536870912			# 0xffffffffe0000000
$LBB1166 = .
$LBB1165 = .
	.loc 10 49 0
	and	$4,$2,$4
$LBE1165 = .
$LBE1166 = .
	.loc 2 2661 0
	beq	$4,$3,$L719
	li	$3,-1			# 0xffffffffffffffff

	beq	$2,$3,$L719
	andi	$4,$2,0x1

	beq	$4,$0,$L720
	move	$3,$0

$L719:
	.loc 2 2662 0
	lui	$3,%hi(LogFlag)
	lw	$5,%lo(LogFlag)($3)
	.loc 2 2663 0
	lui	$4,%hi(attack_saddr+84)
	sw	$2,%lo(attack_saddr+84)($4)
	.loc 2 2664 0
	lw	$4,16($16)
	.loc 2 2662 0
	li	$2,268435456			# 0x10000000
	or	$2,$5,$2
	sw	$2,%lo(LogFlag)($3)
	.loc 2 2664 0
	lui	$2,%hi(attack_daddr+84)
	sw	$4,%lo(attack_daddr+84)($2)
	.loc 2 2665 0
	li	$3,-1			# 0xffffffffffffffff
$L720:
$LBE1162 = .
$LBE1161 = .
	.loc 2 3422 0
	or	$18,$18,$3
	.loc 2 3423 0
	andi	$2,$19,0x1000
$L933:
	beq	$2,$0,$L721
	nop

$LBB1167 = .
$LBB1168 = .
	.loc 2 2532 0
	lui	$2,%hi(lan_addr)
	lw	$5,%lo(lan_addr)($2)
	lw	$3,12($16)
	lui	$2,%hi(lan_mask)
	lw	$4,%lo(lan_mask)($2)
	xor	$5,$3,$5
	and	$4,$5,$4
	bne	$4,$0,$L722
	move	$2,$0

	lbu	$5,9($16)
	li	$4,1			# 0x1
	beq	$5,$4,$L722
	nop

	.loc 2 2534 0
	lui	$2,%hi(LogFlag)
	lw	$4,%lo(LogFlag)($2)
	.loc 2 2535 0
	lui	$5,%hi(attack_saddr+36)
	sw	$3,%lo(attack_saddr+36)($5)
	.loc 2 2536 0
	lw	$3,16($16)
	.loc 2 2534 0
	ori	$4,$4,0x1000
	sw	$4,%lo(LogFlag)($2)
	.loc 2 2536 0
	lui	$2,%hi(attack_daddr+36)
	sw	$3,%lo(attack_daddr+36)($2)
	.loc 2 2537 0
	li	$2,-1			# 0xffffffffffffffff
$L722:
$LBE1168 = .
$LBE1167 = .
	.loc 2 3424 0
	or	$18,$18,$2
$L721:
	.loc 2 3425 0
	andi	$19,$19,0x2000
	beq	$19,$0,$L723
	nop

$LBB1169 = .
$LBB1170 = .
	.loc 2 2945 0
	jal	dos_pkt_locate.isra.5
	lw	$4,12($16)

	beq	$2,$0,$L724
	nop

	.loc 2 2946 0
	lui	$2,%hi(cur_p_pkt)
	lw	$3,%lo(cur_p_pkt)($2)
	.loc 2 2949 0
	lhu	$6,4($16)
	lhu	$4,32($3)
	beq	$6,$4,$L725
	nop

	bne	$4,$0,$L724
	move	$2,$0

$L725:
	.loc 2 2952 0
	lhu	$4,6($16)
	andi	$5,$4,0x3fff
	beq	$5,$0,$L724
	move	$2,$0

	.loc 2 2954 0
	lhu	$5,34($3)
	sll	$7,$4,3
	andi	$7,$7,0xffff
	slt	$7,$7,$5
	bne	$7,$0,$L726
	andi	$4,$4,0x2000

	.loc 2 2956 0
	bne	$4,$0,$L727
	nop

	.loc 2 2958 0
	sh	$0,32($3)
$LBE1170 = .
$LBE1169 = .
$LBE1194 = .
$LBE1215 = .
	.loc 2 2959 0
	j	$L724
	sh	$0,34($3)

$L727:
$LBB1216 = .
$LBB1195 = .
$LBB1173 = .
$LBB1171 = .
	.loc 2 2963 0
	sh	$6,32($3)
	.loc 2 2964 0
	lw	$4,0($16)
	lhu	$6,2($16)
	ext	$4,$4,24,4
	addu	$5,$5,$6
	sll	$4,$4,2
	subu	$4,$5,$4
$LBE1171 = .
$LBE1173 = .
$LBE1195 = .
$LBE1216 = .
	j	$L724
	sh	$4,34($3)

$L726:
$LBB1217 = .
$LBB1196 = .
$LBB1174 = .
$LBB1172 = .
	.loc 2 2970 0
	lw	$5,12($16)
	.loc 2 2969 0
	lui	$2,%hi(LogFlag)
	lw	$4,%lo(LogFlag)($2)
	.loc 2 2970 0
	lui	$3,%hi(attack_saddr+40)
	sw	$5,%lo(attack_saddr+40)($3)
	.loc 2 2971 0
	lw	$3,16($16)
	.loc 2 2969 0
	ori	$4,$4,0x2000
	sw	$4,%lo(LogFlag)($2)
	.loc 2 2971 0
	lui	$2,%hi(attack_daddr+40)
	sw	$3,%lo(attack_daddr+40)($2)
	.loc 2 2972 0
	li	$2,-1			# 0xffffffffffffffff
$L724:
$LBE1172 = .
$LBE1174 = .
	.loc 2 3426 0
	or	$18,$18,$2
$L723:
	.loc 2 3428 0
	bne	$18,$0,$L905
	move	$16,$0

$L621:
$LBE1196 = .
$LBE1217 = .
	.loc 2 3852 0
	jal	rtl_ip_hdr
	move	$4,$17

	lbu	$3,9($2)
	li	$2,1			# 0x1
	beq	$3,$2,$L615
	lui	$2,%hi(none_dos_drop_pkt_cnt)

$L922:
	.loc 2 3864 0
	lw	$3,%lo(none_dos_drop_pkt_cnt)($2)
	.loc 2 3867 0
	li	$16,1			# 0x1
	.loc 2 3864 0
	addiu	$3,$3,1
	.loc 2 3867 0
	j	$L905
	sw	$3,%lo(none_dos_drop_pkt_cnt)($2)

$L654:
$LBB1218 = .
$LBB1197 = .
$LBB1175 = .
$LBB1102 = .
	.loc 2 2989 0
	lhu	$4,2($20)
	lw	$2,24($3)
	sh	$4,36($3)
	j	$L653
	lbu	$4,9($16)

$L657:
	.loc 2 2996 0
	lhu	$4,2($20)
$LBE1102 = .
$LBE1175 = .
$LBE1197 = .
$LBE1218 = .
	j	$L656
	sh	$4,36($3)

$L659:
$LBB1219 = .
$LBB1198 = .
$LBB1176 = .
$LBB1103 = .
	.loc 2 3005 0
	slt	$2,$2,201
	beq	$2,$0,$L729
	ext	$2,$19,22,1

	j	$L921
	nop

$L683:
$LBE1103 = .
$LBE1176 = .
$LBB1177 = .
$LBB1124 = .
	.loc 2 2791 0
	lw	$2,0($16)
	lhu	$4,2($16)
	ext	$2,$2,24,4
	sll	$2,$2,2
$LBE1124 = .
$LBE1177 = .
$LBE1198 = .
$LBE1219 = .
	j	$L731
	subu	$2,$4,$2

$L684:
$LBB1220 = .
$LBB1199 = .
$LBB1178 = .
$LBB1125 = .
	lw	$2,0($16)
	lhu	$4,2($16)
	ext	$2,$2,24,4
	sll	$2,$2,2
$LBE1125 = .
$LBE1178 = .
$LBE1199 = .
$LBE1220 = .
	j	$L731
	subu	$2,$4,$2

$L905:
	.loc 2 3868 0
	lw	$31,44($sp)
$L919:
	move	$2,$16
	lw	$21,40($sp)
	lw	$20,36($sp)
	lw	$19,32($sp)
	lw	$18,28($sp)
	lw	$17,24($sp)
	lw	$16,20($sp)
	j	$31
	addiu	$sp,$sp,48

	.cfi_def_cfa_offset 0
	.cfi_restore 16
	.cfi_restore 17
	.cfi_restore 18
	.cfi_restore 19
	.cfi_restore 20
	.cfi_restore 21
	.cfi_restore 31
	.set	macro
	.set	reorder
	.end	filter_enter
	.cfi_endproc
$LFE3378:
	.size	filter_enter, .-filter_enter
	.align	2
	.globl	filter_out
$LFB3379 = .
	.loc 2 3871 0
	.cfi_startproc
	.set	nomips16
	.ent	filter_out
	.type	filter_out, @function
filter_out:
	.frame	$sp,24,$31		# vars= 0, regs= 1/0, args= 16, gp= 0
	.mask	0x80000000,-4
	.fmask	0x00000000,0
	.set	noreorder
	.set	nomacro
	addiu	$sp,$sp,-24
	.cfi_def_cfa_offset 24
	sw	$31,20($sp)
	.cfi_offset 31, -4
	.loc 2 3874 0
	jal	rtl_ip_hdr
	nop

	.loc 2 3875 0
	lw	$4,0($2)
	.loc 2 3876 0
	lbu	$3,9($2)
	.loc 2 3875 0
	ext	$5,$4,24,4
	.loc 2 3876 0
	li	$4,1			# 0x1
	bne	$3,$4,$L938
	lw	$31,20($sp)

	.loc 2 3876 0 is_stmt 0 discriminator 1
	sll	$5,$5,2
	addu	$2,$2,$5
	lbu	$4,0($2)
	li	$2,8			# 0x8
	bne	$4,$2,$L939
	move	$2,$0

	.loc 2 3878 0 is_stmt 1
	lui	$2,%hi(jiffies)
	lw	$4,%lo(jiffies)($2)
	lui	$2,%hi(icmp_echo_request_time)
	sw	$4,%lo(icmp_echo_request_time)($2)
	.loc 2 3879 0
	lui	$2,%hi(icmp_echo_request)
	sw	$3,%lo(icmp_echo_request)($2)
	.loc 2 3882 0
	lw	$31,20($sp)
$L938:
	move	$2,$0
$L939:
	j	$31
	addiu	$sp,$sp,24

	.cfi_def_cfa_offset 0
	.cfi_restore 31
	.set	macro
	.set	reorder
	.end	filter_out
	.cfi_endproc
$LFE3379:
	.size	filter_out, .-filter_out
	.section	.rodata.str1.4
	.align	2
$LC35:
	.ascii	"enable_dos\000"
	.section	.init.text,"ax",@progbits
	.align	2
	.globl	filter_init
$LFB3380 = .
	.loc 2 3908 0
	.cfi_startproc
	.set	nomips16
	.ent	filter_init
	.type	filter_init, @function
filter_init:
	.frame	$sp,32,$31		# vars= 0, regs= 2/0, args= 24, gp= 0
	.mask	0x80010000,-4
	.fmask	0x00000000,0
	.set	noreorder
	.set	nomacro
	.loc 2 3911 0
	lui	$2,%hi(item)
	.loc 2 3908 0
	addiu	$sp,$sp,-32
	.cfi_def_cfa_offset 32
	.loc 2 3911 0
	sw	$0,%lo(item)($2)
	.loc 2 3940 0
	lui	$4,%hi($LC35)
	.loc 2 3912 0
	lui	$2,%hi(none_dos_drop_pkt_cnt)
	.loc 2 3940 0
	lui	$6,%hi(proc_root)
	lui	$7,%hi(dos_proc_fops)
	addiu	$4,$4,%lo($LC35)
	.loc 2 3908 0
	sw	$16,24($sp)
	.loc 2 3940 0
	move	$5,$0
	.cfi_offset 16, -8
	.loc 2 3949 0
	lui	$16,%hi(dos_timer)
	.loc 2 3940 0
	addiu	$6,$6,%lo(proc_root)
	addiu	$7,$7,%lo(dos_proc_fops)
	sw	$0,16($sp)
	.loc 2 3912 0
	sw	$0,%lo(none_dos_drop_pkt_cnt)($2)
	.loc 2 3917 0
	lui	$2,%hi(url_count)
	.loc 2 3908 0
	sw	$31,28($sp)
	.cfi_offset 31, -4
	.loc 2 3940 0
	jal	proc_create_data
	sb	$0,%lo(url_count)($2)

	.loc 2 3949 0
	move	$7,$0
	move	$6,$0
	addiu	$4,$16,%lo(dos_timer)
	.loc 2 3940 0
	lui	$3,%hi(res3)
	.loc 2 3949 0
	move	$5,$0
	jal	init_timer_key
	sw	$2,%lo(res3)($3)

	.loc 2 3950 0
	lui	$2,%hi(jiffies)
	lw	$3,%lo(jiffies)($2)
	.loc 2 3953 0
	lw	$5,%lo(jiffies)($2)
	.loc 2 3950 0
	addiu	$2,$16,%lo(dos_timer)
	addiu	$3,$3,100
	sw	$3,8($2)
	.loc 2 3952 0
	lui	$3,%hi(dos_timer_fn)
	addiu	$3,$3,%lo(dos_timer_fn)
$LBB1221 = .
	.loc 2 3955 0
	lui	$16,%hi(_tcpDosScanBitmap)
$LBE1221 = .
	.loc 2 3953 0
	move	$4,$2
	addiu	$5,$5,100
	.loc 2 3952 0
	sw	$3,16($2)
	.loc 2 3953 0
	jal	mod_timer
	sw	$0,20($2)

$LBB1222 = .
	.loc 2 3955 0
	addiu	$4,$16,%lo(_tcpDosScanBitmap)
	move	$5,$0
	jal	memset
	li	$6,64			# 0x40

$LBE1222 = .
	.loc 2 3956 0
	li	$2,1			# 0x1
	addiu	$3,$16,%lo(_tcpDosScanBitmap)
	sb	$2,63($3)
	sb	$2,58($3)
	sb	$2,41($3)
	sb	$2,40($3)
	sb	$2,33($3)
	sb	$2,32($3)
	sb	$2,9($3)
	sb	$2,8($3)
	sb	$2,3($3)
	sb	$2,%lo(_tcpDosScanBitmap)($16)
$LBB1223 = .
$LBB1224 = .
	.loc 1 1652 0
	li	$3,1			# 0x1
	lui	$2,%hi(filter_rule_num)
	.loc 1 1653 0
	jal	filter_table_init
	sw	$3,%lo(filter_rule_num)($2)

$LBE1224 = .
$LBE1223 = .
	.loc 2 3977 0
	jal	igmp_delete_init_netlink
	nop

	.loc 2 3982 0
	lw	$31,28($sp)
	lw	$16,24($sp)
	move	$2,$0
	j	$31
	addiu	$sp,$sp,32

	.cfi_def_cfa_offset 0
	.cfi_restore 16
	.cfi_restore 31
	.set	macro
	.set	reorder
	.end	filter_init
	.cfi_endproc
$LFE3380:
	.size	filter_init, .-filter_init
	.section	.exit.text,"ax",@progbits
	.align	2
	.globl	filter_exit
$LFB3381 = .
	.loc 2 3985 0
	.cfi_startproc
	.set	nomips16
	.ent	filter_exit
	.type	filter_exit, @function
filter_exit:
	.frame	$sp,24,$31		# vars= 0, regs= 2/0, args= 16, gp= 0
	.mask	0x80010000,-4
	.fmask	0x00000000,0
	.set	noreorder
	.set	nomacro
	addiu	$sp,$sp,-24
	.cfi_def_cfa_offset 24
	sw	$16,16($sp)
	.cfi_offset 16, -8
	.loc 2 3988 0
	lui	$16,%hi(res3)
	lw	$5,%lo(res3)($16)
	.loc 2 3988 0
	beq	$5,$0,$L943
	sw	$31,20($sp)

	.cfi_offset 31, -4
	.loc 2 3989 0
	lui	$4,%hi($LC35)
	jal	remove_proc_entry
	addiu	$4,$4,%lo($LC35)

	.loc 2 3990 0
	sw	$0,%lo(res3)($16)
$L943:
	.loc 2 3992 0
	lui	$4,%hi(dos_timer)
	jal	del_timer_sync
	addiu	$4,$4,%lo(dos_timer)

	.loc 2 4001 0
	lw	$31,20($sp)
	lw	$16,16($sp)
	.cfi_restore 16
	.cfi_restore 31
	.loc 2 3997 0
	j	filter_exit_fastpath
	addiu	$sp,$sp,24

	.cfi_def_cfa_offset 0
	.set	macro
	.set	reorder
	.end	filter_exit
	.cfi_endproc
$LFE3381:
	.size	filter_exit, .-filter_exit
	.local	res3
	.comm	res3,4,4
	.globl	fast_path_cusRspTCPEndAck_func
	.section	.bss,"aw",@nobits
	.align	2
	.type	fast_path_cusRspTCPEndAck_func, @object
	.size	fast_path_cusRspTCPEndAck_func, 4
fast_path_cusRspTCPEndAck_func:
	.space	4
	.globl	fast_path_cusRspTCPFinAck_func
	.align	2
	.type	fast_path_cusRspTCPFinAck_func, @object
	.size	fast_path_cusRspTCPFinAck_func, 4
fast_path_cusRspTCPFinAck_func:
	.space	4
	.globl	fast_path_cusRsp401_func
	.align	2
	.type	fast_path_cusRsp401_func, @object
	.size	fast_path_cusRsp401_func, 4
fast_path_cusRsp401_func:
	.space	4
	.globl	dos_proc_fops
	.data
	.align	2
	.type	dos_proc_fops, @object
	.size	dos_proc_fops, 108
dos_proc_fops:
	.space	4
	.word	seq_lseek
	.word	seq_read
	.word	dos_single_write
	.space	28
	.word	dos_single_open
	.space	4
	.word	single_release
	.space	52
	.local	ip_name1
	.comm	ip_name1,16,4
	.local	ip_name0
	.comm	ip_name0,16,4
	.globl	___strtok
	.section	.bss
	.align	2
	.type	___strtok, @object
	.size	___strtok, 4
___strtok:
	.space	4
	.local	icmp_echo_request_time
	.comm	icmp_echo_request_time,4,4
	.local	icmp_echo_request
	.comm	icmp_echo_request,4,4
	.local	endStateClientSeq
	.comm	endStateClientSeq,4,4
	.local	endStateClientPort
	.comm	endStateClientPort,2,2
	.local	finStateClientSeq
	.comm	finStateClientSeq,4,4
	.local	finStateClientPort
	.comm	finStateClientPort,2,2
	.local	url_count
	.comm	url_count,1,1
	.globl	wan_ppp_dev
	.align	2
	.type	wan_ppp_dev, @object
	.size	wan_ppp_dev, 4
wan_ppp_dev:
	.space	4
	.globl	wan_dev
	.align	2
	.type	wan_dev, @object
	.size	wan_dev, 4
wan_dev:
	.space	4
	.local	item_backup
	.comm	item_backup,4,4
	.local	none_dos_drop_pkt_cnt
	.comm	none_dos_drop_pkt_cnt,4,4
	.local	dos_flag
	.comm	dos_flag,80,4
	.local	attack_daddr
	.comm	attack_daddr,108,4
	.local	attack_saddr
	.comm	attack_saddr,108,4
	.local	lan_mask
	.comm	lan_mask,4,4
	.local	lan_addr
	.comm	lan_addr,4,4
	.local	item_0
	.comm	item_0,4,4
	.local	item
	.comm	item,4,4
	.local	block_count
	.comm	block_count,4,4
	.local	block_time
	.comm	block_time,4,4
	.local	block
	.comm	block,4,4
	.local	per_icmp_threshold
	.comm	per_icmp_threshold,4,4
	.local	per_udp_threshold
	.comm	per_udp_threshold,4,4
	.local	per_fin_threshold
	.comm	per_fin_threshold,4,4
	.local	per_syn_threshold
	.comm	per_syn_threshold,4,4
	.local	whole_icmp_threshold
	.comm	whole_icmp_threshold,4,4
	.local	whole_udp_threshold
	.comm	whole_udp_threshold,4,4
	.local	whole_fin_threshold
	.comm	whole_fin_threshold,4,4
	.local	whole_syn_threshold
	.comm	whole_syn_threshold,4,4
	.local	op_mode
	.comm	op_mode,1,1
	.local	_tcpDosScanBitmap
	.comm	_tcpDosScanBitmap,64,4
	.local	dos_timer
	.comm	dos_timer,28,4
	.local	cur_p_pkt
	.comm	cur_p_pkt,4,4
	.local	dos_pkt
	.comm	dos_pkt,40960,4
	.local	ConnectedIp
	.comm	ConnectedIp,1024,4
	.local	LogFlag
	.comm	LogFlag,4,4
	.local	url_cache
	.comm	url_cache,20,4
	.local	block_message
	.comm	block_message,4,4
	.section	.rodata.str1.4
	.align	2
$LC36:
	.ascii	"NULL\000"
	.align	2
$LC37:
	.ascii	"PerSynFlood\000"
	.align	2
$LC38:
	.ascii	"PerFinFlood\000"
	.align	2
$LC39:
	.ascii	"PerUdpFlood\000"
	.align	2
$LC40:
	.ascii	"PerIcmpFlood\000"
	.align	2
$LC41:
	.ascii	"PerPingFlood\000"
	.align	2
$LC42:
	.ascii	"TcpUdpPortScan\000"
	.align	2
$LC43:
	.ascii	"IcmpSmurf\000"
	.align	2
$LC44:
	.ascii	"IpLand\000"
	.align	2
$LC45:
	.ascii	"IpSpoof\000"
	.align	2
$LC46:
	.ascii	"TearDrop\000"
	.align	2
$LC47:
	.ascii	"PingOfDeath\000"
	.align	2
$LC48:
	.ascii	"TcpScan\000"
	.align	2
$LC49:
	.ascii	"TcpSynWithData\000"
	.align	2
$LC50:
	.ascii	"UdpBomb\000"
	.align	2
$LC51:
	.ascii	"UdpEchoChargen\000"
	.align	2
$LC52:
	.ascii	"UdpFraggle\000"
	.align	2
$LC53:
	.ascii	"IcmpEchoStorm\000"
	.align	2
$LC54:
	.ascii	"UdpSnorkAttack\000"
	.align	2
$LC55:
	.ascii	"TcpInvalidFlags\000"
	.align	2
$LC56:
	.ascii	"TcpRstAttack\000"
	.align	2
$LC57:
	.ascii	"BcMcSrcIpAttack\000"
	.align	2
$LC58:
	.ascii	"ShortIpPkt\000"
	.align	2
$LC59:
	.ascii	"IcmpPingSweep\000"
	.align	2
$LC60:
	.ascii	"IcmpEchoWithoutReply\000"
	.align	2
$LC61:
	.ascii	"TcpInvalidOptions\000"
	.align	2
$LC62:
	.ascii	"LoopBackEchoChargen\000"
	.align	2
$LC63:
	.ascii	"MaxDosType\000"
	.rdata
	.align	2
	.type	rtl_dos_name, @object
	.size	rtl_dos_name, 112
rtl_dos_name:
	.word	$LC36
	.word	$LC37
	.word	$LC38
	.word	$LC39
	.word	$LC40
	.word	$LC41
	.word	$LC42
	.word	$LC43
	.word	$LC44
	.word	$LC45
	.word	$LC46
	.word	$LC47
	.word	$LC48
	.word	$LC49
	.word	$LC50
	.word	$LC51
	.word	$LC52
	.word	$LC53
	.word	$LC54
	.word	$LC55
	.word	$LC56
	.word	$LC57
	.word	$LC58
	.word	$LC59
	.word	$LC60
	.word	$LC61
	.word	$LC62
	.word	$LC63
	.local	res12
	.comm	res12,4,4
	.globl	filter_table_proc_fops
	.data
	.align	2
	.type	filter_table_proc_fops, @object
	.size	filter_table_proc_fops, 108
filter_table_proc_fops:
	.space	4
	.word	seq_lseek
	.word	seq_read
	.word	filter_table_single_write
	.space	28
	.word	filter_table_single_open
	.space	4
	.word	single_release
	.space	52
	.globl	table_list_head
	.section	.bss
	.align	2
	.type	table_list_head, @object
	.size	table_list_head, 32
table_list_head:
	.space	32
	.local	filter_rule_num
	.comm	filter_rule_num,4,4
	.globl	filter_tlb
	.data
	.align	2
	.type	filter_tlb, @object
	.size	filter_tlb, 40
filter_tlb:
	.word	0
	.word	0
	.word	1
	.word	rtl_ip_range_filter_fastpath
	.word	2
	.word	rtl_mac_filter_fastpath
	.word	3
	.word	rtl_url_filter_fastpath
	.word	4
	.word	rtl_schedule_filter_fastpath
	.local	url_filter_flag
	.comm	url_filter_flag,4,4
	.local	url_filter_mode
	.comm	url_filter_mode,4,4
	.local	log_enable
	.comm	log_enable,4,4
	.local	log_info
	.comm	log_info,32,4
	.local	get_info_from_usr_space
	.comm	get_info_from_usr_space,1024,4
	.text
$Letext0:
	.file 11 "include/uapi/asm-generic/int-ll64.h"
	.file 12 "include/asm-generic/int-ll64.h"
	.file 13 "/home/extra_home/marklee/rtk_OpenWRT_BB/BB_v1407_branch_v25/v25_relase_source_test_0830/rtk_OpenWRT_v2.5_Branch_20160603/build_dir/target-mips_24kec_uClibc-0.9.33.2/linux-rtkmips_rtl8198c/linux-3.10.49/include/uapi/asm-generic/posix_types.h"
	.file 14 "include/uapi/linux/types.h"
	.file 15 "include/linux/types.h"
	.file 16 "include/asm-generic/atomic-long.h"
	.file 17 "/home/extra_home/marklee/rtk_OpenWRT_BB/BB_v1407_branch_v25/v25_relase_source_test_0830/rtk_OpenWRT_v2.5_Branch_20160603/build_dir/target-mips_24kec_uClibc-0.9.33.2/linux-rtkmips_rtl8198c/linux-3.10.49/arch/mips/include/asm/page.h"
	.file 18 "include/uapi/linux/in.h"
	.file 19 "include/uapi/linux/if_link.h"
	.file 20 "include/uapi/linux/rtnetlink.h"
	.file 21 "include/net/ndisc.h"
	.file 22 "include/linux/inetdevice.h"
	.file 23 "include/net/rtl/rtl_types.h"
	.file 24 "include/net/rtl/fastpath/fastpath_core.h"
	.file 25 "/home/extra_home/marklee/rtk_OpenWRT_BB/BB_v1407_branch_v25/v25_relase_source_test_0830/rtk_OpenWRT_v2.5_Branch_20160603/build_dir/target-mips_24kec_uClibc-0.9.33.2/linux-rtkmips_rtl8198c/linux-3.10.49/arch/mips/include/asm/bitops.h"
	.file 26 "include/linux/kmemleak.h"
	.file 27 "include/linux/log2.h"
	.file 28 "include/asm-generic/getorder.h"
	.file 29 "include/linux/slab.h"
	.file 30 "/home/extra_home/marklee/rtk_OpenWRT_BB/BB_v1407_branch_v25/v25_relase_source_test_0830/rtk_OpenWRT_v2.5_Branch_20160603/build_dir/target-mips_24kec_uClibc-0.9.33.2/linux-rtkmips_rtl8198c/linux-3.10.49/arch/mips/include/asm/thread_info.h"
	.file 31 "include/net/inet_frag.h"
	.file 32 "include/linux/etherdevice.h"
	.file 33 "include/linux/export.h"
	.file 34 "/home/extra_home/marklee/rtk_OpenWRT_BB/BB_v1407_branch_v25/v25_relase_source_test_0830/rtk_OpenWRT_v2.5_Branch_20160603/build_dir/target-mips_24kec_uClibc-0.9.33.2/linux-rtkmips_rtl8198c/linux-3.10.49/arch/mips/include/asm/cpu-info.h"
	.file 35 "include/linux/printk.h"
	.file 36 "include/linux/kernel.h"
	.file 37 "include/linux/cpumask.h"
	.file 38 "include/linux/time.h"
	.file 39 "include/linux/highuid.h"
	.file 40 "include/linux/seq_file.h"
	.file 41 "/home/extra_home/marklee/rtk_OpenWRT_BB/BB_v1407_branch_v25/v25_relase_source_test_0830/rtk_OpenWRT_v2.5_Branch_20160603/build_dir/target-mips_24kec_uClibc-0.9.33.2/linux-rtkmips_rtl8198c/linux-3.10.49/arch/mips/include/asm/io.h"
	.file 42 "include/linux/mm.h"
	.file 43 "include/linux/mmzone.h"
	.file 44 "include/linux/jiffies.h"
	.file 45 "include/linux/workqueue.h"
	.file 46 "/home/extra_home/marklee/rtk_OpenWRT_BB/BB_v1407_branch_v25/v25_relase_source_test_0830/rtk_OpenWRT_v2.5_Branch_20160603/build_dir/target-mips_24kec_uClibc-0.9.33.2/linux-rtkmips_rtl8198c/linux-3.10.49/arch/mips/include/asm/smp.h"
	.file 47 "/home/extra_home/marklee/rtk_OpenWRT_BB/BB_v1407_branch_v25/v25_relase_source_test_0830/rtk_OpenWRT_v2.5_Branch_20160603/build_dir/target-mips_24kec_uClibc-0.9.33.2/linux-rtkmips_rtl8198c/linux-3.10.49/arch/mips/include/asm/smp-ops.h"
	.file 48 "include/asm-generic/percpu.h"
	.file 49 "include/linux/sched.h"
	.file 50 "include/linux/percpu_counter.h"
	.file 51 "include/linux/quota.h"
	.file 52 "include/linux/interrupt.h"
	.file 53 "include/linux/kernel_stat.h"
	.file 54 "include/linux/ioport.h"
	.file 55 "include/linux/debug_locks.h"
	.file 56 "/home/extra_home/marklee/rtk_OpenWRT_BB/BB_v1407_branch_v25/v25_relase_source_test_0830/rtk_OpenWRT_v2.5_Branch_20160603/build_dir/target-mips_24kec_uClibc-0.9.33.2/linux-rtkmips_rtl8198c/linux-3.10.49/arch/mips/include/asm/pgtable-32.h"
	.file 57 "/home/extra_home/marklee/rtk_OpenWRT_BB/BB_v1407_branch_v25/v25_relase_source_test_0830/rtk_OpenWRT_v2.5_Branch_20160603/build_dir/target-mips_24kec_uClibc-0.9.33.2/linux-rtkmips_rtl8198c/linux-3.10.49/arch/mips/include/asm/pgtable.h"
	.file 58 "include/asm-generic/pgtable.h"
	.file 59 "include/linux/vmstat.h"
	.file 60 "include/linux/netfilter.h"
	.file 61 "include/net/net_namespace.h"
	.file 62 "include/linux/netdevice.h"
	.file 63 "include/net/sock.h"
	.file 64 "include/net/inet_sock.h"
	.file 65 "include/net/ip.h"
	.file 66 "include/net/inet_connection_sock.h"
	.file 67 "include/net/route.h"
	.file 68 "include/net/arp.h"
	.file 69 "include/net/tcp.h"
	.file 70 "/home/extra_home/marklee/rtk_OpenWRT_BB/BB_v1407_branch_v25/v25_relase_source_test_0830/rtk_OpenWRT_v2.5_Branch_20160603/build_dir/target-mips_24kec_uClibc-0.9.33.2/linux-rtkmips_rtl8198c/linux-3.10.49/arch/mips/include/asm/bug.h"